081110 013034 5493 INFO dfs.DataNode$PacketResponder: PacketResponder 2 for block blk_-5156203063216864530 terminating
081111 052039 20915 INFO dfs.DataNode$PacketResponder: PacketResponder 0 for block blk_145304159236340007 terminating
081111 030036 18019 INFO dfs.DataNode$DataXceiver: Receiving block blk_-6012473738907074725 src: /10.251.203.149:59169 dest: /10.251.203.149:50010
081110 012421 5513 INFO dfs.DataNode$PacketResponder: PacketResponder 2 for block blk_-3941680381998016556 terminating
081110 105001 9460 INFO dfs.DataNode$DataXceiver: Receiving block blk_310012626971961795 src: /10.251.215.50:54672 dest: /10.251.215.50:50010
081110 210122 28 INFO dfs.FSNamesystem: BLOCK* NameSystem.delete: blk_6927937513583970107 is added to invalidSet of 10.251.214.130:50010
081110 103104 30 INFO dfs.FSNamesystem: BLOCK* NameSystem.delete: blk_-2154848373555520136 is added to invalidSet of 10.251.195.33:50010
081110 103532 19 INFO dfs.FSDataset: Deleting block blk_-5583222727161038624 file /mnt/hadoop/dfs/data/current/subdir26/blk_-5583222727161038624
081111 090155 19 INFO dfs.FSDataset: Deleting block blk_6707326398522327254 file /mnt/hadoop/dfs/data/current/subdir24/blk_6707326398522327254
081111 090613 29 INFO dfs.FSNamesystem: BLOCK* NameSystem.allocateBlock: /user/root/rand8/_temporary/_task_200811101024_0015_m_000025_0/part-00025. blk_6286655996356683362
081111 110556 19 INFO dfs.FSDataset: Deleting block blk_1952601975563518864 file /mnt/hadoop/dfs/data/current/subdir11/blk_1952601975563518864
081110 103504 19 INFO dfs.FSDataset: Deleting block blk_-7246426985404215108 file /mnt/hadoop/dfs/data/current/subdir62/blk_-7246426985404215108
081111 090044 18 INFO dfs.FSDataset: Deleting block blk_-3009215620448678450 file /mnt/hadoop/dfs/data/current/subdir8/blk_-3009215620448678450
081111 101330 26 INFO dfs.FSNamesystem: BLOCK* NameSystem.addStoredBlock: blockMap updated: 10.251.111.209:50010 is added to blk_2805305279934763523 size 67108864
081111 050107 20242 INFO dfs.DataNode$PacketResponder: Received block blk_7046753386015419249 of size 67108864 from /10.250.13.188
081110 113022 9866 INFO dfs.DataNode$PacketResponder: Received block blk_-7653324330205116233 of size 67108864 from /10.251.123.99
081111 060232 21723 INFO dfs.DataNode$PacketResponder: PacketResponder 1 for block blk_3892303819207418217 terminating
081110 013306 5723 INFO dfs.DataNode$PacketResponder: PacketResponder 1 for block blk_1654554377260563580 terminating
081111 062330 21932 INFO dfs.DataNode$DataXceiver: Receiving block blk_-6498922875402421475 src: /10.251.42.16:36323 dest: /10.251.42.16:50010
081109 204502 27 INFO dfs.FSNamesystem: BLOCK* NameSystem.addStoredBlock: blockMap updated: 10.250.11.100:50010 is added to blk_-1807532060876835424 size 67108864
081111 035802 19416 INFO dfs.DataNode$DataXceiver: Receiving block blk_-3310077398739881629 src: /10.251.37.240:44106 dest: /10.251.37.240:50010
081110 150757 28 INFO dfs.FSNamesystem: BLOCK* NameSystem.addStoredBlock: blockMap updated: 10.251.202.181:50010 is added to blk_-6534231693826139773 size 67108864
081111 083303 24486 INFO dfs.DataNode$PacketResponder: Received block blk_-7454163743162293741 of size 67108864 from /10.251.199.245
081111 023032 27 INFO dfs.FSNamesystem: BLOCK* NameSystem.delete: blk_-1299863621115693590 is added to invalidSet of 10.250.11.85:50010
081111 041749 19585 INFO dfs.DataNode$DataXceiver: Receiving block blk_-4127193172714605201 src: /10.250.14.196:60356 dest: /10.250.14.196:50010
081110 210151 28 INFO dfs.FSNamesystem: BLOCK* NameSystem.delete: blk_-9155982481964554236 is added to invalidSet of 10.251.73.220:50010
081110 013546 5527 INFO dfs.DataNode$PacketResponder: PacketResponder 0 for block blk_8785880031143185761 terminating
081110 011724 5359 INFO dfs.DataNode$PacketResponder: PacketResponder 2 for block blk_-953881607806501332 terminating
081111 034443 18876 INFO dfs.DataNode$DataXceiver: Receiving block blk_-6707622334623004836 src: /10.250.10.100:60128 dest: /10.250.10.100:50010
081110 091556 8564 INFO dfs.DataNode$DataXceiver: 10.251.107.196:50010 Served block blk_-5914308798674591802 to /10.251.203.149
081111 055715 21196 INFO dfs.DataNode$PacketResponder: PacketResponder 1 for block blk_7431472559770792646 terminating
081111 081151 34 INFO dfs.FSNamesystem: BLOCK* NameSystem.allocateBlock: /user/root/rand7/_temporary/_task_200811101024_0014_m_000416_0/part-00416. blk_-922538810884121158
081110 104859 9296 INFO dfs.DataNode$PacketResponder: Received block blk_-7311025357332189005 of size 67108864 from /10.251.39.179
081110 181203 13 INFO dfs.DataBlockScanner: Verification succeeded for blk_9141711883834612643
081110 223423 29 INFO dfs.FSNamesystem: BLOCK* NameSystem.allocateBlock: /user/root/randtxt3/_temporary/_task_200811101024_0007_m_000874_0/part-00874. blk_3803478471550298994
081110 111459 29 INFO dfs.FSNamesystem: BLOCK* NameSystem.addStoredBlock: blockMap updated: 10.251.42.191:50010 is added to blk_4999108730958129531 size 67108864
081111 044737 19 INFO dfs.FSDataset: Deleting block blk_-1113304810664343466 file /mnt/hadoop/dfs/data/current/subdir36/blk_-1113304810664343466
081111 053729 21469 INFO dfs.DataNode$PacketResponder: PacketResponder 0 for block blk_-2693190264124804785 terminating
081111 075848 19 INFO dfs.FSDataset: Deleting block blk_-4342856879751634084 file /mnt/hadoop/dfs/data/current/subdir23/blk_-4342856879751634084
081110 210200 28 INFO dfs.FSNamesystem: BLOCK* NameSystem.delete: blk_-4213656630369954053 is added to invalidSet of 10.251.194.147:50010
081110 132535 11974 WARN dfs.DataNode$DataXceiver: 10.251.70.112:50010:Got exception while serving blk_-7227417938352864700 to /10.251.31.5:
081110 155228 13324 INFO dfs.DataNode$DataXceiver: Receiving block blk_4890398318341143513 src: /10.251.91.159:38401 dest: /10.251.91.159:50010
081110 221327 28 INFO dfs.FSNamesystem: BLOCK* NameSystem.allocateBlock: /user/root/randtxt3/_temporary/_task_200811101024_0007_m_000061_0/part-00061. blk_-5478957724840543567
081109 211815 32 INFO dfs.FSNamesystem: BLOCK* NameSystem.allocateBlock: /user/root/rand/_temporary/_task_200811092030_0001_m_001475_0/part-01475. blk_-7162593183888509970
081111 084649 24779 INFO dfs.DataNode$PacketResponder: PacketResponder 2 for block blk_8461439297364460810 terminating
081110 210912 14684 INFO dfs.DataNode$DataXceiver: Receiving block blk_-2055570974469108436 src: /10.251.195.33:33493 dest: /10.251.195.33:50010
081110 000026 4529 INFO dfs.DataNode$PacketResponder: Received block blk_-718990972698508129 of size 67108864 from /10.251.125.193
081111 110442 26 INFO dfs.FSNamesystem: BLOCK* NameSystem.delete: blk_6000220423108043914 is added to invalidSet of 10.251.26.8:50010
081111 081122 28 INFO dfs.FSNamesystem: BLOCK* NameSystem.allocateBlock: /user/root/rand7/_temporary/_task_200811101024_0014_m_000715_0/part-00715. blk_4559290142786017485
081110 151430 13078 INFO dfs.DataNode$PacketResponder: Received block blk_8091643376780689151 of size 67108864 from /10.251.198.33
081110 120238 33 INFO dfs.FSNamesystem: BLOCK* NameSystem.addStoredBlock: blockMap updated: 10.251.195.70:50010 is added to blk_-6698216957196858953 size 67108864
081111 103931 32 INFO dfs.FSNamesystem: BLOCK* NameSystem.addStoredBlock: blockMap updated: 10.251.71.146:50010 is added to blk_-3096646354383902036 size 67108864
081111 065859 22533 INFO dfs.DataNode$PacketResponder: PacketResponder 0 for block blk_-23751885005229788 terminating
081110 103132 30 INFO dfs.FSNamesystem: BLOCK* NameSystem.delete: blk_3066046948595046427 is added to invalidSet of 10.250.10.144:50010
081111 065433 19 INFO dfs.FSDataset: Deleting block blk_-1156912736363387626 file /mnt/hadoop/dfs/data/current/subdir56/blk_-1156912736363387626
081111 075845 19 INFO dfs.FSDataset: Deleting block blk_-2480364025775616370 file /mnt/hadoop/dfs/data/current/subdir29/blk_-2480364025775616370
081110 115118 10480 INFO dfs.DataNode$PacketResponder: Received block blk_-561305308486764800 of size 67108864 from /10.251.26.177
081111 075639 28 INFO dfs.FSNamesystem: BLOCK* NameSystem.delete: blk_-7559470479156067651 is added to invalidSet of 10.251.106.214:50010
081111 065450 19 INFO dfs.FSDataset: Deleting block blk_586650723809105924 file /mnt/hadoop/dfs/data/current/subdir63/blk_586650723809105924
081111 074053 23531 INFO dfs.DataNode$DataXceiver: Receiving block blk_-9058892621734042301 src: /10.250.10.6:39402 dest: /10.250.10.6:50010
081109 235412 28 INFO dfs.FSNamesystem: BLOCK* NameSystem.addStoredBlock: blockMap updated: 10.251.43.115:50010 is added to blk_-3010079166270603016 size 67108864
081111 025012 28 INFO dfs.FSNamesystem: BLOCK* NameSystem.allocateBlock: /user/root/rand4/_temporary/_task_200811101024_0009_m_000441_0/part-00441. blk_1275933518320333578
081110 211937 29 INFO dfs.FSNamesystem: BLOCK* NameSystem.allocateBlock: /user/root/rand3/_temporary/_task_200811101024_0005_m_000596_0/part-00596. blk_4947552611825638949
081111 090341 28 INFO dfs.FSNamesystem: BLOCK* NameSystem.allocateBlock: /user/root/rand8/_temporary/_task_200811101024_0015_m_000140_0/part-00140. blk_-1967117719358910029
081111 063740 22638 INFO dfs.DataNode$PacketResponder: PacketResponder 0 for block blk_2667853278032449055 terminating
081110 210444 19 INFO dfs.FSDataset: Deleting block blk_-7831901727312792120 file /mnt/hadoop/dfs/data/current/subdir60/blk_-7831901727312792120
081110 110621 33 INFO dfs.FSNamesystem: BLOCK* NameSystem.allocateBlock: /user/root/rand/_temporary/_task_200811101024_0001_m_001079_0/part-01079. blk_-7201458690698161283
081110 114426 35 INFO dfs.FSNamesystem: BLOCK* NameSystem.allocateBlock: /user/root/randtxt2/_temporary/_task_200811101024_0002_m_000139_0/part-00139. blk_-3978628586406705197
081110 080442 8089 INFO dfs.DataNode$DataXceiver: 10.251.30.101:50010 Served block blk_341507183240202867 to /10.251.30.101
081111 023032 27 INFO dfs.FSNamesystem: BLOCK* NameSystem.delete: blk_-750912879280437285 is added to invalidSet of 10.251.107.227:50010
081110 103143 30 INFO dfs.FSNamesystem: BLOCK* NameSystem.delete: blk_5758734860618249115 is added to invalidSet of 10.251.214.112:50010
081111 095422 26 INFO dfs.FSNamesystem: BLOCK* NameSystem.addStoredBlock: blockMap updated: 10.251.70.37:50010 is added to blk_4688396859818099348 size 67108864
081111 085906 27 INFO dfs.FSNamesystem: BLOCK* NameSystem.delete: blk_5679279414493977210 is added to invalidSet of 10.251.202.181:50010
081111 103553 26948 INFO dfs.DataNode$PacketResponder: Received block blk_7121040403115070346 of size 67108864 from /10.250.6.191
081110 015044 5571 INFO dfs.DataNode$PacketResponder: PacketResponder 0 for block blk_7759788765725725611 terminating
081110 221020 15974 INFO dfs.DataNode$DataXceiver: Receiving block blk_-5928599936516429188 src: /10.251.91.159:47510 dest: /10.251.91.159:50010
081111 053137 20751 INFO dfs.DataNode$PacketResponder: Received block blk_-4446209793602463381 of size 67108864 from /10.251.215.16
081111 023037 27 INFO dfs.FSNamesystem: BLOCK* NameSystem.delete: blk_-575550802343400862 is added to invalidSet of 10.251.199.150:50010
081111 075928 19 INFO dfs.FSDataset: Deleting block blk_6024347057216316299 file /mnt/hadoop/dfs/data/current/subdir4/blk_6024347057216316299
081111 040653 35 INFO dfs.FSNamesystem: BLOCK* NameSystem.addStoredBlock: blockMap updated: 10.251.106.214:50010 is added to blk_-7215547784452156086 size 67108864
081110 115314 32 INFO dfs.FSNamesystem: BLOCK* NameSystem.addStoredBlock: blockMap updated: 10.251.65.237:50010 is added to blk_-244081210942160914 size 67108864
081111 110526 19 INFO dfs.FSDataset: Deleting block blk_-8965210566099476875 file /mnt/hadoop/dfs/data/current/subdir18/blk_-8965210566099476875
081109 205444 880 INFO dfs.DataNode$PacketResponder: PacketResponder 2 for block blk_5894874236190922749 terminating
081111 083603 24490 INFO dfs.DataNode$PacketResponder: Received block blk_-6876960715738821984 of size 67108864 from /10.251.215.50
081110 222727 19 INFO dfs.FSDataset: Deleting block blk_6237092810864241463 file /mnt/hadoop/dfs/data/current/subdir57/blk_6237092810864241463
081110 030253 6454 WARN dfs.DataNode$DataXceiver: 10.251.126.5:50010:Got exception while serving blk_-7215346114810835586 to /10.251.126.5:
081111 102804 29 INFO dfs.FSNamesystem: BLOCK* NameSystem.allocateBlock: /user/root/randtxt9/_temporary/_task_200811101024_0016_m_000809_0/part-00809. blk_-261525708504083758
081110 103106 30 INFO dfs.FSNamesystem: BLOCK* NameSystem.delete: blk_-5375566413921569139 is added to invalidSet of 10.251.107.50:50010
081111 103416 26813 INFO dfs.DataNode$PacketResponder: PacketResponder 0 for block blk_3553399282120505938 terminating
081111 043550 19938 INFO dfs.DataNode$PacketResponder: Received block blk_4958394370316828415 of size 67108864 from /10.251.39.179
081111 063408 22136 INFO dfs.DataNode$DataXceiver: Receiving block blk_906043203237378004 src: /10.251.126.5:35900 dest: /10.251.126.5:50010
081109 212248 13 INFO dfs.DataBlockScanner: Verification succeeded for blk_6020463466647275601
081111 033328 32 INFO dfs.FSNamesystem: BLOCK* NameSystem.addStoredBlock: blockMap updated: 10.251.67.4:50010 is added to blk_-1077141731503347373 size 67108864
081110 221003 15758 INFO dfs.DataNode$DataXceiver: Receiving block blk_1004864010291450178 src: /10.251.91.84:58982 dest: /10.251.91.84:50010
081111 094519 26179 INFO dfs.DataNode$PacketResponder: Received block blk_4717991282674113235 of size 3545261 from /10.251.42.9
081110 111241 9834 INFO dfs.DataNode$PacketResponder: Received block blk_7125808991434556034 of size 67108864 from /10.251.70.5
081109 233204 32 INFO dfs.FSNamesystem: BLOCK* NameSystem.allocateBlock: /user/root/sortrand/_temporary/_task_200811092030_0002_r_000268_0/part-00268. blk_-5562917463354456577
081110 210138 28 INFO dfs.FSNamesystem: BLOCK* NameSystem.delete: blk_8668804329122629535 is added to invalidSet of 10.251.90.81:50010
081110 050205 6944 INFO dfs.DataNode$DataXceiver: 10.251.70.5:50010 Served block blk_6713850836117705622 to /10.251.70.5
081110 103404 8863 INFO dfs.DataNode$PacketResponder: PacketResponder 1 for block blk_176719711566174107 terminating
081111 104825 35 INFO dfs.FSNamesystem: BLOCK* NameSystem.addStoredBlock: blockMap updated: 10.251.197.226:50010 is added to blk_-8401373799489954777 size 67108864
081111 075727 23644 INFO dfs.DataNode$DataXceiver: Receiving block blk_-7637183366595444778 src: /10.251.71.240:44507 dest: /10.251.71.240:50010
081110 210126 28 INFO dfs.FSNamesystem: BLOCK* NameSystem.delete: blk_5220700616386384098 is added to invalidSet of 10.251.105.189:50010
081111 104221 26914 INFO dfs.DataNode$DataXceiver: Receiving block blk_-1239727946975339758 src: /10.251.30.134:46367 dest: /10.251.30.134:50010
081110 182148 13969 WARN dfs.DataNode$DataXceiver: 10.251.43.210:50010:Got exception while serving blk_-4510112185230392201 to /10.251.43.210:
081111 044611 19686 INFO dfs.DataNode$DataXceiver: Receiving block blk_4940460905702517395 src: /10.251.109.209:48065 dest: /10.251.109.209:50010
081110 210125 28 INFO dfs.FSNamesystem: BLOCK* NameSystem.delete: blk_-6708963281438865186 is added to invalidSet of 10.251.75.49:50010
081111 030606 18330 INFO dfs.DataNode$PacketResponder: PacketResponder 0 for block blk_-6134520578759620164 terminating
081110 121915 11036 INFO dfs.DataNode$PacketResponder: PacketResponder 0 for block blk_2664279957186036244 terminating
081111 053254 20730 INFO dfs.DataNode$PacketResponder: PacketResponder 1 for block blk_-8605806356139997712 terminating
081110 223138 16548 INFO dfs.DataNode$DataXceiver: Receiving block blk_-723448110517309002 src: /10.250.15.101:40158 dest: /10.250.15.101:50010
081111 082822 24477 INFO dfs.DataNode$PacketResponder: Received block blk_7209404214523094024 of size 67108864 from /10.251.126.83
081111 044652 19 INFO dfs.FSDataset: Deleting block blk_-1053538544743071779 file /mnt/hadoop/dfs/data/current/blk_-1053538544743071779
081110 225707 32 INFO dfs.FSNamesystem: BLOCK* NameSystem.addStoredBlock: blockMap updated: 10.251.197.226:50010 is added to blk_-362988554152017962 size 67108864
081109 211353 1595 INFO dfs.DataNode$PacketResponder: PacketResponder 0 for block blk_8804873946794173956 terminating
081110 121930 10590 INFO dfs.DataNode$DataXceiver: Receiving block blk_-5747502739195083199 src: /10.251.70.211:49127 dest: /10.251.70.211:50010
081111 090916 25188 INFO dfs.DataNode$DataXceiver: Receiving block blk_-6770998402809552935 src: /10.251.110.160:36355 dest: /10.251.110.160:50010
081111 091904 28 INFO dfs.FSNamesystem: BLOCK* NameSystem.addStoredBlock: blockMap updated: 10.251.43.115:50010 is added to blk_-3344977144032741693 size 67108864
081110 103140 30 INFO dfs.FSNamesystem: BLOCK* NameSystem.delete: blk_-3507742237899095090 is added to invalidSet of 10.251.71.240:50010
081111 052626 20748 INFO dfs.DataNode$PacketResponder: Received block blk_8411713341763460987 of size 67108864 from /10.251.127.243
081110 000930 27 INFO dfs.FSNamesystem: BLOCK* NameSystem.addStoredBlock: blockMap updated: 10.251.215.192:50010 is added to blk_6942090979437311912 size 67108864
081110 220636 32 INFO dfs.FSNamesystem: BLOCK* NameSystem.delete: blk_7621211655890257640 is added to invalidSet of 10.251.71.193:50010
081111 050841 28 INFO dfs.FSNamesystem: BLOCK* NameSystem.addStoredBlock: blockMap updated: 10.251.109.236:50010 is added to blk_2413589691867980708 size 3550901
081111 065912 22615 INFO dfs.DataNode$DataXceiver: Receiving block blk_7444690709445154101 src: /10.250.5.161:59663 dest: /10.250.5.161:50010
081110 111309 26 INFO dfs.FSNamesystem: BLOCK* NameSystem.addStoredBlock: blockMap updated: 10.251.67.211:50010 is added to blk_-1492451309888617998 size 67108864
081110 220641 32 INFO dfs.FSNamesystem: BLOCK* NameSystem.delete: blk_6508293654323621193 is added to invalidSet of 10.250.7.32:50010
081110 214345 15480 INFO dfs.DataNode$DataXceiver: Receiving block blk_-8178120108354201187 src: /10.251.215.192:37338 dest: /10.251.215.192:50010
081111 071105 22743 INFO dfs.DataNode$DataXceiver: Receiving block blk_-3537763776839928812 src: /10.250.7.244:51380 dest: /10.250.7.244:50010
081111 044657 19 INFO dfs.FSDataset: Deleting block blk_-4419013132265544359 file /mnt/hadoop/dfs/data/current/subdir5/blk_-4419013132265544359
081111 100020 26151 INFO dfs.DataNode$PacketResponder: Received block blk_1934552108950637350 of size 67108864 from /10.251.66.63
081111 075918 19 INFO dfs.FSDataset: Deleting block blk_2167226642332842466 file /mnt/hadoop/dfs/data/current/subdir10/blk_2167226642332842466
081110 103138 30 INFO dfs.FSNamesystem: BLOCK* NameSystem.delete: blk_-3055126078486936668 is added to invalidSet of 10.251.111.209:50010
081110 215640 15474 INFO dfs.DataNode$PacketResponder: PacketResponder 0 for block blk_8885296193913383428 terminating
081111 050610 20572 INFO dfs.DataNode$PacketResponder: PacketResponder 1 for block blk_-3197243557465343099 terminating
081110 210431 19 INFO dfs.FSDataset: Deleting block blk_-6914837761596009801 file /mnt/hadoop/dfs/data/current/subdir49/blk_-6914837761596009801
081110 210344 19 INFO dfs.FSDataset: Deleting block blk_-7573150424424618854 file /mnt/hadoop/dfs/data/current/subdir36/blk_-7573150424424618854
081111 024925 26 INFO dfs.FSNamesystem: BLOCK* NameSystem.addStoredBlock: blockMap updated: 10.250.11.85:50010 is added to blk_7023618725820846600 size 67108864
081110 013348 32 INFO dfs.FSNamesystem: BLOCK* NameSystem.addStoredBlock: blockMap updated: 10.251.39.64:50010 is added to blk_-3783232539981878761 size 67108864
081110 144626 12656 INFO dfs.DataNode$DataXceiver: Receiving block blk_-2121322851929220596 src: /10.251.197.226:48459 dest: /10.251.197.226:50010
081111 103153 26478 INFO dfs.DataNode$PacketResponder: Received block blk_7326241815201953177 of size 67108864 from /10.251.214.225
081110 220645 32 INFO dfs.FSNamesystem: BLOCK* NameSystem.delete: blk_-6488056388411370899 is added to invalidSet of 10.251.203.149:50010
081110 013537 5403 INFO dfs.DataNode$PacketResponder: Received block blk_573477514425728000 of size 67108864 from /10.251.90.239
081110 001245 26 INFO dfs.FSNamesystem: BLOCK* NameSystem.addStoredBlock: blockMap updated: 10.251.35.1:50010 is added to blk_-5092938171762888235 size 67108864
081110 104832 9166 INFO dfs.DataNode$PacketResponder: PacketResponder 1 for block blk_3149270371094492625 terminating
081111 065224 26 INFO dfs.FSNamesystem: BLOCK* NameSystem.delete: blk_-7497732561962815627 is added to invalidSet of 10.251.31.85:50010
081110 225137 16675 INFO dfs.DataNode$DataXceiver: Receiving block blk_5103535473445787765 src: /10.250.7.96:47750 dest: /10.250.7.96:50010
081110 220837 19 INFO dfs.FSDataset: Deleting block blk_-7049388482048110722 file /mnt/hadoop/dfs/data/current/subdir7/blk_-7049388482048110722
081111 052323 33 INFO dfs.FSNamesystem: BLOCK* NameSystem.addStoredBlock: blockMap updated: 10.251.111.228:50010 is added to blk_7719000810956655413 size 67108864
081111 080006 29 INFO dfs.FSNamesystem: BLOCK* NameSystem.addStoredBlock: blockMap updated: 10.251.67.4:50010 is added to blk_242555978179193742 size 67108864
081110 103514 19 INFO dfs.FSDataset: Deleting block blk_-7488057329384173650 file /mnt/hadoop/dfs/data/current/subdir60/blk_-7488057329384173650
081111 102550 35 INFO dfs.FSNamesystem: BLOCK* NameSystem.allocateBlock: /user/root/randtxt9/_temporary/_task_200811101024_0016_m_001038_0/part-01038. blk_-3232407592637486542
081111 070600 28 INFO dfs.FSNamesystem: BLOCK* NameSystem.allocateBlock: /user/root/rand6/_temporary/_task_200811101024_0013_m_000637_0/part-00637. blk_-3472133766925355930
081111 094106 26 INFO dfs.FSNamesystem: BLOCK* NameSystem.addStoredBlock: blockMap updated: 10.250.10.100:50010 is added to blk_-496264425149449426 size 67108864
081111 095909 26320 INFO dfs.DataNode$PacketResponder: PacketResponder 2 for block blk_-3069655168629816814 terminating
081111 102358 28 INFO dfs.FSNamesystem: BLOCK* NameSystem.addStoredBlock: blockMap updated: 10.251.127.191:50010 is added to blk_1470250719026776447 size 67108864
081110 011724 31 INFO dfs.FSNamesystem: BLOCK* NameSystem.addStoredBlock: blockMap updated: 10.251.193.224:50010 is added to blk_-5277796198463064660 size 67108864
081109 235110 28 INFO dfs.FSNamesystem: BLOCK* NameSystem.allocateBlock: /user/root/sortrand/_temporary/_task_200811092030_0002_r_000008_0/part-00008. blk_-7733931669375226670
081110 225825 33 INFO dfs.FSNamesystem: BLOCK* NameSystem.addStoredBlock: blockMap updated: 10.250.11.100:50010 is added to blk_-5515726700907591072 size 67108864
081110 103948 19 INFO dfs.FSDataset: Deleting block blk_7314529905250490242 file /mnt/hadoop/dfs/data/current/subdir45/blk_7314529905250490242
081110 113720 10220 INFO dfs.DataNode$PacketResponder: PacketResponder 0 for block blk_1052145861425824823 terminating
081111 063356 22183 INFO dfs.DataNode$DataXceiver: Receiving block blk_7823753252066071890 src: /10.251.66.3:49575 dest: /10.251.66.3:50010
081111 094520 27 INFO dfs.FSNamesystem: BLOCK* NameSystem.addStoredBlock: blockMap updated: 10.251.195.33:50010 is added to blk_8022608436745391761 size 67108864
081109 214805 2815 WARN dfs.DataNode$DataXceiver: 10.251.75.163:50010:Got exception while serving blk_-4384328625926759710 to /10.251.90.64:
081111 060940 21606 INFO dfs.DataNode$DataXceiver: Receiving block blk_-4811670396791756030 src: /10.251.123.132:56877 dest: /10.251.123.132:50010
081110 105144 9554 INFO dfs.DataNode$DataXceiver: Receiving block blk_422452161354705692 src: /10.251.71.240:39269 dest: /10.251.71.240:50010
081110 011134 5152 INFO dfs.DataNode$PacketResponder: Received block blk_-770198606498901233 of size 67108864 from /10.251.122.65
081111 060725 21732 INFO dfs.DataNode$DataXceiver: Receiving block blk_-4424057846411735063 src: /10.251.110.68:53314 dest: /10.251.110.68:50010
081111 025552 18187 INFO dfs.DataNode$PacketResponder: Received block blk_-7836725139652525194 of size 67108864 from /10.251.123.99
081110 224451 16650 INFO dfs.DataNode$PacketResponder: PacketResponder 1 for block blk_8924224999710556821 terminating
081111 083507 24128 INFO dfs.DataNode$DataXceiver: Receiving block blk_-8002997229464999303 src: /10.251.26.177:50135 dest: /10.251.26.177:50010
081111 081034 23857 INFO dfs.DataNode$DataXceiver: Received block blk_-6536482942987035459 src: /10.251.203.246:36621 dest: /10.251.203.246:50010 of size 67108864
081111 052502 20708 INFO dfs.DataNode$DataXceiver: Receiving block blk_4388578637164075191 src: /10.251.90.134:57632 dest: /10.251.90.134:50010
081111 105922 32 INFO dfs.FSNamesystem: BLOCK* NameSystem.addStoredBlock: blockMap updated: 10.251.214.175:50010 is added to blk_-879318974964792894 size 67108864
081110 134451 12012 WARN dfs.DataNode$DataXceiver: 10.251.126.22:50010:Got exception while serving blk_8667960495519597291 to /10.251.37.240:
081111 090550 25364 INFO dfs.DataNode$PacketResponder: Received block blk_3113279049276303237 of size 67108864 from /10.251.42.207
081111 105337 26 INFO dfs.FSNamesystem: BLOCK* NameSystem.addStoredBlock: blockMap updated: 10.251.43.210:50010 is added to blk_-1387928878557439153 size 67108864
081110 151548 13318 INFO dfs.DataNode$PacketResponder: PacketResponder 0 for block blk_-437388413092375116 terminating
081110 223932 35 INFO dfs.FSNamesystem: BLOCK* NameSystem.allocateBlock: /user/root/randtxt3/_temporary/_task_200811101024_0007_m_000906_0/part-00906. blk_-4072745304600321409
081111 044648 18 INFO dfs.FSDataset: Deleting block blk_-814040627274321317 file /mnt/hadoop/dfs/data/current/subdir25/blk_-814040627274321317
081111 023125 19 INFO dfs.FSDataset: Deleting block blk_-7066393861900932472 file /mnt/hadoop/dfs/data/current/subdir10/blk_-7066393861900932472
081109 203650 199 INFO dfs.DataNode$DataXceiver: Receiving block blk_6207205291466497895 src: /10.250.19.16:46791 dest: /10.250.19.16:50010
081110 230040 30 INFO dfs.FSNamesystem: BLOCK* NameSystem.addStoredBlock: blockMap updated: 10.251.214.18:50010 is added to blk_8366360466454751863 size 67108864
081111 062340 34 INFO dfs.FSNamesystem: BLOCK* NameSystem.addStoredBlock: blockMap updated: 10.251.215.50:50010 is added to blk_7828197514559674206 size 28481925
081109 203635 191 INFO dfs.DataNode$DataXceiver: Receiving block blk_-2402004651648010398 src: /10.251.31.160:46784 dest: /10.251.31.160:50010
081110 135736 9250 INFO dfs.DataNode$DataXceiver: 10.251.123.33:50010 Served block blk_2303846421750124355 to /10.251.198.33
081110 220643 32 INFO dfs.FSNamesystem: BLOCK* NameSystem.delete: blk_6216938491813610840 is added to invalidSet of 10.250.15.198:50010
081111 101256 26595 INFO dfs.DataNode$DataXceiver: Receiving block blk_5696724221765459364 src: /10.251.70.37:45561 dest: /10.251.70.37:50010
081110 210135 28 INFO dfs.FSNamesystem: BLOCK* NameSystem.delete: blk_-1643335279946176973 is added to invalidSet of 10.251.105.189:50010
081111 065525 19 INFO dfs.FSDataset: Deleting block blk_7268354807186337941 file /mnt/hadoop/dfs/data/current/subdir42/blk_7268354807186337941
081110 000501 4564 INFO dfs.DataNode$PacketResponder: Received block blk_1133823638420724892 of size 67108864 from /10.251.110.196
081110 014912 5972 INFO dfs.DataNode$PacketResponder: PacketResponder 2 for block blk_6988002535236597136 terminating
081111 053204 21185 INFO dfs.DataNode$DataXceiver: Receiving block blk_7131803727084109024 src: /10.251.199.159:39744 dest: /10.251.199.159:50010
081111 024856 17871 INFO dfs.DataNode$DataXceiver: Receiving block blk_-343204420146040255 src: /10.251.106.37:59014 dest: /10.251.106.37:50010
081111 044729 19 INFO dfs.FSDataset: Deleting block blk_1965529365131668384 file /mnt/hadoop/dfs/data/current/subdir35/blk_1965529365131668384
081109 210957 34 INFO dfs.FSNamesystem: BLOCK* NameSystem.addStoredBlock: blockMap updated: 10.251.65.203:50010 is added to blk_2683008806859931316 size 67108864
081110 103048 34 INFO dfs.FSNamesystem: BLOCK* NameSystem.delete: blk_8392769164661796791 is added to invalidSet of 10.251.195.33:50010
081110 115217 29 INFO dfs.FSNamesystem: BLOCK* NameSystem.addStoredBlock: blockMap updated: 10.250.6.214:50010 is added to blk_5593115983628576468 size 67108864
081110 103145 30 INFO dfs.FSNamesystem: BLOCK* NameSystem.delete: blk_2136668925743826471 is added to invalidSet of 10.251.26.131:50010
081111 044334 29 INFO dfs.FSNamesystem: BLOCK* NameSystem.delete: blk_8821981708867596585 is added to invalidSet of 10.251.197.226:50010
081111 064606 21974 INFO dfs.DataNode$PacketResponder: PacketResponder 0 for block blk_-5737388852635528611 terminating
081110 212501 14724 INFO dfs.DataNode$PacketResponder: PacketResponder 1 for block blk_-5282819124707381625 terminating
081110 210141 28 INFO dfs.FSNamesystem: BLOCK* NameSystem.delete: blk_-1574251174756454172 is added to invalidSet of 10.251.214.67:50010
081110 152147 13303 INFO dfs.DataNode$DataXceiver: Receiving block blk_-7438162941583920594 src: /10.251.65.237:49831 dest: /10.251.65.237:50010
081111 102300 26770 INFO dfs.DataNode$PacketResponder: PacketResponder 1 for block blk_-4025951668054574149 terminating
081109 205535 888 INFO dfs.DataNode$PacketResponder: PacketResponder 0 for block blk_-1519703422484110595 terminating
081110 103056 30 INFO dfs.FSNamesystem: BLOCK* NameSystem.delete: blk_-3876575027880456041 is added to invalidSet of 10.250.14.196:50010
081111 055847 21781 INFO dfs.DataNode$PacketResponder: PacketResponder 0 for block blk_5999317736297302242 terminating
081110 122508 10850 INFO dfs.DataNode$DataXceiver: Receiving block blk_3421940112707260629 src: /10.251.91.159:43422 dest: /10.251.91.159:50010
081110 001401 4754 INFO dfs.DataNode$DataXceiver: Receiving block blk_-1675770623920842785 src: /10.251.67.4:51864 dest: /10.251.67.4:50010
081111 053906 21017 INFO dfs.DataNode$PacketResponder: Received block blk_-639269917658260890 of size 67108864 from /10.251.31.160
081111 062501 22096 INFO dfs.DataNode$PacketResponder: Received block blk_-1461556889192578830 of size 67108864 from /10.251.194.102
081110 143558 29 INFO dfs.FSNamesystem: BLOCK* NameSystem.addStoredBlock: blockMap updated: 10.251.197.161:50010 is added to blk_3711920372965885083 size 67108864
081110 103957 19 INFO dfs.FSDataset: Deleting block blk_8547066074902573702 file /mnt/hadoop/dfs/data/current/subdir32/blk_8547066074902573702
081111 072845 23320 INFO dfs.DataNode$DataXceiver: Receiving block blk_1436729857710136719 src: /10.251.67.113:58739 dest: /10.251.67.113:50010
081109 233906 4114 INFO dfs.DataNode$DataXceiver: Receiving block blk_-1452752166073331537 src: /10.251.122.79:44051 dest: /10.251.122.79:50010
081110 105502 35 INFO dfs.FSNamesystem: BLOCK* NameSystem.addStoredBlock: blockMap updated: 10.251.215.192:50010 is added to blk_5482813509151358005 size 67108864
081110 182223 13 INFO dfs.DataBlockScanner: Verification succeeded for blk_-4689015428374131720
081111 033230 18840 INFO dfs.DataNode$DataXceiver: Receiving block blk_6821694810648662707 src: /10.251.42.207:46895 dest: /10.251.42.207:50010
081110 112807 10019 INFO dfs.DataNode$DataXceiver: Receiving block blk_-1584430564231209398 src: /10.251.70.5:48017 dest: /10.251.70.5:50010
081110 070239 7534 INFO dfs.DataNode$DataXceiver: 10.251.90.81:50010 Served block blk_-8459529269906065933 to /10.251.90.81
081111 080232 23912 INFO dfs.DataNode$DataXceiver: Receiving block blk_1457568654398117138 src: /10.251.70.112:50593 dest: /10.251.70.112:50010
081110 130549 11792 WARN dfs.DataNode$DataXceiver: 10.251.122.79:50010:Got exception while serving blk_3029432551307976866 to /10.251.215.192:
081110 103136 30 INFO dfs.FSNamesystem: BLOCK* NameSystem.delete: blk_6059757412022402728 is added to invalidSet of 10.251.203.80:50010
081111 044522 19 INFO dfs.FSDataset: Deleting block blk_-6047227945366594055 file /mnt/hadoop/dfs/data/current/subdir6/blk_-6047227945366594055
081109 205438 26 INFO dfs.FSNamesystem: BLOCK* NameSystem.addStoredBlock: blockMap updated: 10.251.91.32:50010 is added to blk_-329197535605077773 size 67108864
081110 224646 34 INFO dfs.FSNamesystem: BLOCK* NameSystem.addStoredBlock: blockMap updated: 10.251.27.63:50010 is added to blk_6605121033608474242 size 67108864
081111 075631 28 INFO dfs.FSNamesystem: BLOCK* NameSystem.delete: blk_3924118626430439981 is added to invalidSet of 10.251.122.65:50010
081110 145814 12897 INFO dfs.DataNode$PacketResponder: Received block blk_8698015187959331782 of size 67108864 from /10.251.199.150
081109 211350 1632 INFO dfs.DataNode$DataXceiver: Receiving block blk_8747042733745016127 src: /10.251.122.79:45132 dest: /10.251.122.79:50010
081111 024001 34 INFO dfs.FSNamesystem: BLOCK* NameSystem.addStoredBlock: blockMap updated: 10.251.75.49:50010 is added to blk_-5224066811763050305 size 67108864
081111 092255 33 INFO dfs.FSNamesystem: BLOCK* NameSystem.allocateBlock: /user/root/rand8/_temporary/_task_200811101024_0015_m_000962_0/part-00962. blk_8618729971774790310
081111 023255 19 INFO dfs.FSDataset: Deleting block blk_2123051072573616754 file /mnt/hadoop/dfs/data/current/subdir50/blk_2123051072573616754
081110 223110 32 INFO dfs.FSNamesystem: BLOCK* NameSystem.addStoredBlock: blockMap updated: 10.251.66.192:50010 is added to blk_-4874525371506708909 size 67108864
081111 085645 28 INFO dfs.FSNamesystem: BLOCK* NameSystem.addStoredBlock: blockMap updated: 10.251.111.80:50010 is added to blk_-7471584113176480277 size 67108864
081111 054729 33 INFO dfs.FSNamesystem: BLOCK* NameSystem.delete: blk_3600682263117295796 is added to invalidSet of 10.251.111.209:50010
081110 111730 9851 INFO dfs.DataNode$PacketResponder: PacketResponder 1 for block blk_1271345571666183740 terminating
081111 085201 35 INFO dfs.FSNamesystem: BLOCK* NameSystem.addStoredBlock: blockMap updated: 10.251.39.209:50010 is added to blk_-5994591298094130336 size 67108864
081109 205515 882 INFO dfs.DataNode$PacketResponder: Received block blk_-6851312148160809045 of size 67108864 from /10.251.30.6
081111 101018 30 INFO dfs.FSNamesystem: BLOCK* NameSystem.allocateBlock: /user/root/randtxt9/_temporary/_task_200811101024_0016_m_000049_0/part-00049. blk_1093908789113091160
081111 023032 27 INFO dfs.FSNamesystem: BLOCK* NameSystem.delete: blk_1191524901712345580 is added to invalidSet of 10.251.201.204:50010
081111 065537 19 INFO dfs.FSDataset: Deleting block blk_3091072580336551682 file /mnt/hadoop/dfs/data/current/subdir20/blk_3091072580336551682
081110 145135 12489 INFO dfs.DataNode$PacketResponder: PacketResponder 0 for block blk_-798788098305620753 terminating
081111 032501 18710 INFO dfs.DataNode$PacketResponder: PacketResponder 0 for block blk_1985125610372636239 terminating
081111 065204 26 INFO dfs.FSNamesystem: BLOCK* NameSystem.delete: blk_4310006737599532878 is added to invalidSet of 10.250.19.227:50010
081111 044350 29 INFO dfs.FSNamesystem: BLOCK* NameSystem.delete: blk_-2878854857588595138 is added to invalidSet of 10.251.109.236:50010
081110 145439 12906 INFO dfs.DataNode$PacketResponder: Received block blk_-3357310313350941393 of size 67108864 from /10.251.214.67
081110 210135 28 INFO dfs.FSNamesystem: BLOCK* NameSystem.delete: blk_4488549983236564089 is added to invalidSet of 10.250.10.6:50010
081111 032526 18922 INFO dfs.DataNode$PacketResponder: PacketResponder 2 for block blk_3385946668112729217 terminating
081111 044522 19 INFO dfs.FSDataset: Deleting block blk_-7410118716256557505 file /mnt/hadoop/dfs/data/current/subdir20/blk_-7410118716256557505
081110 002307 4854 INFO dfs.DataNode$DataXceiver: Receiving block blk_-5833060532357322881 src: /10.250.7.230:47181 dest: /10.250.7.230:50010
081110 103117 30 INFO dfs.FSNamesystem: BLOCK* NameSystem.delete: blk_-8303030061346431339 is added to invalidSet of 10.251.199.86:50010
081110 222847 16182 INFO dfs.DataNode$PacketResponder: PacketResponder 1 for block blk_5379714352013039658 terminating
081110 111759 9615 INFO dfs.DataNode$PacketResponder: PacketResponder 0 for block blk_1676640845389047012 terminating
081110 220917 19 INFO dfs.FSDataset: Deleting block blk_3264729335068280850 file /mnt/hadoop/dfs/data/current/subdir59/blk_3264729335068280850
081110 013205 35 INFO dfs.FSNamesystem: BLOCK* NameSystem.addStoredBlock: blockMap updated: 10.251.75.49:50010 is added to blk_-4428281481886325424 size 67108864
081111 044700 19 INFO dfs.FSDataset: Deleting block blk_-2461471639487851911 file /mnt/hadoop/dfs/data/current/subdir42/blk_-2461471639487851911
081110 210142 28 INFO dfs.FSNamesystem: BLOCK* NameSystem.delete: blk_-4251024448054602077 is added to invalidSet of 10.251.202.134:50010
081110 122535 10896 INFO dfs.DataNode$PacketResponder: PacketResponder 0 for block blk_7594809454647811802 terminating
081110 220910 19 INFO dfs.FSDataset: Deleting block blk_214591905366194078 file /mnt/hadoop/dfs/data/current/subdir23/blk_214591905366194078
081109 204517 33 INFO dfs.FSNamesystem: BLOCK* NameSystem.allocateBlock: /user/root/rand/_temporary/_task_200811092030_0001_m_000157_0/part-00157. blk_8622360973365526185
081110 220926 19 INFO dfs.FSDataset: Deleting block blk_-4222012043607778521 file /mnt/hadoop/dfs/data/current/subdir27/blk_-4222012043607778521
081111 065458 19 INFO dfs.FSDataset: Deleting block blk_6128214213972302010 file /mnt/hadoop/dfs/data/current/subdir18/blk_6128214213972302010
081111 025539 18315 INFO dfs.DataNode$PacketResponder: Received block blk_-5920532285575154922 of size 67108864 from /10.251.29.239
081110 071150 6046 INFO dfs.DataNode$DataXceiver: 10.251.39.160:50010 Served block blk_8882652967850095490 to /10.251.39.160
081109 210623 27 INFO dfs.FSNamesystem: BLOCK* NameSystem.allocateBlock: /user/root/rand/_temporary/_task_200811092030_0001_m_001015_0/part-01015. blk_8646404480713152804
081111 023253 18 INFO dfs.FSDataset: Deleting block blk_2343367785796130894 file /mnt/hadoop/dfs/data/current/subdir57/blk_2343367785796130894
081111 051157 20626 INFO dfs.DataNode$PacketResponder: PacketResponder 0 for block blk_-8757192807726836198 terminating
081110 225139 16764 INFO dfs.DataNode$PacketResponder: Received block blk_2792788970611914504 of size 67108864 from /10.251.75.143
081111 064542 22417 INFO dfs.DataNode$PacketResponder: Received block blk_7064480608131812104 of size 67108864 from /10.250.10.176
081111 050201 31 INFO dfs.FSNamesystem: BLOCK* NameSystem.addStoredBlock: blockMap updated: 10.251.30.85:50010 is added to blk_4380697945830474248 size 67108864
081111 085918 27 INFO dfs.FSNamesystem: BLOCK* NameSystem.delete: blk_4865307210170276069 is added to invalidSet of 10.250.5.237:50010
081111 065443 19 INFO dfs.FSDataset: Deleting block blk_3867754459627482960 file /mnt/hadoop/dfs/data/current/subdir62/blk_3867754459627482960
081110 103335 19 INFO dfs.FSDataset: Deleting block blk_-8081497131570028654 file /mnt/hadoop/dfs/data/current/subdir18/blk_-8081497131570028654
081110 133048 13 INFO dfs.DataBlockScanner: Verification succeeded for blk_624223130576365064
081111 045003 19 INFO dfs.FSDataset: Deleting block blk_6156237881092826735 file /mnt/hadoop/dfs/data/current/subdir41/blk_6156237881092826735
081110 225714 16592 INFO dfs.DataNode$DataXceiver: Receiving block blk_4070423404928969491 src: /10.251.74.134:57344 dest: /10.251.74.134:50010
081110 220650 32 INFO dfs.FSNamesystem: BLOCK* NameSystem.delete: blk_-3881233073327410219 is added to invalidSet of 10.250.15.240:50010
081110 115049 10330 INFO dfs.DataNode$DataXceiver: Receiving block blk_4118724834681774148 src: /10.251.29.239:52400 dest: /10.251.29.239:50010
081110 214526 15495 INFO dfs.DataNode$PacketResponder: Received block blk_779169705478335167 of size 67108864 from /10.251.194.102
081111 075928 23869 INFO dfs.DataNode$PacketResponder: PacketResponder 0 for block blk_-4600913881625186939 terminating
081110 220647 32 INFO dfs.FSNamesystem: BLOCK* NameSystem.delete: blk_8994873768712650124 is added to invalidSet of 10.250.14.143:50010
081110 013047 5163 INFO dfs.DataNode$PacketResponder: Received block blk_4036811936518625066 of size 67108864 from /10.251.197.161
081111 102559 27167 INFO dfs.DataNode$DataXceiver: Receiving block blk_2362658086805454782 src: /10.250.6.4:55603 dest: /10.250.6.4:50010
081111 041615 19615 INFO dfs.DataNode$PacketResponder: PacketResponder 2 for block blk_3905894997810235606 terminating
081111 104347 26967 INFO dfs.DataNode$PacketResponder: Received block blk_-6160550191532059190 of size 67108864 from /10.250.7.32
081111 084033 25102 INFO dfs.DataNode$PacketResponder: Received block blk_3519951547276452703 of size 67108864 from /10.251.75.143
081111 071803 19 INFO dfs.FSNamesystem: BLOCK* ask 10.251.111.228:50010 to replicate blk_4467026036003824565 to datanode(s) 10.250.6.223:50010
081110 103112 30 INFO dfs.FSNamesystem: BLOCK* NameSystem.delete: blk_4731664104395628765 is added to invalidSet of 10.251.110.196:50010
081110 120701 9703 INFO dfs.DataNode$PacketResponder: Received block blk_-6655333288512916618 of size 67108864 from /10.251.110.8
081111 073155 23287 INFO dfs.DataNode$DataXceiver: Receiving block blk_-7111675169093674051 src: /10.251.199.86:40300 dest: /10.251.199.86:50010
081111 005211 17181 INFO dfs.DataNode$DataXceiver: 10.251.67.113:50010 Served block blk_8636139191878413465 to /10.251.106.214
081110 221948 32 INFO dfs.FSNamesystem: BLOCK* NameSystem.addStoredBlock: blockMap updated: 10.251.202.209:50010 is added to blk_-6789473448653475188 size 67108864
081111 042757 19894 INFO dfs.DataNode$PacketResponder: PacketResponder 2 for block blk_8408830625577145748 terminating
081111 103654 27025 INFO dfs.DataNode$DataXceiver: Receiving block blk_9027342804860756647 src: /10.251.199.245:55009 dest: /10.251.199.245:50010
081110 013336 33 INFO dfs.FSNamesystem: BLOCK* NameSystem.allocateBlock: /user/root/randtxt/_temporary/_task_200811092030_0003_m_000840_0/part-00840. blk_739954239837297312
081111 074206 23621 INFO dfs.DataNode$PacketResponder: Received block blk_5529893109843681200 of size 67108864 from /10.251.110.68
081110 010422 4972 INFO dfs.DataNode$PacketResponder: PacketResponder 2 for block blk_1345832781273650755 terminating
081111 074830 23860 INFO dfs.DataNode$DataXceiver: Receiving block blk_3287288329653207302 src: /10.251.126.83:37409 dest: /10.251.126.83:50010
081111 090059 19 INFO dfs.FSDataset: Deleting block blk_-5204519672809429195 file /mnt/hadoop/dfs/data/current/subdir39/blk_-5204519672809429195
081111 065624 18 INFO dfs.FSDataset: Deleting block blk_7906865010222961206 file /mnt/hadoop/dfs/data/current/subdir41/blk_7906865010222961206
081110 011238 13 INFO dfs.DataBlockScanner: Verification succeeded for blk_-6371756779080249112
081110 222931 28 INFO dfs.FSNamesystem: BLOCK* NameSystem.addStoredBlock: blockMap updated: 10.251.38.53:50010 is added to blk_7364479356509544577 size 67108864
081110 152038 30 INFO dfs.FSNamesystem: BLOCK* NameSystem.allocateBlock: /user/root/sortrand2/_temporary/_task_200811101024_0003_r_000233_0/part-00233. blk_-6226358574763714426
081110 011315 5062 INFO dfs.DataNode$PacketResponder: PacketResponder 2 for block blk_8859954992353400789 terminating
081111 071244 22763 INFO dfs.DataNode$PacketResponder: PacketResponder 0 for block blk_-5173622975116965293 terminating
081111 065132 22494 INFO dfs.DataNode$PacketResponder: Received block blk_-8847075727752386431 of size 67108864 from /10.251.106.10
081110 225447 27 INFO dfs.FSNamesystem: BLOCK* NameSystem.addStoredBlock: blockMap updated: 10.251.71.146:50010 is added to blk_-4387884285230735074 size 28482833
081110 083347 8408 INFO dfs.DataNode$DataXceiver: 10.251.91.32:50010 Served block blk_7503101672704561987 to /10.250.7.230
081110 145242 12790 INFO dfs.DataNode$PacketResponder: Received block blk_-7666760514374392384 of size 67108864 from /10.251.193.224
081111 044626 19 INFO dfs.FSDataset: Deleting block blk_-4897673817084448877 file /mnt/hadoop/dfs/data/current/subdir57/blk_-4897673817084448877
081111 020731 17718 INFO dfs.DataNode$DataXceiver: 10.251.110.8:50010 Served block blk_4258525618089266046 to /10.251.111.130
081109 235902 4426 INFO dfs.DataNode$PacketResponder: Received block blk_-4550134121439809273 of size 67108864 from /10.251.198.33
081111 100453 25923 INFO dfs.DataNode$DataXceiver: Receiving block blk_3184239231302812309 src: /10.250.9.207:50021 dest: /10.250.9.207:50010
081111 084625 26 INFO dfs.FSNamesystem: BLOCK* NameSystem.allocateBlock: /user/root/rand7/_temporary/_task_200811101024_0014_m_001829_0/part-01829. blk_4265966474992781140
081111 101152 26783 INFO dfs.DataNode$PacketResponder: PacketResponder 0 for block blk_1766339033410081719 terminating
081111 065402 19 INFO dfs.FSDataset: Deleting block blk_-5880274880262876181 file /mnt/hadoop/dfs/data/current/subdir1/blk_-5880274880262876181
081111 053309 20869 INFO dfs.DataNode$DataXceiver: Receiving block blk_-4379853907780048686 src: /10.251.123.99:39265 dest: /10.251.123.99:50010
081110 220914 19 INFO dfs.FSDataset: Deleting block blk_-7108061509635155975 file /mnt/hadoop/dfs/data/current/subdir55/blk_-7108061509635155975
081109 204722 31 INFO dfs.FSNamesystem: BLOCK* NameSystem.addStoredBlock: blockMap updated: 10.251.121.224:50010 is added to blk_6034847420449594490 size 67108864
081110 210139 28 INFO dfs.FSNamesystem: BLOCK* NameSystem.delete: blk_-194376077190000023 is added to invalidSet of 10.251.125.193:50010
081110 151745 13049 INFO dfs.DataNode$DataXceiver: Receiving block blk_-9027844778265268731 src: /10.251.111.37:36504 dest: /10.251.111.37:50010
081110 110458 9712 INFO dfs.DataNode$DataXceiver: Receiving block blk_8644044901082652937 src: /10.250.15.240:51863 dest: /10.250.15.240:50010
081111 032557 18438 INFO dfs.DataNode$DataXceiver: Receiving block blk_954734947784804529 src: /10.251.43.147:33238 dest: /10.251.43.147:50010
081111 075638 28 INFO dfs.FSNamesystem: BLOCK* NameSystem.delete: blk_-5378115531892837071 is added to invalidSet of 10.251.111.209:50010
081111 073449 23420 INFO dfs.DataNode$DataXceiver: Receiving block blk_1415761848616672378 src: /10.250.5.161:54203 dest: /10.250.5.161:50010
081111 044727 19 INFO dfs.FSDataset: Deleting block blk_5486969792114208913 file /mnt/hadoop/dfs/data/current/subdir38/blk_5486969792114208913
081110 230134 16637 INFO dfs.DataNode$DataXceiver: Receiving block blk_-5207015185901237179 src: /10.251.74.227:46310 dest: /10.251.74.227:50010
081110 210547 19 INFO dfs.FSDataset: Deleting block blk_7123890135023312529 file /mnt/hadoop/dfs/data/current/subdir60/blk_7123890135023312529
081110 211428 14645 INFO dfs.DataNode$DataXceiver: Receiving block blk_-4987082854897196964 src: /10.250.7.96:59776 dest: /10.250.7.96:50010
081110 115946 10917 INFO dfs.DataNode$DataXceiver: Receiving block blk_4644810987480236468 src: /10.250.15.101:52659 dest: /10.250.15.101:50010
081110 020748 19 INFO dfs.FSDataset: Deleting block blk_-3359176825303502648 file /mnt/hadoop/dfs/data/current/subdir29/blk_-3359176825303502648
081110 113633 31 INFO dfs.FSNamesystem: BLOCK* NameSystem.delete: blk_7390277907973996849 is added to invalidSet of 10.251.194.147:50010
081111 050102 29 INFO dfs.FSNamesystem: BLOCK* NameSystem.addStoredBlock: blockMap updated: 10.251.195.52:50010 is added to blk_3945313722116381452 size 67108864
081111 034803 19115 INFO dfs.DataNode$PacketResponder: PacketResponder 2 for block blk_-3062539195008537039 terminating
081110 143850 12362 INFO dfs.DataNode$PacketResponder: Received block blk_-8648103688250215649 of size 67108864 from /10.250.10.6
081110 210347 19 INFO dfs.FSDataset: Deleting block blk_-7066982785692081116 file /mnt/hadoop/dfs/data/current/subdir37/blk_-7066982785692081116
081110 122533 11269 INFO dfs.DataNode$PacketResponder: PacketResponder 2 for block blk_-998120572155539806 terminating
081109 204636 569 INFO dfs.DataNode$DataXceiver: Receiving block blk_-1868424882405585602 src: /10.251.75.228:52799 dest: /10.251.75.228:50010
081109 204239 411 INFO dfs.DataNode$PacketResponder: PacketResponder 1 for block blk_-4307485565198538072 terminating
081110 210114 28 INFO dfs.FSNamesystem: BLOCK* NameSystem.delete: blk_187786619913210808 is added to invalidSet of 10.250.15.240:50010
081111 110430 26 INFO dfs.FSNamesystem: BLOCK* NameSystem.delete: blk_-6591167582827699333 is added to invalidSet of 10.250.9.207:50010
081111 044336 29 INFO dfs.FSNamesystem: BLOCK* NameSystem.delete: blk_619754179582200727 is added to invalidSet of 10.251.122.65:50010
081111 084610 24818 INFO dfs.DataNode$PacketResponder: PacketResponder 1 for block blk_3995953798603903075 terminating
081110 103508 19 INFO dfs.FSDataset: Deleting block blk_-5960133390833071579 file /mnt/hadoop/dfs/data/current/subdir55/blk_-5960133390833071579
081111 101815 26169 INFO dfs.DataNode$PacketResponder: Received block blk_-2979701030773358045 of size 67108864 from /10.251.198.196
081110 104703 26 INFO dfs.FSNamesystem: BLOCK* NameSystem.addStoredBlock: blockMap updated: 10.251.202.134:50010 is added to blk_712823632822692485 size 67108864
081111 044317 35 INFO dfs.FSNamesystem: BLOCK* NameSystem.delete: blk_-5454590738902211314 is added to invalidSet of 10.251.194.102:50010
081110 103418 19 INFO dfs.FSDataset: Deleting block blk_-6427129951099848191 file /mnt/hadoop/dfs/data/current/subdir41/blk_-6427129951099848191
081110 214959 15435 INFO dfs.DataNode$DataXceiver: Receiving block blk_-997102741241636151 src: /10.251.105.189:59348 dest: /10.251.105.189:50010
081111 044835 19 INFO dfs.FSDataset: Deleting block blk_7947935151470508169 file /mnt/hadoop/dfs/data/current/subdir15/blk_7947935151470508169
081109 212245 1934 INFO dfs.DataNode$PacketResponder: PacketResponder 2 for block blk_2809388551311457804 terminating
081111 034007 18727 INFO dfs.DataNode$PacketResponder: PacketResponder 2 for block blk_-3261963182880427110 terminating
081110 063026 7352 INFO dfs.DataNode$PacketResponder: Received block blk_1178917567347555481 of size 67108864 from /10.251.90.239
081110 210607 19 INFO dfs.FSDataset: Deleting block blk_5141233371315687440 file /mnt/hadoop/dfs/data/current/subdir35/blk_5141233371315687440
081110 015356 30 INFO dfs.FSNamesystem: BLOCK* NameSystem.addStoredBlock: blockMap updated: 10.251.38.197:50010 is added to blk_-1090917364724555273 size 67108864
081110 103051 34 INFO dfs.FSNamesystem: BLOCK* NameSystem.delete: blk_-5128185709494823417 is added to invalidSet of 10.251.122.79:50010
081111 044332 29 INFO dfs.FSNamesystem: BLOCK* NameSystem.delete: blk_5546551085100569485 is added to invalidSet of 10.251.107.50:50010
081109 210348 1245 INFO dfs.DataNode$DataXceiver: Receiving block blk_-1918332447777422897 src: /10.250.6.4:42675 dest: /10.250.6.4:50010
081110 103955 9202 INFO dfs.DataNode$DataXceiver: Receiving block blk_-421314320437327732 src: /10.251.195.52:55322 dest: /10.251.195.52:50010
081110 220625 27 INFO dfs.FSNamesystem: BLOCK* NameSystem.delete: blk_-5453959473907100543 is added to invalidSet of 10.250.10.144:50010
081111 033450 31 INFO dfs.FSNamesystem: BLOCK* NameSystem.addStoredBlock: blockMap updated: 10.250.11.85:50010 is added to blk_1310009784137826464 size 67108864
081111 053717 21315 INFO dfs.DataNode$PacketResponder: PacketResponder 2 for block blk_-6329427088073424819 terminating
081111 100629 25922 INFO dfs.DataNode$PacketResponder: Received block blk_-7756428600900598598 of size 67108864 from /10.251.39.209
081111 044332 29 INFO dfs.FSNamesystem: BLOCK* NameSystem.delete: blk_-5224190083646119633 is added to invalidSet of 10.251.193.224:50010
081111 023021 27 INFO dfs.FSNamesystem: BLOCK* NameSystem.delete: blk_8429734613368222025 is added to invalidSet of 10.251.67.225:50010
081110 011006 5049 INFO dfs.DataNode$PacketResponder: PacketResponder 2 for block blk_-7769136350645955543 terminating
081110 094904 8869 INFO dfs.DataNode$DataXceiver: 10.250.15.101:50010 Served block blk_-7603897533737274963 to /10.251.91.159
081110 115538 26 INFO dfs.FSNamesystem: BLOCK* NameSystem.allocateBlock: /user/root/randtxt2/_temporary/_task_200811101024_0002_m_000714_0/part-00714. blk_-264758407477884644
081109 212424 2001 INFO dfs.DataNode$PacketResponder: PacketResponder 0 for block blk_-7754688362118990405 terminating
081111 071721 22958 INFO dfs.DataNode$PacketResponder: Received block blk_7436281711377936659 of size 3525068 from /10.251.91.159
081111 104906 27103 INFO dfs.DataNode$PacketResponder: PacketResponder 1 for block blk_-1329693298684247920 terminating
081111 104530 26943 INFO dfs.DataNode$PacketResponder: PacketResponder 0 for block blk_3674190545836719387 terminating
081109 212230 1919 INFO dfs.DataNode$PacketResponder: Received block blk_-3039943973204423938 of size 67108864 from /10.250.17.225
081110 103453 19 INFO dfs.FSDataset: Deleting block blk_-7141004153352368492 file /mnt/hadoop/dfs/data/current/subdir21/blk_-7141004153352368492
081111 020901 17676 INFO dfs.DataNode$DataXceiver: 10.251.66.192:50010 Served block blk_6951288893633492037 to /10.251.215.50
081110 013616 5825 INFO dfs.DataNode$PacketResponder: Received block blk_-2099094788496603973 of size 67108864 from /10.251.66.3
081111 052348 20854 INFO dfs.DataNode$DataXceiver: Receiving block blk_898205199000320865 src: /10.251.90.239:47236 dest: /10.251.90.239:50010
081109 233302 3961 INFO dfs.DataNode$PacketResponder: PacketResponder 2 for block blk_8462822516288147769 terminating
081111 072445 33 INFO dfs.FSNamesystem: BLOCK* NameSystem.addStoredBlock: blockMap updated: 10.251.25.237:50010 is added to blk_-1660965070654645572 size 67108864
081110 000945 32 INFO dfs.FSNamesystem: BLOCK* NameSystem.allocateBlock: /user/root/sortrand/_temporary/_task_200811092030_0002_r_000143_0/part-00143. blk_-5871351761906600535
081111 094554 25691 INFO dfs.DataNode$PacketResponder: PacketResponder 1 for block blk_1022968331437409019 terminating
081110 013225 5526 INFO dfs.DataNode$PacketResponder: Received block blk_-7953968109918609922 of size 67108864 from /10.251.123.195
081111 062204 21957 INFO dfs.DataNode$PacketResponder: Received block blk_-3008866705861527803 of size 67108864 from /10.251.203.4
081109 232321 3753 INFO dfs.DataNode$PacketResponder: PacketResponder 0 for block blk_-6427390044946250876 terminating
081111 065452 19 INFO dfs.FSDataset: Deleting block blk_-3191799449956025937 file /mnt/hadoop/dfs/data/current/subdir19/blk_-3191799449956025937
081111 040346 33 INFO dfs.FSNamesystem: BLOCK* NameSystem.addStoredBlock: blockMap updated: 10.251.198.196:50010 is added to blk_1698697164037646637 size 67108864
081111 025802 18090 INFO dfs.DataNode$DataXceiver: Receiving block blk_5638767257045373422 src: /10.251.106.50:49778 dest: /10.251.106.50:50010
081111 035558 19336 INFO dfs.DataNode$PacketResponder: Received block blk_-3471065756349543082 of size 67108864 from /10.250.5.161
081111 070136 29 INFO dfs.FSNamesystem: BLOCK* NameSystem.addStoredBlock: blockMap updated: 10.251.107.19:50010 is added to blk_7051477875469421401 size 67108864
081111 094539 13480 INFO dfs.DataNode$DataXceiver: Receiving block blk_-4452813364877927208 src: /10.251.30.85:42220 dest: /10.251.30.85:50010
081110 215435 15572 INFO dfs.DataNode$PacketResponder: Received block blk_1571678928300035236 of size 67108864 from /10.250.6.4
081110 111838 9634 INFO dfs.DataNode$DataXceiver: Receiving block blk_8921541820407939853 src: /10.251.42.9:38148 dest: /10.251.42.9:50010
081110 003445 4816 INFO dfs.DataNode$DataXceiver: Receiving block blk_2111295315833580285 src: /10.251.194.213:46951 dest: /10.251.194.213:50010
081110 110820 26 INFO dfs.FSNamesystem: BLOCK* NameSystem.addStoredBlock: blockMap updated: 10.250.11.100:50010 is added to blk_5874754396408190455 size 3546108
081109 232722 3818 INFO dfs.DataNode$PacketResponder: Received block blk_7761130607173277435 of size 67108864 from /10.250.15.240
081111 095500 25894 INFO dfs.DataNode$PacketResponder: PacketResponder 1 for block blk_-4396439304738987666 terminating
081110 112503 9908 INFO dfs.DataNode$PacketResponder: Received block blk_5614678259656625309 of size 67108864 from /10.250.5.237
081111 093356 25679 INFO dfs.DataNode$PacketResponder: PacketResponder 2 for block blk_2618022157816972579 terminating
081111 030318 18326 INFO dfs.DataNode$PacketResponder: PacketResponder 1 for block blk_-5441881923300162837 terminating
081111 065558 22855 INFO dfs.DataNode$PacketResponder: Received block blk_1724512174455770840 of size 67108864 from /10.251.30.101
081111 065206 26 INFO dfs.FSNamesystem: BLOCK* NameSystem.delete: blk_-8104849119182124507 is added to invalidSet of 10.251.215.16:50010
081111 044303 35 INFO dfs.FSNamesystem: BLOCK* NameSystem.delete: blk_-447549795869414348 is added to invalidSet of 10.251.89.155:50010
081109 211049 1508 INFO dfs.DataNode$PacketResponder: Received block blk_662608748212724058 of size 3555671 from /10.250.10.6
081111 110434 26 INFO dfs.FSNamesystem: BLOCK* NameSystem.delete: blk_4162272152365656458 is added to invalidSet of 10.251.66.192:50010
081110 225021 16474 INFO dfs.DataNode$PacketResponder: PacketResponder 2 for block blk_-471508875926988431 terminating
081110 001758 27 INFO dfs.FSNamesystem: BLOCK* NameSystem.addStoredBlock: blockMap updated: 10.251.111.209:50010 is added to blk_4728874028276621243 size 67108864
081111 061631 30 INFO dfs.FSNamesystem: BLOCK* NameSystem.addStoredBlock: blockMap updated: 10.250.6.214:50010 is added to blk_-6448424487341324260 size 67108864
081110 220822 15576 INFO dfs.DataNode$PacketResponder: PacketResponder 1 for block blk_1063653449031536066 terminating
081111 065353 19 INFO dfs.FSDataset: Deleting block blk_-8678579121305510874 file /mnt/hadoop/dfs/data/current/subdir48/blk_-8678579121305510874
081110 103029 34 INFO dfs.FSNamesystem: BLOCK* NameSystem.delete: blk_-6175861391912230938 is added to invalidSet of 10.250.15.240:50010
081111 034038 19164 INFO dfs.DataNode$DataXceiver: Receiving block blk_-1641883589169372288 src: /10.251.39.144:47455 dest: /10.251.39.144:50010
081110 020340 34 INFO dfs.FSNamesystem: BLOCK* NameSystem.addStoredBlock: blockMap updated: 10.251.195.70:50010 is added to blk_-2360469648721314406 size 67108864
081110 220650 32 INFO dfs.FSNamesystem: BLOCK* NameSystem.delete: blk_-4595662731743760997 is added to invalidSet of 10.251.193.224:50010
081111 024136 33 INFO dfs.FSNamesystem: BLOCK* NameSystem.addStoredBlock: blockMap updated: 10.251.43.21:50010 is added to blk_-7370960197993418676 size 67108864
081111 094301 25793 INFO dfs.DataNode$PacketResponder: PacketResponder 0 for block blk_3281444508855011156 terminating
081110 104318 9078 INFO dfs.DataNode$DataXceiver: Received block blk_2884813675120864357 src: /10.251.201.204:41753 dest: /10.251.201.204:50010 of size 67108864
081111 033932 26 INFO dfs.FSNamesystem: BLOCK* NameSystem.addStoredBlock: blockMap updated: 10.251.107.196:50010 is added to blk_6924710786344155084 size 67108864
081111 044645 19 INFO dfs.FSDataset: Deleting block blk_-2772539181262141749 file /mnt/hadoop/dfs/data/current/subdir17/blk_-2772539181262141749
081110 001411 31 INFO dfs.FSNamesystem: BLOCK* NameSystem.addStoredBlock: blockMap updated: 10.251.42.9:50010 is added to blk_-8957152813314966255 size 67108864
081110 225636 34 INFO dfs.FSNamesystem: BLOCK* NameSystem.allocateBlock: /user/root/randtxt3/_temporary/_task_200811101024_0007_m_001643_0/part-01643. blk_5972332709940216594
081111 103158 26752 INFO dfs.DataNode$PacketResponder: Received block blk_7674125596362707386 of size 67108864 from /10.251.109.209
081110 015655 33 INFO dfs.FSNamesystem: BLOCK* NameSystem.addStoredBlock: blockMap updated: 10.251.90.134:50010 is added to blk_-7396302101699850903 size 67108864
081111 014437 17742 INFO dfs.DataNode$DataXceiver: 10.251.197.226:50010 Served block blk_5250222668642508835 to /10.251.197.226
081111 065513 19 INFO dfs.FSDataset: Deleting block blk_7289093587172069098 file /mnt/hadoop/dfs/data/current/subdir35/blk_7289093587172069098
081109 203733 220 INFO dfs.DataNode$PacketResponder: PacketResponder 0 for block blk_5479991025666274622 terminating
081110 105404 9455 INFO dfs.DataNode$DataXceiver: Receiving block blk_280636512518396192 src: /10.250.17.177:59643 dest: /10.250.17.177:50010
081111 050637 20648 INFO dfs.DataNode$PacketResponder: PacketResponder 2 for block blk_4414841746209325790 terminating
081111 042410 19703 INFO dfs.DataNode$PacketResponder: PacketResponder 2 for block blk_-4475319373728787299 terminating
081111 035929 18936 INFO dfs.DataNode$DataXceiver: Receiving block blk_1458475885671661913 src: /10.251.203.149:49884 dest: /10.251.203.149:50010
081111 075610 30 INFO dfs.FSNamesystem: BLOCK* NameSystem.delete: blk_-9197509149851065680 is added to invalidSet of 10.251.199.19:50010
081111 074529 29 INFO dfs.FSNamesystem: BLOCK* NameSystem.allocateBlock: /user/root/rand6/_temporary/_task_200811101024_0013_m_001917_0/part-01917. blk_3233348210790199149
081110 093436 8827 INFO dfs.DataNode$DataXceiver: 10.250.17.177:50010 Served block blk_-6605992304359369779 to /10.250.17.177
081111 104702 26892 INFO dfs.DataNode$PacketResponder: PacketResponder 0 for block blk_6247314481087175320 terminating
081110 164223 13505 INFO dfs.DataNode$DataXceiver: 10.251.111.130:50010 Served block blk_-8970536337238044205 to /10.251.201.204
081109 210222 1158 INFO dfs.DataNode$PacketResponder: PacketResponder 0 for block blk_5140226484154021462 terminating
081110 115812 10681 INFO dfs.DataNode$DataXceiver: Receiving block blk_765357661497988066 src: /10.251.199.86:48699 dest: /10.251.199.86:50010
081111 091552 26 INFO dfs.FSNamesystem: BLOCK* NameSystem.addStoredBlock: blockMap updated: 10.251.199.19:50010 is added to blk_-730011113124416460 size 67108864
081110 230736 16807 INFO dfs.DataNode$PacketResponder: PacketResponder 1 for block blk_2205773994299815766 terminating
081111 065237 22642 INFO dfs.DataNode$DataXceiver: Receiving block blk_6267726273784474436 src: /10.251.71.146:53119 dest: /10.251.71.146:50010
081111 024038 29 INFO dfs.FSNamesystem: BLOCK* NameSystem.allocateBlock: /user/root/rand4/_temporary/_task_200811101024_0009_m_000166_0/part-00166. blk_4663569461082953906
081109 213042 29 INFO dfs.FSNamesystem: BLOCK* NameSystem.addStoredBlock: blockMap updated: 10.251.74.79:50010 is added to blk_-2960811031133832131 size 67108864
081110 015254 29 INFO dfs.FSNamesystem: BLOCK* NameSystem.addStoredBlock: blockMap updated: 10.250.7.146:50010 is added to blk_-3940063734885734933 size 67108864
081109 212839 2108 INFO dfs.DataNode$PacketResponder: PacketResponder 0 for block blk_-3694758885160840087 terminating
081111 095339 26247 INFO dfs.DataNode$PacketResponder: PacketResponder 0 for block blk_1366836957041471042 terminating
081110 222630 15841 INFO dfs.DataNode$PacketResponder: Received block blk_-3242034010863403271 of size 67108864 from /10.251.38.197
081110 103127 30 INFO dfs.FSNamesystem: BLOCK* NameSystem.delete: blk_-5206279916475204689 is added to invalidSet of 10.251.26.8:50010
081109 204130 32 INFO dfs.FSNamesystem: BLOCK* NameSystem.addStoredBlock: blockMap updated: 10.251.65.237:50010 is added to blk_2906406871357051099 size 67108864
081110 131257 11782 WARN dfs.DataNode$DataXceiver: 10.251.42.246:50010:Got exception while serving blk_796461344663668088 to /10.251.126.83:
081111 074334 23579 INFO dfs.DataNode$PacketResponder: PacketResponder 0 for block blk_8339151006744635786 terminating
081110 113009 10070 INFO dfs.DataNode$PacketResponder: Received block blk_2121939063323034491 of size 67108864 from /10.251.215.50
081110 210507 19 INFO dfs.FSDataset: Deleting block blk_-2445980496345791397 file /mnt/hadoop/dfs/data/current/subdir58/blk_-2445980496345791397
081111 091815 35 INFO dfs.FSNamesystem: BLOCK* NameSystem.addStoredBlock: blockMap updated: 10.251.31.180:50010 is added to blk_-286799989533927002 size 67108864
081109 235410 4467 INFO dfs.DataNode$PacketResponder: PacketResponder 2 for block blk_-1485592745970951134 terminating
081110 210439 18 INFO dfs.FSDataset: Deleting block blk_-6092852161192468583 file /mnt/hadoop/dfs/data/current/subdir12/blk_-6092852161192468583
081110 112829 10021 INFO dfs.DataNode$DataXceiver: Receiving block blk_-1865397972632273263 src: /10.251.26.8:51435 dest: /10.251.26.8:50010
081109 235337 4457 INFO dfs.DataNode$PacketResponder: Received block blk_-532076913505919233 of size 67108864 from /10.251.122.79
081111 061938 21969 INFO dfs.DataNode$PacketResponder: PacketResponder 2 for block blk_-7391863196982733736 terminating
081111 100751 29 INFO dfs.FSNamesystem: BLOCK* NameSystem.allocateBlock: /user/root/randtxt9/_temporary/_task_200811101024_0016_m_000325_0/part-00325. blk_-4565365398457400658
081111 040235 19244 INFO dfs.DataNode$PacketResponder: Received block blk_-8925883618207146169 of size 67108864 from /10.251.26.8
081111 034314 19013 INFO dfs.DataNode$PacketResponder: Received block blk_-3778788702068907958 of size 67108864 from /10.251.38.214
081111 082628 24214 INFO dfs.DataNode$PacketResponder: PacketResponder 2 for block blk_-3755538424668315737 terminating
081111 103932 26957 INFO dfs.DataNode$DataXceiver: Receiving block blk_2674051831681620581 src: /10.251.214.67:47191 dest: /10.251.214.67:50010
081110 213910 15099 INFO dfs.DataNode$PacketResponder: Received block blk_-5739351044341686205 of size 67108864 from /10.251.42.207
081111 101550 26654 INFO dfs.DataNode$PacketResponder: Received block blk_-6445965217680145447 of size 67108864 from /10.251.91.229
081111 075847 19 INFO dfs.FSDataset: Deleting block blk_-2489688865599120596 file /mnt/hadoop/dfs/data/current/subdir8/blk_-2489688865599120596
081111 034526 26 INFO dfs.FSNamesystem: BLOCK* NameSystem.allocateBlock: /user/root/randtxt4/_temporary/_task_200811101024_0010_m_000374_0/part-00374. blk_3039647652851328269
081111 074546 23562 INFO dfs.DataNode$DataXceiver: Receiving block blk_657528100483019708 src: /10.251.199.150:52013 dest: /10.251.199.150:50010
081111 083555 24082 INFO dfs.DataNode$PacketResponder: PacketResponder 2 for block blk_-1448558143188827921 terminating
081111 100156 26041 INFO dfs.DataNode$DataXceiver: Receiving block blk_-9160845048168157719 src: /10.251.37.240:60749 dest: /10.251.37.240:50010
081111 045121 28 INFO dfs.FSNamesystem: BLOCK* NameSystem.addStoredBlock: blockMap updated: 10.251.123.99:50010 is added to blk_471820837549942730 size 67108864
081111 085907 27 INFO dfs.FSNamesystem: BLOCK* NameSystem.delete: blk_-5988070381442851977 is added to invalidSet of 10.251.39.179:50010
081111 095624 26137 INFO dfs.DataNode$PacketResponder: Received block blk_-5626218833419337703 of size 67108864 from /10.251.199.245
081109 234533 4245 INFO dfs.DataNode$PacketResponder: PacketResponder 2 for block blk_-9132381669073312332 terminating
081111 103335 27008 INFO dfs.DataNode$PacketResponder: Received block blk_-3120228277772980602 of size 67108864 from /10.251.127.47
081110 103612 18 INFO dfs.FSDataset: Deleting block blk_7075951113970558423 file /mnt/hadoop/dfs/data/current/subdir36/blk_7075951113970558423
081111 044445 19 INFO dfs.FSDataset: Deleting block blk_3777818389292621109 file /mnt/hadoop/dfs/data/current/subdir36/blk_3777818389292621109
081110 115401 10486 INFO dfs.DataNode$PacketResponder: Received block blk_-1285381725596078761 of size 67108864 from /10.251.90.239
081111 043150 19771 INFO dfs.DataNode$PacketResponder: PacketResponder 1 for block blk_-4113594212450539610 terminating
081109 222051 3500 WARN dfs.DataNode$DataXceiver: 10.251.75.143:50010:Got exception while serving blk_-8418747413402715338 to /10.251.123.1:
081109 204508 513 INFO dfs.DataNode$DataXceiver: Receiving block blk_7775703395393605750 src: /10.251.121.224:46801 dest: /10.251.121.224:50010
081111 080022 23822 INFO dfs.DataNode$PacketResponder: PacketResponder 2 for block blk_-8128297128514880324 terminating
081110 223458 16167 INFO dfs.DataNode$PacketResponder: Received block blk_6666710762683849398 of size 67108864 from /10.251.73.220
081111 025540 18014 INFO dfs.DataNode$PacketResponder: Received block blk_-1422319990241052121 of size 67108864 from /10.250.6.214
081111 013626 17487 WARN dfs.DataNode$DataXceiver: 10.251.126.227:50010:Got exception while serving blk_2207103581207054304 to /10.250.7.244:
081111 042434 19806 INFO dfs.DataNode$DataXceiver: Receiving block blk_6327111875456804355 src: /10.251.111.130:43299 dest: /10.251.111.130:50010
081109 211118 1531 INFO dfs.DataNode$PacketResponder: Received block blk_-5352207441653507887 of size 67108864 from /10.251.75.49
081110 225553 16512 INFO dfs.DataNode$PacketResponder: PacketResponder 0 for block blk_-1658403103123614347 terminating
081109 214035 2563 WARN dfs.DataNode$DataXceiver: 10.250.10.144:50010:Got exception while serving blk_-3358502366938277814 to /10.251.30.101:
081111 103321 26837 INFO dfs.DataNode$DataXceiver: Receiving block blk_-3877141184778544017 src: /10.251.202.209:42616 dest: /10.251.202.209:50010
081109 221846 3525 WARN dfs.DataNode$DataXceiver: 10.251.31.5:50010:Got exception while serving blk_7619380608033699939 to /10.251.31.5:
081110 103114 30 INFO dfs.FSNamesystem: BLOCK* NameSystem.delete: blk_-4876955691129523429 is added to invalidSet of 10.250.7.32:50010
081110 143430 30 INFO dfs.FSNamesystem: BLOCK* NameSystem.addStoredBlock: blockMap updated: 10.251.29.239:50010 is added to blk_991253970424578627 size 67108864
081111 070858 22356 INFO dfs.DataNode$PacketResponder: Received block blk_2346807439887011353 of size 67108864 from /10.251.203.129
081110 013107 5565 INFO dfs.DataNode$PacketResponder: Received block blk_4770235541769926978 of size 67108864 from /10.251.127.47
081110 103737 18 INFO dfs.FSDataset: Deleting block blk_8512020906668444451 file /mnt/hadoop/dfs/data/current/subdir41/blk_8512020906668444451
081111 075633 28 INFO dfs.FSNamesystem: BLOCK* NameSystem.delete: blk_-303286262154812716 is added to invalidSet of 10.251.70.211:50010
081111 030011 34 INFO dfs.FSNamesystem: BLOCK* NameSystem.allocateBlock: /user/root/rand4/_temporary/_task_200811101024_0009_m_000735_0/part-00735. blk_9135719759116529973
081110 010933 5119 INFO dfs.DataNode$PacketResponder: PacketResponder 2 for block blk_2347764698920510058 terminating
081110 103109 30 INFO dfs.FSNamesystem: BLOCK* NameSystem.delete: blk_-341545888119156163 is added to invalidSet of 10.251.199.150:50010
081110 103409 19 INFO dfs.FSDataset: Deleting block blk_-7335281807657093219 file /mnt/hadoop/dfs/data/current/subdir23/blk_-7335281807657093219
081111 044800 19 INFO dfs.FSDataset: Deleting block blk_4921218006323324419 file /mnt/hadoop/dfs/data/current/subdir16/blk_4921218006323324419
081110 112627 10147 INFO dfs.DataNode$PacketResponder: Received block blk_6397690786357575165 of size 67108864 from /10.251.111.209
081109 213242 2338 INFO dfs.DataNode$PacketResponder: PacketResponder 0 for block blk_-5804800008793259383 terminating
081110 161905 13286 INFO dfs.DataNode$DataXceiver: 10.251.25.237:50010 Served block blk_-2436109074093033238 to /10.251.25.237
081110 014935 5888 INFO dfs.DataNode$PacketResponder: PacketResponder 1 for block blk_7128817952087460788 terminating
081111 090112 19 INFO dfs.FSDataset: Deleting block blk_-2283441326920447838 file /mnt/hadoop/dfs/data/current/subdir41/blk_-2283441326920447838
081110 215827 15726 INFO dfs.DataNode$PacketResponder: PacketResponder 2 for block blk_6820590992461736998 terminating
081110 103933 19 INFO dfs.FSDataset: Deleting block blk_6292131965790234012 file /mnt/hadoop/dfs/data/current/subdir20/blk_6292131965790234012
081110 144756 35 INFO dfs.FSNamesystem: BLOCK* NameSystem.addStoredBlock: blockMap updated: 10.251.31.5:50010 is added to blk_-5078186985701364847 size 67108864
081111 072553 13 INFO dfs.DataBlockScanner: Verification succeeded for blk_1949846290890449950
081111 103054 29 INFO dfs.FSNamesystem: BLOCK* NameSystem.allocateBlock: /user/root/randtxt9/_temporary/_task_200811101024_0016_m_000806_0/part-00806. blk_7489531185225240021
081111 034325 19131 INFO dfs.DataNode$PacketResponder: PacketResponder 2 for block blk_-3453879087234515647 terminating
081111 101545 26505 INFO dfs.DataNode$DataXceiver: Receiving block blk_3989967431890822430 src: /10.251.194.102:51609 dest: /10.251.194.102:50010
081110 001516 4793 INFO dfs.DataNode$PacketResponder: Received block blk_4397920065793953702 of size 67108864 from /10.251.39.192
081111 045008 19 INFO dfs.FSDataset: Deleting block blk_8756746683197739030 file /mnt/hadoop/dfs/data/current/subdir1/blk_8756746683197739030
081109 204730 582 INFO dfs.DataNode$DataXceiver: Receiving block blk_3374605883120004180 src: /10.251.201.204:46795 dest: /10.251.201.204:50010
081110 112155 10155 INFO dfs.DataNode$PacketResponder: Received block blk_906112084916313408 of size 67108864 from /10.251.126.83
081110 221135 15728 INFO dfs.DataNode$PacketResponder: PacketResponder 0 for block blk_5166441378066131994 terminating
081111 095031 26123 INFO dfs.DataNode$PacketResponder: Received block blk_2237200411661302618 of size 67108864 from /10.251.70.37
081110 051359 7181 WARN dfs.DataNode$DataXceiver: 10.251.27.63:50010:Got exception while serving blk_-6652108367079548326 to /10.251.214.67:
081110 013608 26 INFO dfs.FSNamesystem: BLOCK* NameSystem.allocateBlock: /user/root/randtxt/_temporary/_task_200811092030_0003_m_001279_0/part-01279. blk_1400826086518923230
081109 223548 3534 INFO dfs.DataNode$DataXceiver: 10.251.70.37:50010 Served block blk_856792737532152198 to /10.251.110.68
081110 103652 18 INFO dfs.FSDataset: Deleting block blk_1654245909373157519 file /mnt/hadoop/dfs/data/current/subdir34/blk_1654245909373157519
081111 042253 19684 INFO dfs.DataNode$DataXceiver: Receiving block blk_1095828669281059409 src: /10.250.11.100:59814 dest: /10.250.11.100:50010
081109 210141 1192 INFO dfs.DataNode$DataXceiver: Receiving block blk_1560805258722810940 src: /10.251.66.192:43668 dest: /10.251.66.192:50010
081111 022444 17750 INFO dfs.DataNode$DataXceiver: 10.250.7.32:50010 Served block blk_2700773653514482082 to /10.250.7.32
081110 170645 13522 WARN dfs.DataNode$DataXceiver: 10.251.107.227:50010:Got exception while serving blk_3395742561959325743 to /10.250.6.223:
081111 100514 25943 INFO dfs.DataNode$PacketResponder: PacketResponder 1 for block blk_1246407348654648223 terminating
081111 065939 22839 INFO dfs.DataNode$PacketResponder: Received block blk_3908920816710666818 of size 67108864 from /10.251.91.84
081111 025826 18198 INFO dfs.DataNode$DataXceiver: Receiving block blk_-3154002742420617283 src: /10.251.31.242:49850 dest: /10.251.31.242:50010
081109 210551 1301 INFO dfs.DataNode$PacketResponder: PacketResponder 0 for block blk_673825774073966710 terminating
081109 233142 4028 INFO dfs.DataNode$DataXceiver: Receiving block blk_9056466403599323954 src: /10.251.90.64:47629 dest: /10.251.90.64:50010
081110 210123 28 INFO dfs.FSNamesystem: BLOCK* NameSystem.delete: blk_-3747616890307776531 is added to invalidSet of 10.251.203.246:50010
081110 103243 19 INFO dfs.FSDataset: Deleting block blk_-8484962677953570596 file /mnt/hadoop/dfs/data/current/subdir36/blk_-8484962677953570596
081111 042236 19829 INFO dfs.DataNode$PacketResponder: PacketResponder 1 for block blk_4758836350269523827 terminating
081111 075933 19 INFO dfs.FSDataset: Deleting block blk_4053198371077419859 file /mnt/hadoop/dfs/data/current/subdir61/blk_4053198371077419859
081110 110812 9793 INFO dfs.DataNode$PacketResponder: Received block blk_8850936983602557151 of size 67108864 from /10.250.6.4
081111 094128 25982 INFO dfs.DataNode$DataXceiver: Receiving block blk_4683344459907638134 src: /10.251.26.8:53815 dest: /10.251.26.8:50010
081110 210706 33 INFO dfs.FSNamesystem: BLOCK* NameSystem.addStoredBlock: blockMap updated: 10.251.38.214:50010 is added to blk_3573584623559601765 size 67108864
081111 084426 32 INFO dfs.FSNamesystem: BLOCK* NameSystem.addStoredBlock: blockMap updated: 10.250.10.100:50010 is added to blk_-4971798898335478531 size 67108864
081110 230751 16961 INFO dfs.DataNode$PacketResponder: Received block blk_-4627428740598282001 of size 67108864 from /10.251.74.192
081111 025725 33 INFO dfs.FSNamesystem: BLOCK* NameSystem.allocateBlock: /user/root/rand4/_temporary/_task_200811101024_0009_m_000696_0/part-00696. blk_-7796494089401909459
081110 105617 34 INFO dfs.FSNamesystem: BLOCK* NameSystem.allocateBlock: /user/root/rand/_temporary/_task_200811101024_0001_m_000604_0/part-00604. blk_6396686919186438599
081111 103509 26915 INFO dfs.DataNode$DataXceiver: Receiving block blk_-420948434401667776 src: /10.251.203.246:36559 dest: /10.251.203.246:50010
081110 103146 30 INFO dfs.FSNamesystem: BLOCK* NameSystem.delete: blk_-6937678131521317435 is added to invalidSet of 10.251.199.150:50010
081110 103133 30 INFO dfs.FSNamesystem: BLOCK* NameSystem.delete: blk_8601181331062289593 is added to invalidSet of 10.251.67.211:50010
081110 213050 15139 INFO dfs.DataNode$DataXceiver: Receiving block blk_1048990286071905313 src: /10.251.203.149:48175 dest: /10.251.203.149:50010
081111 044338 29 INFO dfs.FSNamesystem: BLOCK* NameSystem.delete: blk_-4631471128473219938 is added to invalidSet of 10.251.39.242:50010
081111 040939 19317 INFO dfs.DataNode$PacketResponder: PacketResponder 0 for block blk_-2002687373924676875 terminating
081109 203825 28 INFO dfs.FSNamesystem: BLOCK* NameSystem.allocateBlock: /user/root/rand/_temporary/_task_200811092030_0001_m_000139_0/part-00139. blk_839342453809639951
081110 103409 18 INFO dfs.FSDataset: Deleting block blk_-8377262282662774657 file /mnt/hadoop/dfs/data/current/subdir51/blk_-8377262282662774657
081110 022500 6110 INFO dfs.DataNode$DataXceiver: 10.251.30.6:50010 Served block blk_-6506037860850189016 to /10.251.30.6
081111 102234 26773 INFO dfs.DataNode$PacketResponder: Received block blk_7429589707166083506 of size 67108864 from /10.251.203.80
081110 230334 34 INFO dfs.FSNamesystem: BLOCK* NameSystem.allocateBlock: /user/root/randtxt3/_temporary/_task_200811101024_0007_m_001656_0/part-01656. blk_-7971149204446021551
081111 110438 26 INFO dfs.FSNamesystem: BLOCK* NameSystem.delete: blk_-7766204668982830123 is added to invalidSet of 10.251.106.10:50010
081110 210144 28 INFO dfs.FSNamesystem: BLOCK* NameSystem.delete: blk_4906764721231212523 is added to invalidSet of 10.251.197.161:50010
081111 104649 27066 INFO dfs.DataNode$PacketResponder: Received block blk_-4153884284221901265 of size 67108864 from /10.251.31.160
081111 054341 31 INFO dfs.FSNamesystem: BLOCK* NameSystem.allocateBlock: /user/root/rand5/_temporary/_task_200811101024_0011_m_002007_0/part-02007. blk_4093087500552551355
081110 145527 12856 INFO dfs.DataNode$DataXceiver: Receiving block blk_-5505483141104321981 src: /10.250.17.225:33388 dest: /10.250.17.225:50010
081110 151037 13209 INFO dfs.DataNode$PacketResponder: Received block blk_-7356060415158484302 of size 67108864 from /10.250.7.32
081111 110425 26 INFO dfs.FSNamesystem: BLOCK* NameSystem.delete: blk_-7560631258010796948 is added to invalidSet of 10.251.193.224:50010
081110 111724 35 INFO dfs.FSNamesystem: BLOCK* NameSystem.allocateBlock: /user/root/rand/_temporary/_task_200811101024_0001_m_001321_0/part-01321. blk_4760229950146442640
081110 230241 16610 INFO dfs.DataNode$PacketResponder: Received block blk_-5448808897868873658 of size 67108864 from /10.251.42.9
081110 051618 6972 INFO dfs.DataNode$DataXceiver: 10.251.73.220:50010 Served block blk_3041136646344834537 to /10.251.122.38
081111 110431 26 INFO dfs.FSNamesystem: BLOCK* NameSystem.delete: blk_-714940937204078424 is added to invalidSet of 10.251.107.50:50010
081110 014129 13 INFO dfs.DataBlockScanner: Verification succeeded for blk_2776274428233893745
081110 222233 15957 INFO dfs.DataNode$PacketResponder: PacketResponder 2 for block blk_8784508689193899165 terminating
081111 054615 20985 INFO dfs.DataNode$DataXceiver: Receiving block blk_-5054728131639449180 src: /10.251.215.192:49300 dest: /10.251.215.192:50010
081109 212756 2123 INFO dfs.DataNode$PacketResponder: PacketResponder 2 for block blk_4352493961636970286 terminating
081111 073851 23011 INFO dfs.DataNode$DataXceiver: Receiving block blk_-8076150205611265532 src: /10.251.203.80:34383 dest: /10.251.203.80:50010
081110 210149 28 INFO dfs.FSNamesystem: BLOCK* NameSystem.delete: blk_-380208101233694594 is added to invalidSet of 10.251.65.203:50010
081111 082832 24262 INFO dfs.DataNode$DataXceiver: Receiving block blk_1267048164455223730 src: /10.250.6.214:37918 dest: /10.250.6.214:50010
081111 090158 18 INFO dfs.FSDataset: Deleting block blk_-570428936246232964 file /mnt/hadoop/dfs/data/current/subdir52/blk_-570428936246232964
081109 213254 2300 INFO dfs.DataNode$DataXceiver: Receiving block blk_5564591987756943040 src: /10.251.194.102:49147 dest: /10.251.194.102:50010
081111 044312 35 INFO dfs.FSNamesystem: BLOCK* NameSystem.delete: blk_-3363085898413113071 is added to invalidSet of 10.251.195.52:50010
081110 110152 26 INFO dfs.FSNamesystem: BLOCK* NameSystem.addStoredBlock: blockMap updated: 10.250.7.146:50010 is added to blk_-6848577124020340882 size 67108864
081111 110531 19 INFO dfs.FSDataset: Deleting block blk_-6582888373147916004 file /mnt/hadoop/dfs/data/current/subdir7/blk_-6582888373147916004
081110 012457 5517 INFO dfs.DataNode$DataXceiver: Receiving block blk_636694581459471307 src: /10.251.27.63:52102 dest: /10.251.27.63:50010
081110 000904 4671 INFO dfs.DataNode$PacketResponder: PacketResponder 2 for block blk_5573318835760176325 terminating
081110 103029 34 INFO dfs.FSNamesystem: BLOCK* NameSystem.delete: blk_-8033856506646152739 is added to invalidSet of 10.251.111.80:50010
081111 045532 20385 INFO dfs.DataNode$DataXceiver: Receiving block blk_5134540301616932419 src: /10.251.71.16:35680 dest: /10.251.71.16:50010
081109 214015 2570 INFO dfs.DataNode$DataXceiver: 10.251.110.160:50010 Served block blk_5836499746025951262 to /10.251.110.160
081111 044332 29 INFO dfs.FSNamesystem: BLOCK* NameSystem.delete: blk_-7109729244381729681 is added to invalidSet of 10.251.202.134:50010
081111 055804 29 INFO dfs.FSNamesystem: BLOCK* NameSystem.allocateBlock: /user/root/randtxt5/_temporary/_task_200811101024_0012_m_000129_0/part-00129. blk_-8163279248646906772
081110 103658 19 INFO dfs.FSDataset: Deleting block blk_1866364595094627295 file /mnt/hadoop/dfs/data/current/subdir5/blk_1866364595094627295
081110 103133 30 INFO dfs.FSNamesystem: BLOCK* NameSystem.delete: blk_8213094267685725148 is added to invalidSet of 10.251.214.130:50010
081110 111958 33 INFO dfs.FSNamesystem: BLOCK* NameSystem.allocateBlock: /user/root/rand/_temporary/_task_200811101024_0001_m_001680_0/part-01680. blk_7644823635913025266
081110 214614 26 INFO dfs.FSNamesystem: BLOCK* NameSystem.allocateBlock: /user/root/rand3/_temporary/_task_200811101024_0005_m_001487_0/part-01487. blk_-5997366435095484724
081110 214818 29 INFO dfs.FSNamesystem: BLOCK* NameSystem.addStoredBlock: blockMap updated: 10.251.35.1:50010 is added to blk_-6258264102339413552 size 67108864
081110 001001 26 INFO dfs.FSNamesystem: BLOCK* NameSystem.addStoredBlock: blockMap updated: 10.251.127.47:50010 is added to blk_7411012468887834698 size 67108864
081111 092157 29 INFO dfs.FSNamesystem: BLOCK* NameSystem.addStoredBlock: blockMap updated: 10.250.5.237:50010 is added to blk_5178813152569266376 size 67108864
081110 210129 28 INFO dfs.FSNamesystem: BLOCK* NameSystem.delete: blk_-104472723489820456 is added to invalidSet of 10.251.31.160:50010
081110 111915 10107 INFO dfs.DataNode$PacketResponder: PacketResponder 2 for block blk_-889759663600677603 terminating
081111 102024 26313 INFO dfs.DataNode$DataXceiver: Receiving block blk_-7287164919958042769 src: /10.251.39.144:39661 dest: /10.251.39.144:50010
081111 035012 19401 INFO dfs.DataNode$DataXceiver: Receiving block blk_5597440582962107957 src: /10.251.90.81:41881 dest: /10.251.90.81:50010
081110 103521 19 INFO dfs.FSDataset: Deleting block blk_-4504463022791017203 file /mnt/hadoop/dfs/data/current/blk_-4504463022791017203
081110 113749 9984 INFO dfs.DataNode$DataXceiver: Receiving block blk_-7456797702112680269 src: /10.251.109.236:34047 dest: /10.251.109.236:50010
081110 223211 16266 INFO dfs.DataNode$PacketResponder: PacketResponder 1 for block blk_6223363377903714195 terminating
081111 100405 26251 INFO dfs.DataNode$PacketResponder: PacketResponder 1 for block blk_2693926216424628849 terminating
081110 220937 19 INFO dfs.FSDataset: Deleting block blk_4616966788268535498 file /mnt/hadoop/dfs/data/current/subdir56/blk_4616966788268535498
081111 063828 22630 INFO dfs.DataNode$DataXceiver: Receiving block blk_-611797622816042421 src: /10.251.67.225:60917 dest: /10.251.67.225:50010
081110 082329 8271 WARN dfs.DataNode$DataXceiver: 10.251.123.195:50010:Got exception while serving blk_-5449523915932480302 to /10.251.123.195:
081110 103525 19 INFO dfs.FSDataset: Deleting block blk_-5562124165887432693 file /mnt/hadoop/dfs/data/current/subdir58/blk_-5562124165887432693
081110 121140 33 INFO dfs.FSNamesystem: BLOCK* NameSystem.addStoredBlock: blockMap updated: 10.251.123.33:50010 is added to blk_-7778728779852844456 size 67108864
081111 100321 34 INFO dfs.FSNamesystem: BLOCK* NameSystem.addStoredBlock: blockMap updated: 10.251.106.214:50010 is added to blk_8136096154230682132 size 67108864
081109 213457 2445 INFO dfs.DataNode$PacketResponder: PacketResponder 1 for block blk_1435165901313397966 terminating
081110 215114 15322 INFO dfs.DataNode$PacketResponder: Received block blk_-6403177298473969412 of size 67108864 from /10.251.42.16
081111 034841 19220 INFO dfs.DataNode$PacketResponder: PacketResponder 1 for block blk_6300774372730510766 terminating
081111 075146 23688 INFO dfs.DataNode$PacketResponder: Received block blk_4594460144312587671 of size 67108864 from /10.250.6.214
081111 023010 27 INFO dfs.FSNamesystem: BLOCK* NameSystem.delete: blk_3425997651545196870 is added to invalidSet of 10.251.122.79:50010
081110 014520 5870 INFO dfs.DataNode$PacketResponder: PacketResponder 1 for block blk_-5511630179413516751 terminating
081111 065401 19 INFO dfs.FSDataset: Deleting block blk_-6590741801266238993 file /mnt/hadoop/dfs/data/current/subdir48/blk_-6590741801266238993
081110 105808 9370 INFO dfs.DataNode$PacketResponder: Received block blk_2672260797709349271 of size 67108864 from /10.251.107.98
081111 073707 22191 INFO dfs.DataNode$DataXceiver: Receiving block blk_-5481605676419384734 src: /10.251.106.10:42530 dest: /10.251.106.10:50010
081110 151702 13272 INFO dfs.DataNode$PacketResponder: PacketResponder 2 for block blk_-5135754391589834985 terminating
081111 050319 30 INFO dfs.FSNamesystem: BLOCK* NameSystem.addStoredBlock: blockMap updated: 10.251.199.245:50010 is added to blk_7622680433581957656 size 67108864
081111 082018 24224 INFO dfs.DataNode$PacketResponder: PacketResponder 2 for block blk_-4365546358939831103 terminating
081109 210956 35 INFO dfs.FSNamesystem: BLOCK* NameSystem.addStoredBlock: blockMap updated: 10.251.123.20:50010 is added to blk_-4254250671984182870 size 67108864
081111 093129 30 INFO dfs.FSNamesystem: BLOCK* NameSystem.allocateBlock: /user/root/rand8/_temporary/_task_200811101024_0015_m_001003_0/part-01003. blk_1161958693526838818
081110 011830 5069 INFO dfs.DataNode$DataXceiver: Receiving block blk_-8142416631064642870 src: /10.251.91.15:53855 dest: /10.251.91.15:50010
081110 114132 10255 INFO dfs.DataNode$PacketResponder: PacketResponder 1 for block blk_-8115547198266785156 terminating
081110 112500 9984 INFO dfs.DataNode$DataXceiver: Receiving block blk_-8420779755235248237 src: /10.251.106.50:36848 dest: /10.251.106.50:50010
081109 212335 33 INFO dfs.FSNamesystem: BLOCK* NameSystem.addStoredBlock: blockMap updated: 10.251.122.65:50010 is added to blk_7231722107889913174 size 67108864
081110 103736 19 INFO dfs.FSDataset: Deleting block blk_3510312002053213907 file /mnt/hadoop/dfs/data/current/subdir48/blk_3510312002053213907
081111 092110 23913 INFO dfs.DataNode$DataXceiver: Receiving block blk_5511470091022630311 src: /10.251.106.10:46019 dest: /10.251.106.10:50010
081111 012842 17587 INFO dfs.DataNode$DataXceiver: 10.251.199.86:50010 Served block blk_-6751946917998017633 to /10.251.199.86
081111 044312 35 INFO dfs.FSNamesystem: BLOCK* NameSystem.delete: blk_-8485712387096501537 is added to invalidSet of 10.250.10.6:50010
081110 221000 19 INFO dfs.FSDataset: Deleting block blk_8213146437147913087 file /mnt/hadoop/dfs/data/current/subdir57/blk_8213146437147913087
081111 054735 32 INFO dfs.FSNamesystem: BLOCK* NameSystem.delete: blk_2744890580526833103 is added to invalidSet of 10.251.42.191:50010
081111 044323 35 INFO dfs.FSNamesystem: BLOCK* NameSystem.delete: blk_1707065397884817090 is added to invalidSet of 10.251.75.228:50010
081111 110546 19 INFO dfs.FSDataset: Deleting block blk_101590431435766342 file /mnt/hadoop/dfs/data/current/subdir53/blk_101590431435766342
081110 230615 16683 INFO dfs.DataNode$DataXceiver: Receiving block blk_6947978137473465390 src: /10.251.214.18:42462 dest: /10.251.214.18:50010
081110 034907 6660 INFO dfs.DataNode$DataXceiver: 10.251.26.177:50010 Served block blk_6312788236699128540 to /10.251.199.159
081110 035152 6653 WARN dfs.DataNode$DataXceiver: 10.251.110.8:50010:Got exception while serving blk_-6435806571778044530 to /10.251.73.220:
081109 234905 4281 INFO dfs.DataNode$DataXceiver: Receiving block blk_-3408306400363928062 src: /10.251.25.237:34813 dest: /10.251.25.237:50010
081110 220713 31 INFO dfs.FSNamesystem: BLOCK* NameSystem.allocateBlock: /user/root/randtxt3/_temporary/_task_200811101024_0007_m_000346_0/part-00346. blk_4827586075924700100
081111 075926 19 INFO dfs.FSDataset: Deleting block blk_4539354499305708186 file /mnt/hadoop/dfs/data/current/subdir30/blk_4539354499305708186
081110 103137 30 INFO dfs.FSNamesystem: BLOCK* NameSystem.delete: blk_-608771274659479156 is added to invalidSet of 10.250.11.100:50010
081110 132017 11706 WARN dfs.DataNode$DataXceiver: 10.251.71.146:50010:Got exception while serving blk_5222973972088058896 to /10.251.43.210:
081111 025516 17836 INFO dfs.DataNode$PacketResponder: Received block blk_-1372629784252541382 of size 67108864 from /10.250.7.146
081110 124703 11555 WARN dfs.DataNode$DataXceiver: 10.251.75.163:50010:Got exception while serving blk_-1501523491056525509 to /10.250.6.214:
081110 115613 10492 INFO dfs.DataNode$PacketResponder: Received block blk_-8761894079280897828 of size 67108864 from /10.251.126.5
081110 103139 30 INFO dfs.FSNamesystem: BLOCK* NameSystem.delete: blk_-3090718675185481096 is added to invalidSet of 10.250.14.143:50010
081110 211543 34 INFO dfs.FSNamesystem: BLOCK* NameSystem.addStoredBlock: blockMap updated: 10.251.193.224:50010 is added to blk_5308380431605427341 size 67108864
081111 074734 23425 INFO dfs.DataNode$PacketResponder: Received block blk_-3760110790689038532 of size 67108864 from /10.250.7.230
081109 232736 28 INFO dfs.FSNamesystem: BLOCK* NameSystem.addStoredBlock: blockMap updated: 10.251.43.147:50010 is added to blk_-9055153273931592083 size 67108864
081109 204900 656 INFO dfs.DataNode$DataXceiver: Receiving block blk_8892662390416909095 src: /10.251.123.132:54398 dest: /10.251.123.132:50010
081111 081350 24321 INFO dfs.DataNode$DataXceiver: Receiving block blk_2948560162508047515 src: /10.251.111.228:43239 dest: /10.251.111.228:50010
081110 143942 12258 INFO dfs.DataNode$PacketResponder: PacketResponder 1 for block blk_-8958096134045574267 terminating
081111 051232 20673 INFO dfs.DataNode$PacketResponder: Received block blk_-1313362358687518697 of size 67108864 from /10.251.107.242
081111 023024 27 INFO dfs.FSNamesystem: BLOCK* NameSystem.delete: blk_-2804816867489214000 is added to invalidSet of 10.251.214.32:50010
081111 043607 19935 INFO dfs.DataNode$PacketResponder: PacketResponder 1 for block blk_-8050875779430148633 terminating
081111 042147 19838 INFO dfs.DataNode$PacketResponder: Received block blk_-7925197953742150889 of size 67108864 from /10.251.70.211
081110 221051 26 INFO dfs.FSNamesystem: BLOCK* NameSystem.addStoredBlock: blockMap updated: 10.251.30.85:50010 is added to blk_-2725488234151100186 size 67108864
081110 103054 30 INFO dfs.FSNamesystem: BLOCK* NameSystem.delete: blk_-6163067990298638325 is added to invalidSet of 10.251.71.68:50010
081110 210127 28 INFO dfs.FSNamesystem: BLOCK* NameSystem.delete: blk_-6444719092086566291 is added to invalidSet of 10.251.125.193:50010
081110 093353 8850 INFO dfs.DataNode$DataXceiver: 10.251.75.143:50010 Served block blk_1551137148712125954 to /10.250.11.194
081111 023254 19 INFO dfs.FSDataset: Deleting block blk_1304248979354760711 file /mnt/hadoop/dfs/data/current/subdir39/blk_1304248979354760711
081111 044722 19 INFO dfs.FSDataset: Deleting block blk_67479696685008063 file /mnt/hadoop/dfs/data/current/subdir16/blk_67479696685008063
081111 080030 23880 INFO dfs.DataNode$DataXceiver: Receiving block blk_-6418051874414563253 src: /10.251.126.22:59930 dest: /10.251.126.22:50010
081111 090812 33 INFO dfs.FSNamesystem: BLOCK* NameSystem.addStoredBlock: blockMap updated: 10.251.39.209:50010 is added to blk_-3754770861996925645 size 67108864
081111 110600 19 INFO dfs.FSDataset: Deleting block blk_-602869269567873270 file /mnt/hadoop/dfs/data/current/subdir10/blk_-602869269567873270
081111 110430 26 INFO dfs.FSNamesystem: BLOCK* NameSystem.delete: blk_1434660625528832519 is added to invalidSet of 10.251.199.225:50010
081109 204333 28 INFO dfs.FSNamesystem: BLOCK* NameSystem.addStoredBlock: blockMap updated: 10.251.125.193:50010 is added to blk_-3488949042233837395 size 67108864
081110 215940 15756 INFO dfs.DataNode$PacketResponder: PacketResponder 1 for block blk_5157206951831936713 terminating
081110 012327 5439 INFO dfs.DataNode$DataXceiver: Receiving block blk_-6925163198763004736 src: /10.251.31.242:34387 dest: /10.251.31.242:50010
081110 221545 15872 INFO dfs.DataNode$PacketResponder: PacketResponder 0 for block blk_-224760144414483621 terminating
081111 110438 26 INFO dfs.FSNamesystem: BLOCK* NameSystem.delete: blk_6921872880656419330 is added to invalidSet of 10.250.14.224:50010
081111 041322 30 INFO dfs.FSNamesystem: BLOCK* NameSystem.addStoredBlock: blockMap updated: 10.251.43.147:50010 is added to blk_-6044870478383628613 size 28481104
081110 110308 27 INFO dfs.FSNamesystem: BLOCK* NameSystem.addStoredBlock: blockMap updated: 10.251.194.102:50010 is added to blk_-147574684779343977 size 67108864
081110 103138 30 INFO dfs.FSNamesystem: BLOCK* NameSystem.delete: blk_6403091190863856445 is added to invalidSet of 10.251.125.237:50010
081110 103730 19 INFO dfs.FSDataset: Deleting block blk_7079752371010894781 file /mnt/hadoop/dfs/data/current/subdir34/blk_7079752371010894781
081110 210619 19 INFO dfs.FSDataset: Deleting block blk_7604418728279397767 file /mnt/hadoop/dfs/data/current/subdir30/blk_7604418728279397767
081111 044313 35 INFO dfs.FSNamesystem: BLOCK* NameSystem.delete: blk_8291422503534578553 is added to invalidSet of 10.251.66.102:50010
081110 151236 13166 INFO dfs.DataNode$PacketResponder: PacketResponder 2 for block blk_8964058480118733907 terminating
081111 073308 30 INFO dfs.FSNamesystem: BLOCK* NameSystem.allocateBlock: /user/root/rand6/_temporary/_task_200811101024_0013_m_001244_0/part-01244. blk_-4735531180061762580
081110 210353 19 INFO dfs.FSDataset: Deleting block blk_-7124969077933830531 file /mnt/hadoop/dfs/data/current/subdir19/blk_-7124969077933830531
081110 103559 19 INFO dfs.FSDataset: Deleting block blk_-2900490557492272760 file /mnt/hadoop/dfs/data/current/blk_-2900490557492272760
081110 103142 30 INFO dfs.FSNamesystem: BLOCK* NameSystem.delete: blk_3871211900609724541 is added to invalidSet of 10.250.5.161:50010
081111 075634 28 INFO dfs.FSNamesystem: BLOCK* NameSystem.delete: blk_8411713341763460987 is added to invalidSet of 10.251.127.243:50010
081111 082303 24198 INFO dfs.DataNode$PacketResponder: Received block blk_-5441864975434915624 of size 67108864 from /10.251.70.5
081110 214157 29 INFO dfs.FSNamesystem: BLOCK* NameSystem.addStoredBlock: blockMap updated: 10.251.25.237:50010 is added to blk_857180033483935298 size 67108864
081110 093829 8902 INFO dfs.DataNode$DataXceiver: 10.251.39.209:50010 Served block blk_-5780106294532073636 to /10.251.30.85
081109 213426 33 INFO dfs.FSNamesystem: BLOCK* NameSystem.addStoredBlock: blockMap updated: 10.251.75.163:50010 is added to blk_8056394559515773872 size 67108864
081110 114839 33 INFO dfs.FSNamesystem: BLOCK* NameSystem.addStoredBlock: blockMap updated: 10.251.110.8:50010 is added to blk_1427594669225605415 size 67108864
081110 150405 30 INFO dfs.FSNamesystem: BLOCK* NameSystem.addStoredBlock: blockMap updated: 10.251.42.246:50010 is added to blk_-5828425986626587961 size 67108864
081110 133924 11856 INFO dfs.DataNode$DataXceiver: 10.251.31.160:50010 Served block blk_6715378830843673770 to /10.251.122.65
081110 105013 9286 INFO dfs.DataNode$PacketResponder: PacketResponder 0 for block blk_-4012910717023510927 terminating
081111 054926 34 INFO dfs.FSNamesystem: BLOCK* NameSystem.addStoredBlock: blockMap updated: 10.251.91.32:50010 is added to blk_-471334310598191582 size 67108864
081111 043830 32 INFO dfs.FSNamesystem: BLOCK* NameSystem.allocateBlock: /user/root/randtxt4/_temporary/_task_200811101024_0010_m_001948_0/part-01948. blk_2488208507463237461
081111 110418 32 INFO dfs.FSNamesystem: BLOCK* NameSystem.delete: blk_2411617412243655906 is added to invalidSet of 10.251.122.65:50010
081111 075840 19 INFO dfs.FSDataset: Deleting block blk_2128162255537960183 file /mnt/hadoop/dfs/data/current/subdir37/blk_2128162255537960183
081110 220854 19 INFO dfs.FSDataset: Deleting block blk_-7481177672241998211 file /mnt/hadoop/dfs/data/current/blk_-7481177672241998211
081110 012646 5317 INFO dfs.DataNode$PacketResponder: PacketResponder 1 for block blk_-1461721228131822626 terminating
081109 211208 1521 INFO dfs.DataNode$DataXceiver: Receiving block blk_-3393859396761347318 src: /10.250.13.240:52015 dest: /10.250.13.240:50010
081111 044646 19 INFO dfs.FSDataset: Deleting block blk_5114246901410046528 file /mnt/hadoop/dfs/data/current/subdir44/blk_5114246901410046528
081111 060642 21860 INFO dfs.DataNode$PacketResponder: PacketResponder 1 for block blk_-1310246307124361675 terminating
081111 110428 26 INFO dfs.FSNamesystem: BLOCK* NameSystem.delete: blk_2383666501386236013 is added to invalidSet of 10.250.11.100:50010
081110 210141 28 INFO dfs.FSNamesystem: BLOCK* NameSystem.delete: blk_-4483015661955200094 is added to invalidSet of 10.251.109.209:50010
081110 010602 13 INFO dfs.DataBlockScanner: Verification succeeded for blk_-678322458019836309
081111 044636 19 INFO dfs.FSDataset: Deleting block blk_-5512562052701643536 file /mnt/hadoop/dfs/data/current/subdir42/blk_-5512562052701643536
081110 210157 28 INFO dfs.FSNamesystem: BLOCK* NameSystem.delete: blk_-2490196530659790222 is added to invalidSet of 10.251.125.237:50010
081111 074734 33 INFO dfs.FSNamesystem: BLOCK* NameSystem.addStoredBlock: blockMap updated: 10.251.214.67:50010 is added to blk_9047686494775101582 size 67108864
081111 050411 19 INFO dfs.FSDataset: Deleting block blk_9104633117332618085 file /mnt/hadoop/dfs/data/current/subdir46/blk_9104633117332618085
081111 084918 25000 INFO dfs.DataNode$PacketResponder: PacketResponder 2 for block blk_5425863523785553322 terminating
081111 053518 20818 INFO dfs.DataNode$PacketResponder: PacketResponder 1 for block blk_502243488132554263 terminating
081110 150902 12903 INFO dfs.DataNode$DataXceiver: Receiving block blk_6883534561385241472 src: /10.251.203.179:40503 dest: /10.251.203.179:50010
081111 102746 26823 INFO dfs.DataNode$DataXceiver: Receiving block blk_4536310935814568324 src: /10.251.203.129:50347 dest: /10.251.203.129:50010
081111 075621 28 INFO dfs.FSNamesystem: BLOCK* NameSystem.delete: blk_4669005245073870672 is added to invalidSet of 10.251.123.99:50010
081111 075911 18 INFO dfs.FSDataset: Deleting block blk_1628371383264702997 file /mnt/hadoop/dfs/data/current/subdir47/blk_1628371383264702997
081111 085915 27 INFO dfs.FSNamesystem: BLOCK* NameSystem.delete: blk_-1231371892791353643 is added to invalidSet of 10.251.31.5:50010
081111 025731 17999 INFO dfs.DataNode$PacketResponder: PacketResponder 0 for block blk_7454852319345827025 terminating
081111 075628 28 INFO dfs.FSNamesystem: BLOCK* NameSystem.delete: blk_-5021200874849191873 is added to invalidSet of 10.251.75.228:50010
081111 060534 26 INFO dfs.FSNamesystem: BLOCK* NameSystem.allocateBlock: /user/root/randtxt5/_temporary/_task_200811101024_0012_m_000410_0/part-00410. blk_8519847421138976474
081109 213121 13 INFO dfs.DataBlockScanner: Verification succeeded for blk_1291172913379035856
081111 035754 19307 INFO dfs.DataNode$DataXceiver: Receiving block blk_-6505948473094971395 src: /10.250.7.32:58063 dest: /10.250.7.32:50010
081110 143348 12427 INFO dfs.DataNode$DataXceiver: Receiving block blk_-4418416176531630767 src: /10.251.26.8:53508 dest: /10.251.26.8:50010
081110 214405 30 INFO dfs.FSNamesystem: BLOCK* NameSystem.addStoredBlock: blockMap updated: 10.251.26.177:50010 is added to blk_5963921321291026556 size 67108864
081110 221708 16025 INFO dfs.DataNode$PacketResponder: PacketResponder 1 for block blk_5492769178130049677 terminating
081111 092520 25469 INFO dfs.DataNode$DataXceiver: Receiving block blk_-5688165250398461378 src: /10.251.203.149:47637 dest: /10.251.203.149:50010
081110 143402 28 INFO dfs.FSNamesystem: BLOCK* NameSystem.addStoredBlock: blockMap updated: 10.251.197.161:50010 is added to blk_6424176022874697299 size 67108864
081110 150321 12993 INFO dfs.DataNode$PacketResponder: PacketResponder 0 for block blk_-4228672869481314003 terminating
081110 222326 16002 INFO dfs.DataNode$PacketResponder: PacketResponder 0 for block blk_-5582166271394173646 terminating
081110 103140 30 INFO dfs.FSNamesystem: BLOCK* NameSystem.delete: blk_-3106032473753345857 is added to invalidSet of 10.251.105.189:50010
081110 212347 15031 INFO dfs.DataNode$DataXceiver: Receiving block blk_-8756620498719539720 src: /10.251.122.79:44262 dest: /10.251.122.79:50010
081110 120331 10397 INFO dfs.DataNode$PacketResponder: PacketResponder 2 for block blk_8086760194056345611 terminating
081110 114846 10410 INFO dfs.DataNode$PacketResponder: Received block blk_7693312653847246895 of size 67108864 from /10.251.193.224
081110 043920 6800 WARN dfs.DataNode$DataXceiver: 10.251.75.228:50010:Got exception while serving blk_6011932018292375629 to /10.250.15.101:
081110 091215 8452 INFO dfs.DataNode$DataXceiver: 10.250.15.240:50010 Served block blk_2700551859814583896 to /10.251.127.243
081111 090110 29 INFO dfs.FSNamesystem: BLOCK* NameSystem.allocateBlock: /user/root/rand8/_temporary/_task_200811101024_0015_m_000044_0/part-00044. blk_-6922113673280398713
081111 040939 19381 INFO dfs.DataNode$PacketResponder: PacketResponder 1 for block blk_6992665350779962887 terminating
081110 212156 15045 INFO dfs.DataNode$DataXceiver: Receiving block blk_-4477684446467668432 src: /10.251.90.134:57272 dest: /10.251.90.134:50010
081111 082027 23823 INFO dfs.DataNode$PacketResponder: PacketResponder 1 for block blk_5045125987802328933 terminating
081111 084204 24733 INFO dfs.DataNode$PacketResponder: Received block blk_-5033271991513005187 of size 3543410 from /10.251.123.1
081111 081603 24276 INFO dfs.DataNode$DataXceiver: Receiving block blk_8250941120352042104 src: /10.251.201.204:60745 dest: /10.251.201.204:50010
081111 023034 27 INFO dfs.FSNamesystem: BLOCK* NameSystem.delete: blk_-878347344890078974 is added to invalidSet of 10.250.11.194:50010
081111 103010 26598 INFO dfs.DataNode$DataXceiver: Receiving block blk_132798439054491725 src: /10.251.203.129:36007 dest: /10.251.203.129:50010
081110 210617 19 INFO dfs.FSDataset: Deleting block blk_7302157627281775019 file /mnt/hadoop/dfs/data/current/subdir10/blk_7302157627281775019
081109 233529 3923 INFO dfs.DataNode$PacketResponder: PacketResponder 1 for block blk_-6325455805008873480 terminating
081111 025654 18315 INFO dfs.DataNode$PacketResponder: PacketResponder 0 for block blk_4028643958185447218 terminating
081111 055143 21103 INFO dfs.DataNode$PacketResponder: PacketResponder 1 for block blk_-4222898588240430038 terminating
081110 012154 29 INFO dfs.FSNamesystem: BLOCK* NameSystem.addStoredBlock: blockMap updated: 10.251.203.149:50010 is added to blk_1420421711456617848 size 67108864
081111 090151 19 INFO dfs.FSDataset: Deleting block blk_3705197093671333955 file /mnt/hadoop/dfs/data/current/subdir18/blk_3705197093671333955
081111 092635 25498 INFO dfs.DataNode$PacketResponder: PacketResponder 1 for block blk_7650634092064663147 terminating
081111 023249 18 INFO dfs.FSDataset: Deleting block blk_1818029822229539362 file /mnt/hadoop/dfs/data/current/subdir1/blk_1818029822229539362
081110 224906 16716 INFO dfs.DataNode$PacketResponder: PacketResponder 1 for block blk_-8620602344070058518 terminating
081110 210135 28 INFO dfs.FSNamesystem: BLOCK* NameSystem.delete: blk_1534657002970922723 is added to invalidSet of 10.251.91.159:50010
081111 031821 18516 INFO dfs.DataNode$PacketResponder: PacketResponder 2 for block blk_-6479443552747732799 terminating
081109 213236 2305 INFO dfs.DataNode$PacketResponder: PacketResponder 2 for block blk_2753852894335413799 terminating
081111 105142 27184 INFO dfs.DataNode$PacketResponder: Received block blk_7032267414687606663 of size 67108864 from /10.251.215.192
081110 001808 4892 INFO dfs.DataNode$DataXceiver: Receiving block blk_-7077254522192307174 src: /10.251.91.84:49172 dest: /10.251.91.84:50010
081111 104254 26510 INFO dfs.DataNode$PacketResponder: PacketResponder 2 for block blk_-8045370756599188999 terminating
081110 121609 11099 INFO dfs.DataNode$PacketResponder: PacketResponder 0 for block blk_8420933632075526313 terminating
081111 093724 25742 INFO dfs.DataNode$DataXceiver: Receiving block blk_-3739580718776705143 src: /10.250.6.191:40858 dest: /10.250.6.191:50010
081111 040217 19396 INFO dfs.DataNode$PacketResponder: Received block blk_-6184698735320873734 of size 67108864 from /10.251.111.130
081109 212303 1912 INFO dfs.DataNode$PacketResponder: Received block blk_5075966182561035053 of size 67108864 from /10.251.123.33
081110 080405 7831 INFO dfs.DataNode$PacketResponder: Received block blk_2550074082313405406 of size 12146 from /10.250.19.102
081111 085112 25078 INFO dfs.DataNode$PacketResponder: PacketResponder 2 for block blk_-8835216863372022417 terminating
081110 200135 14517 INFO dfs.DataNode$DataXceiver: 10.250.11.53:50010 Served block blk_-4039027551068886205 to /10.250.11.53
081111 090020 19 INFO dfs.FSDataset: Deleting block blk_-7916258154062681917 file /mnt/hadoop/dfs/data/current/subdir43/blk_-7916258154062681917
081110 093018 8531 INFO dfs.DataNode$DataXceiver: 10.251.127.243:50010 Served block blk_-4362941695834852050 to /10.251.214.18
081111 023203 19 INFO dfs.FSDataset: Deleting block blk_-7057140953817576575 file /mnt/hadoop/dfs/data/current/subdir23/blk_-7057140953817576575
081109 232934 29 INFO dfs.FSNamesystem: BLOCK* NameSystem.addStoredBlock: blockMap updated: 10.251.91.32:50010 is added to blk_-10823791999874740 size 67108864
081111 044305 35 INFO dfs.FSNamesystem: BLOCK* NameSystem.delete: blk_2439040161616305933 is added to invalidSet of 10.250.14.196:50010
081111 023944 35 INFO dfs.FSNamesystem: BLOCK* NameSystem.addStoredBlock: blockMap updated: 10.251.39.160:50010 is added to blk_4410271652711167518 size 67108864
081110 103549 19 INFO dfs.FSDataset: Deleting block blk_-1054642689462349999 file /mnt/hadoop/dfs/data/current/subdir27/blk_-1054642689462349999
081111 025538 17964 INFO dfs.DataNode$PacketResponder: PacketResponder 2 for block blk_6920976186299070989 terminating
081111 054735 19 INFO dfs.FSDataset: Deleting block blk_4174302671210996090 file /mnt/hadoop/dfs/data/current/subdir16/blk_4174302671210996090
081110 014734 5925 INFO dfs.DataNode$PacketResponder: Received block blk_5560188321671449175 of size 67108864 from /10.251.126.255
081109 213537 2395 INFO dfs.DataNode$PacketResponder: Received block blk_-6160713040477304264 of size 67108864 from /10.251.194.129
081110 152830 13362 INFO dfs.DataNode$PacketResponder: PacketResponder 1 for block blk_2336490327623482205 terminating
081111 065451 19 INFO dfs.FSDataset: Deleting block blk_-1789397820721633769 file /mnt/hadoop/dfs/data/current/subdir31/blk_-1789397820721633769
081111 110444 26 INFO dfs.FSNamesystem: BLOCK* NameSystem.delete: blk_6599700568305879843 is added to invalidSet of 10.250.11.85:50010
081110 202113 14275 INFO dfs.DataNode$DataXceiver: 10.251.42.16:50010 Served block blk_-2673274808598297298 to /10.251.42.16
081111 065217 26 INFO dfs.FSNamesystem: BLOCK* NameSystem.delete: blk_-2452915191115894888 is added to invalidSet of 10.251.127.47:50010
081111 044333 29 INFO dfs.FSNamesystem: BLOCK* NameSystem.delete: blk_-500339857616378840 is added to invalidSet of 10.251.126.5:50010
081111 044544 19 INFO dfs.FSDataset: Deleting block blk_-6166328656667888143 file /mnt/hadoop/dfs/data/current/subdir47/blk_-6166328656667888143
081111 051305 20922 INFO dfs.DataNode$DataXceiver: Receiving block blk_-3890949388086368796 src: /10.251.194.102:57471 dest: /10.251.194.102:50010
081110 042557 6812 INFO dfs.DataNode$DataXceiver: 10.251.214.18:50010 Served block blk_-9125917683049472590 to /10.251.214.18
081111 110432 26 INFO dfs.FSNamesystem: BLOCK* NameSystem.delete: blk_3467239306219380891 is added to invalidSet of 10.251.65.237:50010
081111 065426 19 INFO dfs.FSDataset: Deleting block blk_-4730919159104726694 file /mnt/hadoop/dfs/data/current/subdir3/blk_-4730919159104726694
081110 110719 13 INFO dfs.DataBlockScanner: Verification succeeded for blk_-7656220664212100135
081110 113842 10218 INFO dfs.DataNode$PacketResponder: Received block blk_1410513047387896867 of size 67108864 from /10.250.6.214
081111 041919 19684 INFO dfs.DataNode$PacketResponder: Received block blk_-7682360754908220167 of size 67108864 from /10.250.10.176
081111 023257 19 INFO dfs.FSDataset: Deleting block blk_2944081537561523757 file /mnt/hadoop/dfs/data/current/subdir10/blk_2944081537561523757
081110 000538 4537 INFO dfs.DataNode$DataXceiver: Receiving block blk_5338799720742037635 src: /10.251.71.146:44375 dest: /10.251.71.146:50010
081110 145124 12581 INFO dfs.DataNode$PacketResponder: PacketResponder 0 for block blk_-4594761837345709939 terminating
081111 030225 18072 INFO dfs.DataNode$DataXceiver: Receiving block blk_-8344539100691560709 src: /10.251.91.15:47149 dest: /10.251.91.15:50010
081110 104630 9247 INFO dfs.DataNode$PacketResponder: PacketResponder 1 for block blk_-4616847089881098921 terminating
081110 001234 4717 INFO dfs.DataNode$DataXceiver: Receiving block blk_8407917754593381403 src: /10.251.195.33:59248 dest: /10.251.195.33:50010
081111 100613 25922 INFO dfs.DataNode$PacketResponder: PacketResponder 0 for block blk_6848599930590281060 terminating
081111 084537 24889 INFO dfs.DataNode$PacketResponder: PacketResponder 0 for block blk_-7900820318270902720 terminating
081111 075618 28 INFO dfs.FSNamesystem: BLOCK* NameSystem.delete: blk_-7108799656227960530 is added to invalidSet of 10.251.31.5:50010
081110 235749 16965 INFO dfs.DataNode$DataXceiver: 10.251.214.225:50010 Served block blk_9137094293937490840 to /10.251.107.50
081111 085202 24600 INFO dfs.DataNode$PacketResponder: Received block blk_1618758899547960860 of size 67108864 from /10.251.202.209
081110 103101 19 INFO dfs.FSDataset: Deleting block blk_-7108188378680256560 file /mnt/hadoop/dfs/data/current/subdir20/blk_-7108188378680256560
081110 210153 28 INFO dfs.FSNamesystem: BLOCK* NameSystem.delete: blk_-8852292030837762791 is added to invalidSet of 10.251.25.237:50010
081111 074521 33 INFO dfs.FSNamesystem: BLOCK* NameSystem.allocateBlock: /user/root/rand6/_temporary/_task_200811101024_0013_m_001666_0/part-01666. blk_6470383861944822669
081110 103139 30 INFO dfs.FSNamesystem: BLOCK* NameSystem.delete: blk_4987233867612337227 is added to invalidSet of 10.251.35.1:50010
081111 050513 20546 INFO dfs.DataNode$PacketResponder: Received block blk_1436543104953798490 of size 67108864 from /10.251.35.1
081109 230438 3729 INFO dfs.DataNode$DataXceiver: 10.251.42.16:50010 Served block blk_-8861817172226505668 to /10.251.107.98
081111 053442 21113 INFO dfs.DataNode$PacketResponder: PacketResponder 1 for block blk_3381633189451582273 terminating
081110 214243 29 INFO dfs.FSNamesystem: BLOCK* NameSystem.addStoredBlock: blockMap updated: 10.251.202.209:50010 is added to blk_7922086436868005334 size 67108864
081111 045558 20411 INFO dfs.DataNode$PacketResponder: PacketResponder 1 for block blk_-1203110281471705903 terminating
081111 052655 21135 INFO dfs.DataNode$PacketResponder: Received block blk_8765794598680363841 of size 67108864 from /10.251.215.70
081111 110608 19 INFO dfs.FSDataset: Deleting block blk_530029597067723876 file /mnt/hadoop/dfs/data/current/subdir44/blk_530029597067723876
081110 001353 4840 INFO dfs.DataNode$DataXceiver: Receiving block blk_-6070857328337426650 src: /10.250.11.85:34744 dest: /10.250.11.85:50010
081109 235752 4475 INFO dfs.DataNode$DataXceiver: Receiving block blk_-7408642694702615619 src: /10.251.66.3:39069 dest: /10.251.66.3:50010
081110 112527 10136 INFO dfs.DataNode$PacketResponder: Received block blk_3391874245456843091 of size 67108864 from /10.251.199.150
081110 103138 30 INFO dfs.FSNamesystem: BLOCK* NameSystem.delete: blk_7499789750333534784 is added to invalidSet of 10.250.13.240:50010
081110 012524 5416 INFO dfs.DataNode$PacketResponder: Received block blk_7127658252849398797 of size 67108864 from /10.250.19.227
081111 044732 19 INFO dfs.FSDataset: Deleting block blk_2474422707622176094 file /mnt/hadoop/dfs/data/current/subdir62/blk_2474422707622176094
081111 084506 28 INFO dfs.FSNamesystem: BLOCK* NameSystem.allocateBlock: /user/root/rand7/_temporary/_task_200811101024_0014_m_001836_0/part-01836. blk_-6579797259198464254
081110 210142 28 INFO dfs.FSNamesystem: BLOCK* NameSystem.delete: blk_-1167224607605665163 is added to invalidSet of 10.251.31.180:50010
081111 060157 21510 INFO dfs.DataNode$PacketResponder: Received block blk_1066536651003787820 of size 67108864 from /10.251.74.192
081110 120100 10520 INFO dfs.DataNode$PacketResponder: PacketResponder 0 for block blk_-429020785961731077 terminating
081111 053254 26 INFO dfs.FSNamesystem: BLOCK* NameSystem.addStoredBlock: blockMap updated: 10.250.6.4:50010 is added to blk_5635321741202219282 size 67108864
081111 095134 25836 INFO dfs.DataNode$DataXceiver: Receiving block blk_-963457594802175616 src: /10.250.7.230:49774 dest: /10.250.7.230:50010
081110 220920 19 INFO dfs.FSDataset: Deleting block blk_549865649383793283 file /mnt/hadoop/dfs/data/current/subdir7/blk_549865649383793283
081111 082840 24507 INFO dfs.DataNode$PacketResponder: PacketResponder 2 for block blk_1236139290665120169 terminating
081110 103717 19 INFO dfs.FSDataset: Deleting block blk_6322866966593633306 file /mnt/hadoop/dfs/data/current/subdir42/blk_6322866966593633306
081110 210556 19 INFO dfs.FSDataset: Deleting block blk_1374342863243323623 file /mnt/hadoop/dfs/data/current/subdir34/blk_1374342863243323623
081110 103104 30 INFO dfs.FSNamesystem: BLOCK* NameSystem.delete: blk_5578429173078938936 is added to invalidSet of 10.251.66.102:50010
081109 213400 2365 INFO dfs.DataNode$PacketResponder: Received block blk_7031639921146961622 of size 67108864 from /10.251.39.144
081110 104454 32 INFO dfs.FSNamesystem: BLOCK* NameSystem.allocateBlock: /user/root/rand/_temporary/_task_200811101024_0001_m_000278_0/part-00278. blk_7816278445080982403
081111 032332 18638 INFO dfs.DataNode$PacketResponder: Received block blk_8956028634832235997 of size 3535953 from /10.251.71.68
081110 210704 19 INFO dfs.FSDataset: Deleting block blk_3644243746063891402 file /mnt/hadoop/dfs/data/current/subdir20/blk_3644243746063891402
081110 151233 34 INFO dfs.FSNamesystem: BLOCK* NameSystem.allocateBlock: /user/root/sortrand2/_temporary/_task_200811101024_0003_r_000264_0/part-00264. blk_1057752581029746212
081110 200159 14209 INFO dfs.DataNode$DataXceiver: 10.251.90.239:50010 Served block blk_-3117638332382961303 to /10.251.71.146
081110 020200 6010 INFO dfs.DataNode$PacketResponder: PacketResponder 0 for block blk_1860757055155695207 terminating
081111 065217 26 INFO dfs.FSNamesystem: BLOCK* NameSystem.delete: blk_5255704386325644234 is added to invalidSet of 10.251.199.225:50010
081110 103057 30 INFO dfs.FSNamesystem: BLOCK* NameSystem.delete: blk_-5525593500590034766 is added to invalidSet of 10.251.70.211:50010
081111 052803 20990 INFO dfs.DataNode$DataXceiver: Receiving block blk_-1457424501835635385 src: /10.251.195.52:55462 dest: /10.251.195.52:50010
081110 151219 13237 INFO dfs.DataNode$PacketResponder: PacketResponder 2 for block blk_8253486170853329145 terminating
081110 221054 15806 INFO dfs.DataNode$PacketResponder: Received block blk_4293978146146835448 of size 67108864 from /10.251.75.228
081111 023037 27 INFO dfs.FSNamesystem: BLOCK* NameSystem.delete: blk_7961765027884700155 is added to invalidSet of 10.251.107.50:50010
081111 082450 35 INFO dfs.FSNamesystem: BLOCK* NameSystem.allocateBlock: /user/root/rand7/_temporary/_task_200811101024_0014_m_000815_0/part-00815. blk_-736932253158208622
081110 065914 7431 INFO dfs.DataNode$DataXceiver: 10.251.121.224:50010 Served block blk_5306783759428732826 to /10.251.121.224
081109 210922 28 INFO dfs.FSNamesystem: BLOCK* NameSystem.allocateBlock: /user/root/rand/_temporary/_task_200811092030_0001_m_001202_0/part-01202. blk_-5873141143648807589
081110 173553 13857 INFO dfs.DataNode$DataXceiver: 10.250.11.100:50010 Served block blk_-7702588863451845192 to /10.251.75.79
081109 212554 2056 INFO dfs.DataNode$DataXceiver: Receiving block blk_-1866630026671910256 src: /10.251.42.191:35603 dest: /10.251.42.191:50010
081111 063354 34 INFO dfs.FSNamesystem: BLOCK* NameSystem.addStoredBlock: blockMap updated: 10.251.201.204:50010 is added to blk_-4424855054154023819 size 67108864
081111 030247 18277 INFO dfs.DataNode$PacketResponder: PacketResponder 1 for block blk_-2047957200899869020 terminating
081110 110421 9337 INFO dfs.DataNode$PacketResponder: Received block blk_2289558227245749450 of size 67108864 from /10.251.198.196
081111 042454 32 INFO dfs.FSNamesystem: BLOCK* NameSystem.addStoredBlock: blockMap updated: 10.251.74.134:50010 is added to blk_-4520497290382177893 size 67108864
081111 071243 26 INFO dfs.FSNamesystem: BLOCK* NameSystem.addStoredBlock: blockMap updated: 10.251.122.65:50010 is added to blk_2651657721868778768 size 67108864
081111 034944 18960 INFO dfs.DataNode$PacketResponder: PacketResponder 2 for block blk_-7318646308510582314 terminating
081111 103140 26999 INFO dfs.DataNode$DataXceiver: Receiving block blk_-7159922451041034122 src: /10.251.67.4:46199 dest: /10.251.67.4:50010
081109 235257 4408 INFO dfs.DataNode$DataXceiver: Receiving block blk_-3603334381626823749 src: /10.251.30.6:45431 dest: /10.251.30.6:50010
081111 061533 21728 INFO dfs.DataNode$DataXceiver: Receiving block blk_-3165217357857676716 src: /10.251.30.6:49811 dest: /10.251.30.6:50010
081111 065227 26 INFO dfs.FSNamesystem: BLOCK* NameSystem.delete: blk_5421075681396103027 is added to invalidSet of 10.251.109.236:50010
081110 122440 11214 INFO dfs.DataNode$PacketResponder: Received block blk_-4202115626672997768 of size 67108864 from /10.251.194.102
081111 023145 19 INFO dfs.FSDataset: Deleting block blk_-8927654337708871811 file /mnt/hadoop/dfs/data/current/subdir50/blk_-8927654337708871811
081111 085916 27 INFO dfs.FSNamesystem: BLOCK* NameSystem.delete: blk_7497539042252629162 is added to invalidSet of 10.251.215.70:50010
081110 211156 14519 INFO dfs.DataNode$PacketResponder: PacketResponder 1 for block blk_-9062069251978703312 terminating
081111 093438 25376 INFO dfs.DataNode$DataXceiver: Receiving block blk_-4970065214991779759 src: /10.251.75.79:51335 dest: /10.251.75.79:50010
081111 061350 35 INFO dfs.FSNamesystem: BLOCK* NameSystem.addStoredBlock: blockMap updated: 10.251.199.245:50010 is added to blk_-7829599783038523132 size 67108864
081111 060748 21689 INFO dfs.DataNode$DataXceiver: Receiving block blk_4680706696718144918 src: /10.251.90.239:60484 dest: /10.251.90.239:50010
081111 030302 18137 INFO dfs.DataNode$PacketResponder: Received block blk_7984994251552645064 of size 67108864 from /10.250.6.214
081110 152032 13489 INFO dfs.DataNode$PacketResponder: PacketResponder 0 for block blk_6771035469224420488 terminating
081110 103304 19 INFO dfs.FSDataset: Deleting block blk_-8862629088437744445 file /mnt/hadoop/dfs/data/current/subdir19/blk_-8862629088437744445
081110 115531 10553 INFO dfs.DataNode$PacketResponder: Received block blk_276405873649797854 of size 67108864 from /10.251.199.150
081111 030352 31 INFO dfs.FSNamesystem: BLOCK* NameSystem.addStoredBlock: blockMap updated: 10.251.43.147:50010 is added to blk_7954682762296243046 size 67108864
081110 221211 19 INFO dfs.FSDataset: Deleting block blk_7744938129902303999 file /mnt/hadoop/dfs/data/current/subdir44/blk_7744938129902303999
081110 012020 5259 INFO dfs.DataNode$PacketResponder: PacketResponder 1 for block blk_-3289883943958167181 terminating
081110 224216 16271 INFO dfs.DataNode$PacketResponder: Received block blk_-1264906296210442985 of size 28494224 from /10.251.107.98
081111 075819 19 INFO dfs.FSDataset: Deleting block blk_-5897494655870550273 file /mnt/hadoop/dfs/data/current/subdir55/blk_-5897494655870550273
081110 111714 9805 INFO dfs.DataNode$PacketResponder: Received block blk_7082255106705104526 of size 67108864 from /10.250.18.114
081111 104738 27119 INFO dfs.DataNode$PacketResponder: Received block blk_-544066981312069354 of size 67108864 from /10.251.38.53
081110 181451 13876 INFO dfs.DataNode$DataXceiver: 10.250.14.196:50010 Served block blk_9079015713579177978 to /10.251.214.18
081110 215027 15554 INFO dfs.DataNode$PacketResponder: PacketResponder 2 for block blk_-5603270682178419237 terminating
081111 110427 26 INFO dfs.FSNamesystem: BLOCK* NameSystem.delete: blk_5396921701772633420 is added to invalidSet of 10.251.30.101:50010
081110 122554 11089 INFO dfs.DataNode$PacketResponder: Received block blk_-7684664074277254029 of size 67108864 from /10.251.42.9
081111 065425 19 INFO dfs.FSDataset: Deleting block blk_-3338381301002847296 file /mnt/hadoop/dfs/data/current/subdir0/blk_-3338381301002847296
081111 023832 31 INFO dfs.FSNamesystem: BLOCK* NameSystem.addStoredBlock: blockMap updated: 10.251.75.228:50010 is added to blk_2393621451109739842 size 3540955
081111 070836 22657 INFO dfs.DataNode$PacketResponder: Received block blk_5584915733486342955 of size 67108864 from /10.251.199.150
081110 213350 15236 INFO dfs.DataNode$PacketResponder: Received block blk_8314759907447277512 of size 67108864 from /10.251.199.225
081111 102412 34 INFO dfs.FSNamesystem: BLOCK* NameSystem.addStoredBlock: blockMap updated: 10.251.42.84:50010 is added to blk_-6291965303513772081 size 3528475
081109 210308 1211 INFO dfs.DataNode$PacketResponder: PacketResponder 2 for block blk_1149577625961057714 terminating
081110 220200 15650 INFO dfs.DataNode$PacketResponder: PacketResponder 2 for block blk_5090805549287632303 terminating
081111 030157 17857 INFO dfs.DataNode$PacketResponder: Received block blk_-132354930315904712 of size 67108864 from /10.251.202.134
081110 212206 14815 INFO dfs.DataNode$PacketResponder: PacketResponder 1 for block blk_-8636695335904873647 terminating
081111 092550 25583 INFO dfs.DataNode$DataXceiver: Receiving block blk_-769220764553404924 src: /10.250.19.16:37323 dest: /10.250.19.16:50010
081110 072426 7533 INFO dfs.DataNode$DataXceiver: 10.250.14.224:50010 Served block blk_177065254522311928 to /10.251.199.159
081110 011425 5211 INFO dfs.DataNode$PacketResponder: PacketResponder 0 for block blk_4890403119191399403 terminating
081110 144313 26 INFO dfs.FSNamesystem: BLOCK* NameSystem.allocateBlock: /user/root/sortrand2/_temporary/_task_200811101024_0003_r_000203_0/part-00203. blk_-874359412034941048
081111 040943 34 INFO dfs.FSNamesystem: BLOCK* NameSystem.allocateBlock: /user/root/randtxt4/_temporary/_task_200811101024_0010_m_000974_0/part-00974. blk_-3221938701498856939
081110 215621 15316 INFO dfs.DataNode$PacketResponder: Received block blk_-4462217235120414606 of size 67108864 from /10.251.194.213
081110 231240 32 INFO dfs.FSNamesystem: BLOCK* NameSystem.delete: blk_4227060243358295506 is added to invalidSet of 10.251.203.246:50010
081111 031909 18625 INFO dfs.DataNode$DataXceiver: Receiving block blk_-7876297044504222170 src: /10.251.107.98:48260 dest: /10.251.107.98:50010
081110 015850 6047 INFO dfs.DataNode$PacketResponder: Received block blk_-6500947841252730853 of size 67108864 from /10.251.195.33
081111 070616 23074 INFO dfs.DataNode$DataXceiver: Receiving block blk_-4104817948627045988 src: /10.251.71.193:40009 dest: /10.251.71.193:50010
081110 151705 31 INFO dfs.FSNamesystem: BLOCK* NameSystem.addStoredBlock: blockMap updated: 10.251.110.68:50010 is added to blk_2402803711835365584 size 67108864
081110 221629 15730 INFO dfs.DataNode$PacketResponder: Received block blk_-3119411650839599914 of size 67108864 from /10.251.123.132
081111 081757 24029 INFO dfs.DataNode$PacketResponder: Received block blk_7786162376848794735 of size 67108864 from /10.251.198.196
081110 224556 16487 INFO dfs.DataNode$PacketResponder: Received block blk_6362408864064336895 of size 67108864 from /10.250.7.244
081110 103034 34 INFO dfs.FSNamesystem: BLOCK* NameSystem.delete: blk_5903570531233302688 is added to invalidSet of 10.251.106.214:50010
081110 230345 15247 INFO dfs.DataNode$DataXceiver: Receiving block blk_-2754388387263809925 src: /10.250.10.6:38519 dest: /10.250.10.6:50010
081110 103523 19 INFO dfs.FSDataset: Deleting block blk_-2104917896366905330 file /mnt/hadoop/dfs/data/current/subdir45/blk_-2104917896366905330
081111 054432 21087 INFO dfs.DataNode$PacketResponder: PacketResponder 1 for block blk_5523663081721312738 terminating
081110 150043 12738 INFO dfs.DataNode$PacketResponder: PacketResponder 1 for block blk_-4007646388534017859 terminating
081110 105455 9497 INFO dfs.DataNode$PacketResponder: Received block blk_-570562973618527497 of size 3536444 from /10.250.10.176
081110 225442 16543 INFO dfs.DataNode$DataXceiver: Receiving block blk_-3588186320049797248 src: /10.251.75.163:54849 dest: /10.251.75.163:50010
081110 153444 35 INFO dfs.FSNamesystem: BLOCK* NameSystem.addStoredBlock: blockMap updated: 10.251.109.209:50010 is added to blk_-3726197675067752730 size 67108864
081110 110041 9502 INFO dfs.DataNode$PacketResponder: Received block blk_-4009142470100615976 of size 67108864 from /10.250.13.240
081111 092530 25193 INFO dfs.DataNode$DataXceiver: Receiving block blk_3046799453033806100 src: /10.251.74.79:40110 dest: /10.251.74.79:50010
081111 034142 30 INFO dfs.FSNamesystem: BLOCK* NameSystem.addStoredBlock: blockMap updated: 10.251.106.10:50010 is added to blk_9047031787373848042 size 67108864
081111 071418 23081 INFO dfs.DataNode$PacketResponder: Received block blk_-7443238294384646691 of size 67108864 from /10.251.66.3
081110 104213 34 INFO dfs.FSNamesystem: BLOCK* NameSystem.addStoredBlock: blockMap updated: 10.251.106.50:50010 is added to blk_2241156716037912080 size 67108864
081110 012216 32 INFO dfs.FSNamesystem: BLOCK* NameSystem.allocateBlock: /user/root/randtxt/_temporary/_task_200811092030_0003_m_000504_0/part-00504. blk_-5060739865060371280
081110 081804 8188 WARN dfs.DataNode$DataXceiver: 10.251.71.146:50010:Got exception while serving blk_7442961996234129405 to /10.251.67.113:
081110 103116 30 INFO dfs.FSNamesystem: BLOCK* NameSystem.delete: blk_-3628496369204395920 is added to invalidSet of 10.251.37.240:50010
081110 000556 4702 INFO dfs.DataNode$DataXceiver: Receiving block blk_2466239284766721758 src: /10.251.214.32:33575 dest: /10.251.214.32:50010
081110 220853 19 INFO dfs.FSDataset: Deleting block blk_-4485101610681738182 file /mnt/hadoop/dfs/data/current/subdir61/blk_-4485101610681738182
081110 151038 12969 INFO dfs.DataNode$DataXceiver: Receiving block blk_5872797552646459083 src: /10.251.214.225:50065 dest: /10.251.214.225:50010
081111 091315 25063 INFO dfs.DataNode$PacketResponder: Received block blk_-6441853472674968527 of size 67108864 from /10.251.215.192
081111 072056 23194 INFO dfs.DataNode$DataXceiver: Receiving block blk_2825114355354565416 src: /10.251.26.177:40438 dest: /10.251.26.177:50010
081110 214949 15569 INFO dfs.DataNode$PacketResponder: PacketResponder 1 for block blk_1172573557477686726 terminating
081110 091320 8399 INFO dfs.DataNode$DataXceiver: 10.251.214.32:50010 Served block blk_-7340009404792769878 to /10.251.214.32
081110 065746 7375 WARN dfs.DataNode$DataXceiver: 10.250.17.177:50010:Got exception while serving blk_1792532887172505569 to /10.251.67.113:
081110 120643 10703 INFO dfs.DataNode$DataXceiver: Receiving block blk_1020767551277003630 src: /10.251.90.134:39325 dest: /10.251.90.134:50010
081110 013403 5645 INFO dfs.DataNode$PacketResponder: PacketResponder 0 for block blk_-4339205014026304744 terminating
081111 103529 26701 INFO dfs.DataNode$PacketResponder: PacketResponder 1 for block blk_9121888114989297537 terminating
081111 090105 18 INFO dfs.FSDataset: Deleting block blk_-6752192379267042534 file /mnt/hadoop/dfs/data/current/subdir55/blk_-6752192379267042534
081111 045901 31 INFO dfs.FSNamesystem: BLOCK* NameSystem.addStoredBlock: blockMap updated: 10.250.9.207:50010 is added to blk_4486182646317337673 size 3538714
081111 095229 25859 INFO dfs.DataNode$PacketResponder: Received block blk_6112799770007325055 of size 67108864 from /10.251.73.220
081111 075850 19 INFO dfs.FSDataset: Deleting block blk_-4137237961991435776 file /mnt/hadoop/dfs/data/current/subdir24/blk_-4137237961991435776
081111 095513 26191 INFO dfs.DataNode$DataXceiver: Receiving block blk_-6473108000696725375 src: /10.250.10.6:55740 dest: /10.250.10.6:50010
081110 220643 32 INFO dfs.FSNamesystem: BLOCK* NameSystem.delete: blk_-9005978175507955978 is added to invalidSet of 10.251.42.191:50010
081111 042320 20142 INFO dfs.DataNode$PacketResponder: PacketResponder 1 for block blk_-4334645036419376839 terminating
081110 103141 30 INFO dfs.FSNamesystem: BLOCK* NameSystem.delete: blk_-8575028946478568653 is added to invalidSet of 10.251.214.225:50010
081110 013852 32 INFO dfs.FSNamesystem: BLOCK* NameSystem.addStoredBlock: blockMap updated: 10.251.106.10:50010 is added to blk_6786000552965578117 size 67108864
081110 020209 32 INFO dfs.FSNamesystem: BLOCK* NameSystem.addStoredBlock: blockMap updated: 10.251.194.213:50010 is added to blk_4456505792887304206 size 67108864
081111 044714 19 INFO dfs.FSDataset: Deleting block blk_2584222846261237381 file /mnt/hadoop/dfs/data/current/subdir45/blk_2584222846261237381
081109 233607 4023 INFO dfs.DataNode$PacketResponder: PacketResponder 1 for block blk_-8310759680130893393 terminating
081110 014650 5926 INFO dfs.DataNode$PacketResponder: Received block blk_4052435690641302688 of size 67108864 from /10.250.11.53
081111 052252 26 INFO dfs.FSNamesystem: BLOCK* NameSystem.addStoredBlock: blockMap updated: 10.251.71.97:50010 is added to blk_2843153746738199824 size 67108864
081110 014809 6003 INFO dfs.DataNode$DataXceiver: Receiving block blk_-4708775123346596703 src: /10.251.214.112:39704 dest: /10.251.214.112:50010
081110 123714 11283 INFO dfs.DataNode$PacketResponder: PacketResponder 2 for block blk_-7816330181534290721 terminating
081109 234929 4391 INFO dfs.DataNode$PacketResponder: PacketResponder 0 for block blk_-7891534704003075388 terminating
081111 034927 33 INFO dfs.FSNamesystem: BLOCK* NameSystem.addStoredBlock: blockMap updated: 10.251.123.33:50010 is added to blk_-2815266417585138364 size 67108864
081110 114912 10342 INFO dfs.DataNode$PacketResponder: Received block blk_5303235041510196678 of size 67108864 from /10.251.90.134
081111 051914 21141 INFO dfs.DataNode$PacketResponder: Received block blk_-8257130042662906825 of size 67108864 from /10.251.42.9
081110 210112 28 INFO dfs.FSNamesystem: BLOCK* NameSystem.delete: blk_-4308988335994499076 is added to invalidSet of 10.251.31.242:50010
081110 020102 6188 INFO dfs.DataNode$DataXceiver: Receiving block blk_-2383172738421489980 src: /10.251.202.209:45036 dest: /10.251.202.209:50010
081110 220651 32 INFO dfs.FSNamesystem: BLOCK* NameSystem.delete: blk_869061569746813106 is added to invalidSet of 10.250.7.96:50010
081110 111522 26 INFO dfs.FSNamesystem: BLOCK* NameSystem.addStoredBlock: blockMap updated: 10.251.107.196:50010 is added to blk_-4450143400014060041 size 67108864
081111 080315 33 INFO dfs.FSNamesystem: BLOCK* NameSystem.addStoredBlock: blockMap updated: 10.251.125.193:50010 is added to blk_-7191799467526632672 size 67108864
081110 152332 27 INFO dfs.FSNamesystem: BLOCK* NameSystem.addStoredBlock: blockMap updated: 10.251.107.242:50010 is added to blk_-4852865743484793142 size 67108864
081109 234952 4197 INFO dfs.DataNode$PacketResponder: Received block blk_8737521274798643643 of size 67108864 from /10.251.65.237
081110 111900 28 INFO dfs.FSNamesystem: BLOCK* NameSystem.addStoredBlock: blockMap updated: 10.251.31.160:50010 is added to blk_3979174708506489188 size 67108864
081110 112901 13 INFO dfs.DataBlockScanner: Verification succeeded for blk_4427785458983752960
081110 114002 10006 INFO dfs.DataNode$PacketResponder: PacketResponder 0 for block blk_8683418933952560485 terminating
081111 090550 25000 INFO dfs.DataNode$PacketResponder: Received block blk_1125908196796047265 of size 67108864 from /10.251.38.214
081111 025021 18137 INFO dfs.DataNode$PacketResponder: PacketResponder 1 for block blk_-1249608499788002146 terminating
081111 104709 26766 INFO dfs.DataNode$PacketResponder: Received block blk_5917793102967244907 of size 67108864 from /10.251.127.243
081110 103100 30 INFO dfs.FSNamesystem: BLOCK* NameSystem.delete: blk_6140663387241712167 is added to invalidSet of 10.251.89.155:50010
081111 084002 24615 INFO dfs.DataNode$PacketResponder: Received block blk_5623050666460913483 of size 67108864 from /10.251.38.53
081110 210604 19 INFO dfs.FSDataset: Deleting block blk_4922463712666738210 file /mnt/hadoop/dfs/data/current/subdir2/blk_4922463712666738210
081110 122558 34 INFO dfs.FSNamesystem: BLOCK* NameSystem.addStoredBlock: blockMap updated: 10.250.17.225:50010 is added to blk_-1632995113796465996 size 67108864
081111 023948 17982 INFO dfs.DataNode$PacketResponder: PacketResponder 2 for block blk_-1684895041267141295 terminating
081111 054208 30 INFO dfs.FSNamesystem: BLOCK* NameSystem.allocateBlock: /user/root/rand5/_temporary/_task_200811101024_0011_m_001848_1/part-01848. blk_2341095023951072333
081110 220944 19 INFO dfs.FSDataset: Deleting block blk_2319462177347543953 file /mnt/hadoop/dfs/data/current/subdir49/blk_2319462177347543953
081110 210120 28 INFO dfs.FSNamesystem: BLOCK* NameSystem.delete: blk_-1673967683657595444 is added to invalidSet of 10.251.66.102:50010
081110 212708 15171 INFO dfs.DataNode$PacketResponder: Received block blk_-6479647805255520799 of size 67108864 from /10.251.107.227
081111 045631 34 INFO dfs.FSNamesystem: BLOCK* NameSystem.addStoredBlock: blockMap updated: 10.251.125.237:50010 is added to blk_4199423191855321230 size 67108864
081110 014110 5835 INFO dfs.DataNode$PacketResponder: PacketResponder 1 for block blk_-7167058553990598053 terminating
081110 103521 19 INFO dfs.FSDataset: Deleting block blk_-6398971560504640772 file /mnt/hadoop/dfs/data/current/subdir5/blk_-6398971560504640772
081111 035925 26 INFO dfs.FSNamesystem: BLOCK* NameSystem.allocateBlock: /user/root/randtxt4/_temporary/_task_200811101024_0010_m_000587_0/part-00587. blk_6467864462501704022
081111 040903 15270 INFO dfs.DataNode$DataXceiver: Receiving block blk_-5730516506652215628 src: /10.251.110.68:51109 dest: /10.251.110.68:50010
081110 103342 13 INFO dfs.DataBlockScanner: Verification succeeded for blk_557472100313324361
081110 210144 28 INFO dfs.FSNamesystem: BLOCK* NameSystem.delete: blk_97800131455117432 is added to invalidSet of 10.251.203.166:50010
081111 082345 24378 INFO dfs.DataNode$DataXceiver: Receiving block blk_3176979505841123874 src: /10.251.43.210:34025 dest: /10.251.43.210:50010
081110 103504 19 INFO dfs.FSDataset: Deleting block blk_-3884866761987305354 file /mnt/hadoop/dfs/data/current/subdir63/blk_-3884866761987305354
081111 091735 19 INFO dfs.FSDataset: Deleting block blk_1275411311744847956 file /mnt/hadoop/dfs/data/current/subdir58/blk_1275411311744847956
081111 033651 27 INFO dfs.FSNamesystem: BLOCK* NameSystem.addStoredBlock: blockMap updated: 10.251.199.159:50010 is added to blk_-4499510752283616177 size 67108864
081111 064125 22263 INFO dfs.DataNode$PacketResponder: Received block blk_-9100774158485416475 of size 67108864 from /10.251.65.237
081110 214325 29 INFO dfs.FSNamesystem: BLOCK* NameSystem.addStoredBlock: blockMap updated: 10.251.123.33:50010 is added to blk_-3184616610819610096 size 67108864
081110 051505 13 INFO dfs.DataBlockScanner: Verification succeeded for blk_1057862324521310024
081110 012634 34 INFO dfs.FSNamesystem: BLOCK* NameSystem.addStoredBlock: blockMap updated: 10.250.14.224:50010 is added to blk_-9139495225347729197 size 67108864
081111 074728 28 INFO dfs.FSNamesystem: BLOCK* NameSystem.addStoredBlock: blockMap updated: 10.251.109.209:50010 is added to blk_-4690564095609041787 size 67108864
081110 014547 5888 INFO dfs.DataNode$PacketResponder: PacketResponder 0 for block blk_-6988665595165180863 terminating
081110 122834 34 INFO dfs.FSNamesystem: BLOCK* NameSystem.addStoredBlock: blockMap updated: 10.251.214.18:50010 is added to blk_-3055079926399499536 size 28501501
081111 074801 23897 INFO dfs.DataNode$PacketResponder: PacketResponder 1 for block blk_-6254494620953150545 terminating
081110 104018 30 INFO dfs.FSNamesystem: BLOCK* NameSystem.addStoredBlock: blockMap updated: 10.251.38.197:50010 is added to blk_-8038796764706408540 size 67108864
081109 205042 35 INFO dfs.FSNamesystem: BLOCK* NameSystem.addStoredBlock: blockMap updated: 10.251.30.85:50010 is added to blk_-3408476400973721369 size 67108864
081111 062107 21691 INFO dfs.DataNode$PacketResponder: PacketResponder 1 for block blk_5255625052602340144 terminating
081110 214855 15604 INFO dfs.DataNode$PacketResponder: Received block blk_3170326036255160976 of size 3540008 from /10.251.70.112
081111 092953 34 INFO dfs.FSNamesystem: BLOCK* NameSystem.addStoredBlock: blockMap updated: 10.250.5.237:50010 is added to blk_5456174321238911291 size 67108864
081111 055247 35 INFO dfs.FSNamesystem: BLOCK* NameSystem.addStoredBlock: blockMap updated: 10.251.107.19:50010 is added to blk_-4538828324849731180 size 67108864
081111 033417 33 INFO dfs.FSNamesystem: BLOCK* NameSystem.addStoredBlock: blockMap updated: 10.251.43.21:50010 is added to blk_-9052273343005225441 size 42561592
081110 145359 12705 INFO dfs.DataNode$DataXceiver: Receiving block blk_-220719176978202592 src: /10.251.214.67:37146 dest: /10.251.214.67:50010
081111 085922 27 INFO dfs.FSNamesystem: BLOCK* NameSystem.delete: blk_6965578419691765073 is added to invalidSet of 10.251.75.163:50010
081111 044441 20325 INFO dfs.DataNode$PacketResponder: Received block blk_-4811211087440219447 of size 67108864 from /10.250.5.237
081111 065458 19 INFO dfs.FSDataset: Deleting block blk_1296850640386827651 file /mnt/hadoop/dfs/data/current/subdir21/blk_1296850640386827651
081110 103913 8657 INFO dfs.DataNode$PacketResponder: Received block blk_5935254651619350854 of size 67108864 from /10.251.203.246
081111 071835 23243 INFO dfs.DataNode$DataXceiver: Receiving block blk_8885046969263402420 src: /10.251.26.131:44430 dest: /10.251.26.131:50010
081111 103223 26966 INFO dfs.DataNode$PacketResponder: PacketResponder 0 for block blk_-4217774081266536449 terminating
081111 044009 20067 INFO dfs.DataNode$PacketResponder: PacketResponder 0 for block blk_4307698919358504796 terminating
081110 220649 32 INFO dfs.FSNamesystem: BLOCK* NameSystem.delete: blk_-9083791703138145776 is added to invalidSet of 10.251.70.211:50010
081110 202819 14492 INFO dfs.DataNode$DataXceiver: 10.250.10.176:50010 Served block blk_-2530848660303339340 to /10.250.6.191
081111 044840 18568 INFO dfs.DataNode$DataXceiver: Receiving block blk_476150081059041362 src: /10.251.110.196:55272 dest: /10.251.110.196:50010
081110 081143 8209 INFO dfs.DataNode$DataXceiver: 10.251.39.242:50010 Served block blk_-1398953792177173238 to /10.251.26.131
081111 080611 26 INFO dfs.FSNamesystem: BLOCK* NameSystem.addStoredBlock: blockMap updated: 10.250.14.224:50010 is added to blk_6945430920880801862 size 67108864
081109 223234 3568 WARN dfs.DataNode$DataXceiver: 10.251.203.4:50010:Got exception while serving blk_-8879278690163427722 to /10.250.14.196:
081111 074613 23718 INFO dfs.DataNode$DataXceiver: Receiving block blk_3869947899141129696 src: /10.251.214.18:46500 dest: /10.251.214.18:50010
081111 024549 31 INFO dfs.FSNamesystem: BLOCK* NameSystem.addStoredBlock: blockMap updated: 10.251.91.84:50010 is added to blk_-5709544285323539450 size 67108864
081111 091056 25244 INFO dfs.DataNode$PacketResponder: PacketResponder 1 for block blk_5162724772063786960 terminating
081110 224527 16499 INFO dfs.DataNode$PacketResponder: PacketResponder 2 for block blk_-4465867539040973063 terminating
081111 054810 18 INFO dfs.FSDataset: Deleting block blk_6733130928797652768 file /mnt/hadoop/dfs/data/current/subdir50/blk_6733130928797652768
081110 190440 13996 WARN dfs.DataNode$DataXceiver: 10.251.215.70:50010:Got exception while serving blk_494135621832909139 to /10.251.126.5:
081111 090125 19 INFO dfs.FSDataset: Deleting block blk_-5261662875981185347 file /mnt/hadoop/dfs/data/current/subdir48/blk_-5261662875981185347
081110 122623 10924 INFO dfs.DataNode$DataXceiver: Receiving block blk_8300692397587946520 src: /10.251.31.180:36424 dest: /10.251.31.180:50010
081110 015458 5965 INFO dfs.DataNode$DataXceiver: Receiving block blk_1789022901823210756 src: /10.251.75.163:42733 dest: /10.251.75.163:50010
081110 104143 9239 INFO dfs.DataNode$PacketResponder: Received block blk_-5240320880667517680 of size 67108864 from /10.250.6.191
081111 061917 22084 INFO dfs.DataNode$PacketResponder: Received block blk_-8937985081321395909 of size 67108864 from /10.251.89.155
081110 103721 19 INFO dfs.FSDataset: Deleting block blk_5397197263849725351 file /mnt/hadoop/dfs/data/current/subdir60/blk_5397197263849725351
081110 013744 5660 INFO dfs.DataNode$DataXceiver: Receiving block blk_5372144429511181619 src: /10.250.6.223:34562 dest: /10.250.6.223:50010
081110 071022 7374 INFO dfs.DataNode$DataXceiver: 10.251.90.134:50010 Served block blk_-328887625151334418 to /10.251.90.64
081110 011647 5238 INFO dfs.DataNode$PacketResponder: PacketResponder 0 for block blk_-3276873789464439646 terminating
081111 032200 18657 INFO dfs.DataNode$DataXceiver: Receiving block blk_3165895531173571243 src: /10.251.125.174:46116 dest: /10.251.125.174:50010
081111 071358 23238 INFO dfs.DataNode$PacketResponder: Received block blk_4972492618799885498 of size 67108864 from /10.251.202.134
081109 212815 28 INFO dfs.FSNamesystem: BLOCK* NameSystem.allocateBlock: /user/root/rand/_temporary/_task_200811092030_0001_m_001731_0/part-01731. blk_-8898809572071150001
081109 212449 1975 INFO dfs.DataNode$PacketResponder: PacketResponder 0 for block blk_1322511679681857284 terminating
081111 110515 19 INFO dfs.FSDataset: Deleting block blk_-8002716419591872891 file /mnt/hadoop/dfs/data/current/subdir0/blk_-8002716419591872891
081111 044642 19 INFO dfs.FSDataset: Deleting block blk_-493337191317248369 file /mnt/hadoop/dfs/data/current/subdir59/blk_-493337191317248369
081111 065320 22561 INFO dfs.DataNode$DataXceiver: Receiving block blk_-1301174029034844180 src: /10.251.70.5:56829 dest: /10.251.70.5:50010
081111 080020 35 INFO dfs.FSNamesystem: BLOCK* NameSystem.addStoredBlock: blockMap updated: 10.251.214.130:50010 is added to blk_2319754339713887064 size 67108864
081110 114112 9863 INFO dfs.DataNode$DataXceiver: Receiving block blk_-4389508872586291862 src: /10.251.198.196:42858 dest: /10.251.198.196:50010
081110 082654 8395 WARN dfs.DataNode$DataXceiver: 10.251.199.86:50010:Got exception while serving blk_7691250428132002074 to /10.251.106.50:
081110 211412 32 INFO dfs.FSNamesystem: BLOCK* NameSystem.addStoredBlock: blockMap updated: 10.251.111.37:50010 is added to blk_-4887503308366461934 size 67108864
081110 220706 19 INFO dfs.FSDataset: Deleting block blk_2835156217724774851 file /mnt/hadoop/dfs/data/current/subdir17/blk_2835156217724774851
081110 221018 27 INFO dfs.FSNamesystem: BLOCK* NameSystem.addStoredBlock: blockMap updated: 10.251.25.237:50010 is added to blk_1342939228210008626 size 67108864
081110 210817 14552 INFO dfs.DataNode$DataXceiver: Receiving block blk_9122471748241483527 src: /10.250.15.240:35933 dest: /10.250.15.240:50010
081111 044638 26 INFO dfs.FSNamesystem: BLOCK* NameSystem.addStoredBlock: blockMap updated: 10.251.126.255:50010 is added to blk_3959016241114793227 size 67108864
081111 061759 21906 INFO dfs.DataNode$PacketResponder: Received block blk_-7608151453777806026 of size 67108864 from /10.250.13.188
081111 044308 35 INFO dfs.FSNamesystem: BLOCK* NameSystem.delete: blk_8030016829513711459 is added to invalidSet of 10.251.126.227:50010
081110 011116 5282 INFO dfs.DataNode$DataXceiver: Receiving block blk_6743843750501085438 src: /10.251.107.196:60607 dest: /10.251.107.196:50010
081110 080425 7982 INFO dfs.DataNode$DataXceiver: 10.251.107.19:50010 Served block blk_8272016400511827719 to /10.251.107.19
081111 041952 30 INFO dfs.FSNamesystem: BLOCK* NameSystem.addStoredBlock: blockMap updated: 10.251.74.192:50010 is added to blk_4275204676096812164 size 67108864
081110 103807 9116 INFO dfs.DataNode$DataXceiver: Receiving block blk_5609583282303650649 src: /10.251.42.246:54915 dest: /10.251.42.246:50010
081111 065236 34 INFO dfs.FSNamesystem: BLOCK* NameSystem.allocateBlock: /user/root/rand6/_temporary/_task_200811101024_0013_m_000020_0/part-00020. blk_-1024206658084078523
081110 210450 18 INFO dfs.FSDataset: Deleting block blk_-1241755938863939240 file /mnt/hadoop/dfs/data/current/subdir48/blk_-1241755938863939240
081111 075626 28 INFO dfs.FSNamesystem: BLOCK* NameSystem.delete: blk_-8397671903681804480 is added to invalidSet of 10.251.43.115:50010
081111 065227 26 INFO dfs.FSNamesystem: BLOCK* NameSystem.delete: blk_6595074672874784396 is added to invalidSet of 10.251.75.163:50010
081110 192314 14053 INFO dfs.DataNode$DataXceiver: 10.250.5.161:50010 Served block blk_-4450985923046323185 to /10.250.5.161
081110 020528 6108 INFO dfs.DataNode$DataXceiver: Receiving block blk_5495925871594920479 src: /10.251.214.225:58194 dest: /10.251.214.225:50010
081111 103936 27109 INFO dfs.DataNode$PacketResponder: Received block blk_-2695875004057753459 of size 67108864 from /10.251.193.175
081109 235112 4284 INFO dfs.DataNode$DataXceiver: Receiving block blk_9054604247116306577 src: /10.250.15.240:38061 dest: /10.250.15.240:50010
081111 062615 22031 INFO dfs.DataNode$DataXceiver: Receiving block blk_100716533417513857 src: /10.250.15.240:39354 dest: /10.250.15.240:50010
081110 122029 11095 INFO dfs.DataNode$PacketResponder: PacketResponder 2 for block blk_-2298629863619946276 terminating
081111 061236 32 INFO dfs.FSNamesystem: BLOCK* NameSystem.addStoredBlock: blockMap updated: 10.251.215.70:50010 is added to blk_-7639770578964878947 size 67108864
081111 110435 26 INFO dfs.FSNamesystem: BLOCK* NameSystem.delete: blk_3741706440361162991 is added to invalidSet of 10.251.109.209:50010
081110 103502 19 INFO dfs.FSDataset: Deleting block blk_-2168360237179601419 file /mnt/hadoop/dfs/data/current/subdir38/blk_-2168360237179601419
081111 061737 21996 INFO dfs.DataNode$PacketResponder: PacketResponder 1 for block blk_4221857471611170517 terminating
081111 040042 33 INFO dfs.FSNamesystem: BLOCK* NameSystem.addStoredBlock: blockMap updated: 10.250.13.240:50010 is added to blk_919870161407217878 size 67108864
081111 094850 25982 INFO dfs.DataNode$DataXceiver: Receiving block blk_2786126652145908821 src: /10.250.14.143:43597 dest: /10.250.14.143:50010
081110 103243 9083 INFO dfs.DataNode$PacketResponder: PacketResponder 2 for block blk_4490176834201745621 terminating
081111 092305 25470 INFO dfs.DataNode$PacketResponder: PacketResponder 1 for block blk_-804900471626054634 terminating
081110 111714 32 INFO dfs.FSNamesystem: BLOCK* NameSystem.addStoredBlock: blockMap updated: 10.251.122.38:50010 is added to blk_-8651047409421633262 size 67108864
081110 110746 9662 INFO dfs.DataNode$PacketResponder: PacketResponder 0 for block blk_-6662198454304949219 terminating
081110 103059 30 INFO dfs.FSNamesystem: BLOCK* NameSystem.delete: blk_4193604636626169834 is added to invalidSet of 10.251.67.113:50010
081110 130409 11568 WARN dfs.DataNode$DataXceiver: 10.251.194.147:50010:Got exception while serving blk_4597278246478047153 to /10.250.6.214:
081111 062503 22301 INFO dfs.DataNode$PacketResponder: PacketResponder 1 for block blk_-1541542647655771072 terminating
081110 124526 11266 INFO dfs.DataNode$DataXceiver: 10.251.203.4:50010 Served block blk_8038699236790802818 to /10.250.10.100
081110 115340 10227 INFO dfs.DataNode$PacketResponder: Received block blk_1693198897230711078 of size 67108864 from /10.251.67.211
081111 072804 23281 INFO dfs.DataNode$DataXceiver: Receiving block blk_3741451235587884270 src: /10.251.26.177:46545 dest: /10.251.26.177:50010
081110 120327 10822 INFO dfs.DataNode$DataXceiver: Receiving block blk_-2759827787164712053 src: /10.250.19.227:46350 dest: /10.250.19.227:50010
081111 072521 23296 INFO dfs.DataNode$PacketResponder: Received block blk_3208403040294893053 of size 67108864 from /10.251.214.67
081111 064202 22351 INFO dfs.DataNode$PacketResponder: PacketResponder 2 for block blk_7352199412588103529 terminating
081110 103507 18 INFO dfs.FSDataset: Deleting block blk_-3018347093518163461 file /mnt/hadoop/dfs/data/current/subdir26/blk_-3018347093518163461
081110 103113 30 INFO dfs.FSNamesystem: BLOCK* NameSystem.delete: blk_3742872471336812535 is added to invalidSet of 10.250.11.85:50010
081111 102003 26809 INFO dfs.DataNode$PacketResponder: Received block blk_-5265310976648884170 of size 67108864 from /10.251.107.98
081111 103436 33 INFO dfs.FSNamesystem: BLOCK* NameSystem.allocateBlock: /user/root/randtxt9/_temporary/_task_200811101024_0016_m_001285_0/part-01285. blk_3944141941324172159
081110 055521 7110 INFO dfs.DataNode$DataXceiver: 10.251.125.237:50010 Served block blk_810060086286521070 to /10.251.125.237
081110 144908 12428 INFO dfs.DataNode$PacketResponder: PacketResponder 2 for block blk_7937829051979832248 terminating
081109 203916 32 INFO dfs.FSNamesystem: BLOCK* NameSystem.addStoredBlock: blockMap updated: 10.250.14.224:50010 is added to blk_3679341084414928626 size 67108864
081109 205600 908 INFO dfs.DataNode$PacketResponder: PacketResponder 1 for block blk_-4170033558136494022 terminating
081111 025125 29 INFO dfs.FSNamesystem: BLOCK* NameSystem.addStoredBlock: blockMap updated: 10.251.74.227:50010 is added to blk_-8528910734908105496 size 67108864
081110 223405 16318 INFO dfs.DataNode$PacketResponder: Received block blk_-7473624885908192543 of size 67108864 from /10.251.65.237
081110 210550 19 INFO dfs.FSDataset: Deleting block blk_4769665434184177314 file /mnt/hadoop/dfs/data/current/subdir52/blk_4769665434184177314
081110 103042 34 INFO dfs.FSNamesystem: BLOCK* NameSystem.delete: blk_4269670488199222687 is added to invalidSet of 10.250.6.223:50010
081111 041701 19745 INFO dfs.DataNode$PacketResponder: Received block blk_7784731507743136286 of size 67108864 from /10.251.70.37
081110 113210 10028 INFO dfs.DataNode$PacketResponder: Received block blk_5263293740666645657 of size 64385883 from /10.251.42.9
081110 053335 7063 INFO dfs.DataNode$DataXceiver: 10.250.6.214:50010 Served block blk_-9103815957931158586 to /10.251.25.237
081110 103627 18 INFO dfs.FSDataset: Deleting block blk_-1527735610967180755 file /mnt/hadoop/dfs/data/current/subdir14/blk_-1527735610967180755
081111 090050 19 INFO dfs.FSDataset: Deleting block blk_-6849017720193469550 file /mnt/hadoop/dfs/data/current/subdir33/blk_-6849017720193469550
081110 210531 19 INFO dfs.FSDataset: Deleting block blk_2934180789655104008 file /mnt/hadoop/dfs/data/current/subdir48/blk_2934180789655104008
081110 103039 34 INFO dfs.FSNamesystem: BLOCK* NameSystem.delete: blk_6108793274497686510 is added to invalidSet of 10.251.215.50:50010
081111 105629 27256 INFO dfs.DataNode$PacketResponder: Received block blk_-5471830025803683969 of size 67108864 from /10.251.90.81
081111 070509 35 INFO dfs.FSNamesystem: BLOCK* NameSystem.addStoredBlock: blockMap updated: 10.251.43.210:50010 is added to blk_-4930463789323573793 size 67108864
081110 083219 8398 INFO dfs.DataNode$DataXceiver: 10.251.126.22:50010 Served block blk_1259309719614272120 to /10.251.122.38
081110 215811 15240 INFO dfs.DataNode$PacketResponder: PacketResponder 1 for block blk_7497898405362126415 terminating
081110 221018 35 INFO dfs.FSNamesystem: BLOCK* NameSystem.addStoredBlock: blockMap updated: 10.251.74.192:50010 is added to blk_-1784462430479154571 size 67108864
081110 122654 10826 INFO dfs.DataNode$PacketResponder: Received block blk_1366555263003363877 of size 67108864 from /10.251.194.129
081110 115032 33 INFO dfs.FSNamesystem: BLOCK* NameSystem.allocateBlock: /user/root/randtxt2/_temporary/_task_200811101024_0002_m_000623_0/part-00623. blk_4088763636199296974
081111 044658 19 INFO dfs.FSDataset: Deleting block blk_-391442794898347573 file /mnt/hadoop/dfs/data/current/subdir48/blk_-391442794898347573
081111 023354 19 INFO dfs.FSDataset: Deleting block blk_-5030216321001864233 file /mnt/hadoop/dfs/data/current/subdir32/blk_-5030216321001864233
081110 103048 34 INFO dfs.FSNamesystem: BLOCK* NameSystem.delete: blk_-8539642853524188180 is added to invalidSet of 10.251.202.181:50010
081110 121325 11013 INFO dfs.DataNode$PacketResponder: Received block blk_-6451847637675597709 of size 67108864 from /10.250.18.114
081111 081747 23661 INFO dfs.DataNode$PacketResponder: PacketResponder 2 for block blk_4991661129029946806 terminating
081110 114742 10479 INFO dfs.DataNode$PacketResponder: Received block blk_6830913071192052701 of size 28493828 from /10.251.75.49
081111 044815 19 INFO dfs.FSDataset: Deleting block blk_8838721156327335533 file /mnt/hadoop/dfs/data/current/subdir54/blk_8838721156327335533
081110 225832 16833 INFO dfs.DataNode$DataXceiver: Receiving block blk_3855532062365610254 src: /10.251.106.214:52080 dest: /10.251.106.214:50010
081111 034044 19205 INFO dfs.DataNode$DataXceiver: Receiving block blk_-2542622487035891461 src: /10.251.107.50:49737 dest: /10.251.107.50:50010
081110 212326 14661 INFO dfs.DataNode$PacketResponder: PacketResponder 2 for block blk_2676359632520331674 terminating
081110 060600 7277 INFO dfs.DataNode$DataXceiver: 10.250.5.237:50010 Served block blk_-7339881153781750432 to /10.251.198.33
081110 103721 9022 INFO dfs.DataNode$DataXceiver: Receiving block blk_6150043606336896402 src: /10.251.37.240:40695 dest: /10.251.37.240:50010
081110 143947 12527 INFO dfs.DataNode$PacketResponder: Received block blk_-7736743413653622635 of size 67108864 from /10.251.75.79
081110 212523 34 INFO dfs.FSNamesystem: BLOCK* NameSystem.addStoredBlock: blockMap updated: 10.251.71.16:50010 is added to blk_-8020012307015714662 size 67108864
081111 105902 30 INFO dfs.FSNamesystem: BLOCK* NameSystem.allocateBlock: /user/root/randtxt9/_temporary/_task_200811101024_0016_m_001851_0/part-01851. blk_6700063129035358703
081111 060320 21609 INFO dfs.DataNode$PacketResponder: PacketResponder 0 for block blk_1421740042545210229 terminating
081110 014915 6010 INFO dfs.DataNode$PacketResponder: Received block blk_-8619163366882776610 of size 28491667 from /10.251.39.209
081110 210500 19 INFO dfs.FSDataset: Deleting block blk_-3989514674900804361 file /mnt/hadoop/dfs/data/current/subdir53/blk_-3989514674900804361
081110 103148 30 INFO dfs.FSNamesystem: BLOCK* NameSystem.delete: blk_2494509946574850736 is added to invalidSet of 10.251.203.80:50010
081111 105956 34 INFO dfs.FSNamesystem: BLOCK* NameSystem.addStoredBlock: blockMap updated: 10.251.74.227:50010 is added to blk_8118634422280062052 size 3545384
081110 222547 16127 INFO dfs.DataNode$PacketResponder: PacketResponder 1 for block blk_897661378721517245 terminating
081109 203930 27 INFO dfs.FSNamesystem: BLOCK* NameSystem.addStoredBlock: blockMap updated: 10.251.42.84:50010 is added to blk_-7811537039710052481 size 67108864
081109 234019 32 INFO dfs.FSNamesystem: BLOCK* NameSystem.allocateBlock: /user/root/sortrand/_temporary/_task_200811092030_0002_r_000271_0/part-00271. blk_4620467189699922320
081111 084229 24914 INFO dfs.DataNode$DataXceiver: Receiving block blk_-4633058094806362317 src: /10.251.67.225:36713 dest: /10.251.67.225:50010
081111 085920 27 INFO dfs.FSNamesystem: BLOCK* NameSystem.delete: blk_7107425449141862696 is added to invalidSet of 10.251.71.68:50010
081110 225225 35 INFO dfs.FSNamesystem: BLOCK* NameSystem.addStoredBlock: blockMap updated: 10.251.26.131:50010 is added to blk_8312232229503660916 size 67108864
081111 102727 33 INFO dfs.FSNamesystem: BLOCK* NameSystem.allocateBlock: /user/root/randtxt9/_temporary/_task_200811101024_0016_m_001153_0/part-01153. blk_7448360037034536160
081111 075841 19 INFO dfs.FSDataset: Deleting block blk_-4406533538785973221 file /mnt/hadoop/dfs/data/current/subdir19/blk_-4406533538785973221
081111 081448 29 INFO dfs.FSNamesystem: BLOCK* NameSystem.addStoredBlock: blockMap updated: 10.251.30.179:50010 is added to blk_2841252844366240675 size 67108864
081110 104600 9188 INFO dfs.DataNode$PacketResponder: PacketResponder 0 for block blk_3076992299328673559 terminating
081111 110548 19 INFO dfs.FSDataset: Deleting block blk_-2186844704456573154 file /mnt/hadoop/dfs/data/current/subdir37/blk_-2186844704456573154
081111 092510 25623 INFO dfs.DataNode$DataXceiver: Receiving block blk_333551278215184362 src: /10.251.127.243:56383 dest: /10.251.127.243:50010
081111 101336 28 INFO dfs.FSNamesystem: BLOCK* NameSystem.addStoredBlock: blockMap updated: 10.251.199.225:50010 is added to blk_7191896521066878272 size 67108864
081111 101618 26586 INFO dfs.DataNode$PacketResponder: PacketResponder 1 for block blk_8096893464111432941 terminating
081111 065206 26 INFO dfs.FSNamesystem: BLOCK* NameSystem.delete: blk_92528904966382832 is added to invalidSet of 10.250.17.225:50010
081109 213533 2412 INFO dfs.DataNode$PacketResponder: Received block blk_-7885578632457030803 of size 3542770 from /10.251.106.10
081110 221755 15854 INFO dfs.DataNode$PacketResponder: Received block blk_8466917448813252830 of size 67108864 from /10.251.42.207
081111 044345 29 INFO dfs.FSNamesystem: BLOCK* NameSystem.delete: blk_5426012314181985311 is added to invalidSet of 10.251.30.6:50010
081110 175631 13941 WARN dfs.DataNode$DataXceiver: 10.251.127.191:50010:Got exception while serving blk_5933789173892620031 to /10.251.74.192:
081110 103720 19 INFO dfs.FSDataset: Deleting block blk_5397514521175464563 file /mnt/hadoop/dfs/data/current/subdir16/blk_5397514521175464563
081111 024710 18029 INFO dfs.DataNode$PacketResponder: Received block blk_-7942646294669252747 of size 67108864 from /10.251.126.22
081109 212248 26 INFO dfs.FSNamesystem: BLOCK* NameSystem.addStoredBlock: blockMap updated: 10.251.70.37:50010 is added to blk_5652213377827469145 size 67108864
081110 150458 12777 INFO dfs.DataNode$PacketResponder: Received block blk_-2491363243888830580 of size 67108864 from /10.251.203.4
081111 072040 22705 INFO dfs.DataNode$PacketResponder: Received block blk_6821256852519707680 of size 67108864 from /10.250.6.223
081111 102810 26472 INFO dfs.DataNode$PacketResponder: Received block blk_8055618528074613719 of size 67108864 from /10.250.11.85
081111 085906 27 INFO dfs.FSNamesystem: BLOCK* NameSystem.delete: blk_-4468054792539734639 is added to invalidSet of 10.251.203.246:50010
081110 143749 30 INFO dfs.FSNamesystem: BLOCK* NameSystem.addStoredBlock: blockMap updated: 10.251.125.193:50010 is added to blk_8717587742619708988 size 67108864
081110 004452 4942 INFO dfs.DataNode$PacketResponder: Received block blk_-6731996496697856081 of size 67108864 from /10.251.42.9
081111 044844 19 INFO dfs.FSDataset: Deleting block blk_8361852323041704101 file /mnt/hadoop/dfs/data/current/subdir8/blk_8361852323041704101
081111 044644 19 INFO dfs.FSDataset: Deleting block blk_-2881844858135138589 file /mnt/hadoop/dfs/data/current/subdir45/blk_-2881844858135138589
081111 044709 19 INFO dfs.FSDataset: Deleting block blk_-4478883699551047618 file /mnt/hadoop/dfs/data/current/subdir3/blk_-4478883699551047618
081109 221202 3431 INFO dfs.DataNode$DataXceiver: 10.251.31.85:50010 Served block blk_-6618525311709425185 to /10.251.203.4
081110 220646 32 INFO dfs.FSNamesystem: BLOCK* NameSystem.delete: blk_3058907152835944076 is added to invalidSet of 10.251.39.209:50010
081111 104245 26984 INFO dfs.DataNode$DataXceiver: Receiving block blk_-4092729190506320397 src: /10.251.194.147:34331 dest: /10.251.194.147:50010
081111 030659 30 INFO dfs.FSNamesystem: BLOCK* NameSystem.addStoredBlock: blockMap updated: 10.251.43.115:50010 is added to blk_-8204815686670639451 size 67108864
081111 044319 35 INFO dfs.FSNamesystem: BLOCK* NameSystem.delete: blk_2293483050311588414 is added to invalidSet of 10.251.107.50:50010
081109 213513 31 INFO dfs.FSNamesystem: BLOCK* NameSystem.addStoredBlock: blockMap updated: 10.250.13.188:50010 is added to blk_-5610808583023217542 size 67108864
081111 110445 26 INFO dfs.FSNamesystem: BLOCK* NameSystem.delete: blk_2327984097159170570 is added to invalidSet of 10.251.215.50:50010
081110 103529 19 INFO dfs.FSDataset: Deleting block blk_-7010628164978241103 file /mnt/hadoop/dfs/data/current/subdir53/blk_-7010628164978241103
081110 210448 14621 INFO dfs.DataNode$PacketResponder: Received block blk_-2456170149650110379 of size 67108864 from /10.251.127.243
081110 020720 27 INFO dfs.FSNamesystem: BLOCK* NameSystem.delete: blk_68762382768712204 is added to invalidSet of 10.251.195.70:50010
081109 204026 13 INFO dfs.DataBlockScanner: Verification succeeded for blk_7340860866556817481
081111 033343 18823 INFO dfs.DataNode$PacketResponder: PacketResponder 0 for block blk_-8292928601607818484 terminating
081110 212610 27 INFO dfs.FSNamesystem: BLOCK* NameSystem.addStoredBlock: blockMap updated: 10.251.123.20:50010 is added to blk_1607305747235941227 size 67108864
081110 230633 16950 INFO dfs.DataNode$PacketResponder: PacketResponder 2 for block blk_-2780430942193691496 terminating
081109 214731 2800 WARN dfs.DataNode$DataXceiver: 10.251.199.225:50010:Got exception while serving blk_-6920587680575966964 to /10.250.7.146:
081110 131007 11645 WARN dfs.DataNode$DataXceiver: 10.251.125.174:50010:Got exception while serving blk_-1440187515017431535 to /10.251.195.33:
081111 070506 22715 INFO dfs.DataNode$DataTransfer: 10.251.74.79:50010:Transmitted block blk_-4596678555299691657 to /10.251.203.166:50010
081111 052516 20750 INFO dfs.DataNode$PacketResponder: Received block blk_4218497737929629808 of size 67108864 from /10.250.6.191
081110 221941 19 INFO dfs.DataNode: 10.251.199.245:50010 Starting thread to transfer block blk_-2526833798441848968 to 10.251.203.4:50010
081111 032844 18582 INFO dfs.DataNode$DataXceiver: Receiving block blk_-5841948400652038792 src: /10.251.30.6:60764 dest: /10.251.30.6:50010
081111 034338 30 INFO dfs.FSNamesystem: BLOCK* NameSystem.addStoredBlock: blockMap updated: 10.251.123.99:50010 is added to blk_6347119366249434466 size 67108864
081110 083021 13 INFO dfs.DataBlockScanner: Verification succeeded for blk_5267901352151270776
081111 110438 26 INFO dfs.FSNamesystem: BLOCK* NameSystem.delete: blk_-5401597021402620030 is added to invalidSet of 10.251.107.98:50010
081110 000334 4570 INFO dfs.DataNode$DataXceiver: Receiving block blk_-6914613668305813420 src: /10.251.43.115:43867 dest: /10.251.43.115:50010
081111 043435 35 INFO dfs.FSNamesystem: BLOCK* NameSystem.addStoredBlock: blockMap updated: 10.251.71.146:50010 is added to blk_-4833079360053067806 size 67108864
081110 130434 11840 INFO dfs.DataNode$DataXceiver: 10.251.90.81:50010 Served block blk_4138708870420579462 to /10.251.111.228
081111 053653 34 INFO dfs.FSNamesystem: BLOCK* NameSystem.addStoredBlock: blockMap updated: 10.251.106.10:50010 is added to blk_5632796766394630827 size 67108864
081109 234419 4110 INFO dfs.DataNode$PacketResponder: Received block blk_-3191905254772713106 of size 67108864 from /10.251.106.214
081109 211826 1787 INFO dfs.DataNode$DataXceiver: Receiving block blk_2700937300059676870 src: /10.251.126.227:49965 dest: /10.251.126.227:50010
081111 095032 25659 INFO dfs.DataNode$PacketResponder: Received block blk_7911066790996707782 of size 67108864 from /10.251.198.196
081110 065856 7458 WARN dfs.DataNode$DataXceiver: 10.251.127.191:50010:Got exception while serving blk_6930483407549311702 to /10.251.215.192:
081110 150816 12982 INFO dfs.DataNode$PacketResponder: Received block blk_-7794859199096595091 of size 67108864 from /10.251.107.196
081109 233951 4079 INFO dfs.DataNode$PacketResponder: PacketResponder 1 for block blk_530470024781888950 terminating
081110 014611 5947 INFO dfs.DataNode$DataXceiver: Receiving block blk_5321207550003771823 src: /10.251.106.50:46073 dest: /10.251.106.50:50010
081111 053635 21247 INFO dfs.DataNode$DataXceiver: Receiving block blk_-2419838181470717483 src: /10.251.201.204:41193 dest: /10.251.201.204:50010
081111 075813 18 INFO dfs.FSDataset: Deleting block blk_-6771749970667879753 file /mnt/hadoop/dfs/data/current/subdir5/blk_-6771749970667879753
081111 065322 22214 INFO dfs.DataNode$PacketResponder: Received block blk_8433992833423941042 of size 67108864 from /10.251.202.134
081111 044318 35 INFO dfs.FSNamesystem: BLOCK* NameSystem.delete: blk_1683095828424430385 is added to invalidSet of 10.251.70.211:50010
081111 083528 24751 INFO dfs.DataNode$PacketResponder: PacketResponder 2 for block blk_5020716991781918776 terminating
081111 023026 27 INFO dfs.FSNamesystem: BLOCK* NameSystem.delete: blk_3570330719666461833 is added to invalidSet of 10.251.214.67:50010
081111 100243 20334 INFO dfs.DataNode$PacketResponder: PacketResponder 2 for block blk_8661789765746028324 terminating
081110 120713 27 INFO dfs.FSNamesystem: BLOCK* NameSystem.allocateBlock: /user/root/randtxt2/_temporary/_task_200811101024_0002_m_000840_0/part-00840. blk_-8139468971477085411
081111 080048 30 INFO dfs.FSNamesystem: BLOCK* NameSystem.addStoredBlock: blockMap updated: 10.251.111.228:50010 is added to blk_3461074292307602043 size 67108864
081110 220014 15609 INFO dfs.DataNode$PacketResponder: PacketResponder 1 for block blk_6922610086314137917 terminating
081110 010151 19 INFO dfs.FSDataset: Deleting block blk_2442450182676435918 file /mnt/hadoop/dfs/data/current/subdir22/blk_2442450182676435918
081111 044253 34 INFO dfs.FSNamesystem: BLOCK* NameSystem.delete: blk_-6554863197474365486 is added to invalidSet of 10.251.37.240:50010
081111 090558 25176 INFO dfs.DataNode$PacketResponder: Received block blk_-5111918074477911829 of size 67108864 from /10.251.43.147
081111 044315 35 INFO dfs.FSNamesystem: BLOCK* NameSystem.delete: blk_-1753745163079904981 is added to invalidSet of 10.250.9.207:50010
081110 103901 8992 INFO dfs.DataNode$DataXceiver: Receiving block blk_3247872239017532193 src: /10.250.15.67:51616 dest: /10.250.15.67:50010
081111 053152 26 INFO dfs.FSNamesystem: BLOCK* NameSystem.addStoredBlock: blockMap updated: 10.251.202.209:50010 is added to blk_8163909622681262940 size 67108864
081111 090049 19 INFO dfs.FSDataset: Deleting block blk_-6765276938335286933 file /mnt/hadoop/dfs/data/current/subdir12/blk_-6765276938335286933
081111 025254 18028 INFO dfs.DataNode$DataXceiver: Receiving block blk_-384514101963170704 src: /10.251.111.37:40180 dest: /10.251.111.37:50010
081111 024522 17726 INFO dfs.DataNode$DataXceiver: Receiving block blk_5146808098626525498 src: /10.251.67.113:55697 dest: /10.251.67.113:50010
081111 044323 35 INFO dfs.FSNamesystem: BLOCK* NameSystem.delete: blk_470333383809399113 is added to invalidSet of 10.251.31.180:50010
081111 072640 23149 INFO dfs.DataNode$DataXceiver: Receiving block blk_7151931450907439272 src: /10.251.71.97:46868 dest: /10.251.71.97:50010
081111 015354 17297 INFO dfs.DataNode$DataXceiver: 10.251.106.214:50010 Served block blk_-7167801777521363245 to /10.251.39.160
081110 150822 32 INFO dfs.FSNamesystem: BLOCK* NameSystem.addStoredBlock: blockMap updated: 10.251.215.50:50010 is added to blk_-5350669757449145796 size 67108864
081111 065902 22455 INFO dfs.DataNode$PacketResponder: PacketResponder 1 for block blk_5062978447552830875 terminating
081110 103051 34 INFO dfs.FSNamesystem: BLOCK* NameSystem.delete: blk_-3442294447974423897 is added to invalidSet of 10.251.126.83:50010
081111 034515 19288 INFO dfs.DataNode$PacketResponder: Received block blk_-2052315103814916910 of size 67108864 from /10.251.194.102
081110 210516 19 INFO dfs.FSDataset: Deleting block blk_-4422905744489365821 file /mnt/hadoop/dfs/data/current/subdir11/blk_-4422905744489365821
081111 062536 28 INFO dfs.FSNamesystem: BLOCK* NameSystem.addStoredBlock: blockMap updated: 10.251.42.191:50010 is added to blk_-322068908434560553 size 67108864
081111 104327 27171 INFO dfs.DataNode$PacketResponder: Received block blk_-3320411449024256449 of size 67108864 from /10.251.25.237
081111 085940 30 INFO dfs.FSNamesystem: BLOCK* NameSystem.allocateBlock: /user/root/rand8/_temporary/_task_200811101024_0015_m_000039_0/part-00039. blk_6559996951502537088
081110 131938 11838 WARN dfs.DataNode$DataXceiver: 10.251.74.79:50010:Got exception while serving blk_6803198723871827606 to /10.251.215.70:
081111 033359 19180 INFO dfs.DataNode$PacketResponder: PacketResponder 1 for block blk_-2041103799080799047 terminating
081110 081221 8204 INFO dfs.DataNode$DataXceiver: 10.251.42.84:50010 Served block blk_9079870158873498881 to /10.251.42.84
081110 110010 9471 INFO dfs.DataNode$PacketResponder: PacketResponder 2 for block blk_7517453370794981987 terminating
081111 084445 24772 INFO dfs.DataNode$DataXceiver: Receiving block blk_-743967946741569866 src: /10.250.6.191:42612 dest: /10.250.6.191:50010
081110 214027 15216 INFO dfs.DataNode$DataXceiver: Receiving block blk_8679232316036833446 src: /10.251.125.174:49537 dest: /10.251.125.174:50010
081110 230849 16938 INFO dfs.DataNode$DataXceiver: Receiving block blk_-8379634484980784719 src: /10.251.43.210:33998 dest: /10.251.43.210:50010
081110 103134 30 INFO dfs.FSNamesystem: BLOCK* NameSystem.delete: blk_6933295903623236240 is added to invalidSet of 10.251.214.112:50010
081111 041525 19901 INFO dfs.DataNode$DataXceiver: Receiving block blk_502903817987637488 src: /10.251.66.192:59891 dest: /10.251.66.192:50010
081111 093052 25520 INFO dfs.DataNode$DataXceiver: Receiving block blk_-3636603927136239066 src: /10.251.111.228:33690 dest: /10.251.111.228:50010
081111 041709 19696 INFO dfs.DataNode$PacketResponder: Received block blk_5475583710322882049 of size 67108864 from /10.250.7.244
081110 151158 13226 INFO dfs.DataNode$PacketResponder: Received block blk_-682243498591039068 of size 67108864 from /10.251.199.159
081111 034511 18619 INFO dfs.DataNode$PacketResponder: PacketResponder 1 for block blk_880334488193349454 terminating
081109 234046 26 INFO dfs.FSNamesystem: BLOCK* NameSystem.allocateBlock: /user/root/sortrand/_temporary/_task_200811092030_0002_r_000332_0/part-00332. blk_-4066260151887027493
081110 182932 13 INFO dfs.DataBlockScanner: Verification succeeded for blk_-7377988338125973783
081110 015421 28 INFO dfs.FSNamesystem: BLOCK* NameSystem.addStoredBlock: blockMap updated: 10.251.31.242:50010 is added to blk_4887253150757949502 size 67108864
081111 071735 26 INFO dfs.FSNamesystem: BLOCK* NameSystem.addStoredBlock: blockMap updated: 10.250.10.213:50010 is added to blk_-6453672848703116978 size 67108864
081109 224500 3573 WARN dfs.DataNode$DataXceiver: 10.251.107.227:50010:Got exception while serving blk_1099357804756486459 to /10.251.202.134:
081111 103558 26817 INFO dfs.DataNode$PacketResponder: PacketResponder 1 for block blk_6346823408090762021 terminating
081111 104255 34 INFO dfs.FSNamesystem: BLOCK* NameSystem.addStoredBlock: blockMap updated: 10.250.17.225:50010 is added to blk_-1203116203691583026 size 67108864
081109 234421 33 INFO dfs.FSNamesystem: BLOCK* NameSystem.addStoredBlock: blockMap updated: 10.251.107.227:50010 is added to blk_6378036084079114007 size 67108864
081111 073242 23582 INFO dfs.DataNode$DataXceiver: Receiving block blk_5648385377123542000 src: /10.251.198.33:38173 dest: /10.251.198.33:50010
081110 062009 7175 INFO dfs.DataNode$DataXceiver: 10.250.7.244:50010 Served block blk_5305121466530871858 to /10.250.7.244
081111 045911 20802 INFO dfs.DataNode$PacketResponder: PacketResponder 2 for block blk_6687496162461909504 terminating
081111 044738 19 INFO dfs.FSDataset: Deleting block blk_3744190554026263678 file /mnt/hadoop/dfs/data/current/subdir24/blk_3744190554026263678
081110 210139 28 INFO dfs.FSNamesystem: BLOCK* NameSystem.delete: blk_-8873896542504486930 is added to invalidSet of 10.251.109.209:50010
081111 110529 19 INFO dfs.FSDataset: Deleting block blk_-5062984556538363037 file /mnt/hadoop/dfs/data/current/subdir31/blk_-5062984556538363037
081109 235508 13 INFO dfs.DataBlockScanner: Verification succeeded for blk_176392169229734343
081111 063244 21752 INFO dfs.DataNode$DataXceiver: Receiving block blk_-6513299285879571891 src: /10.251.75.79:46512 dest: /10.251.75.79:50010
081111 102832 26430 INFO dfs.DataNode$PacketResponder: Received block blk_-3290702873477100926 of size 67108864 from /10.251.107.196
081110 015637 6041 INFO dfs.DataNode$PacketResponder: Received block blk_1298280949608768666 of size 67108864 from /10.251.71.16
081110 210559 19 INFO dfs.FSDataset: Deleting block blk_7652573814896400602 file /mnt/hadoop/dfs/data/current/subdir46/blk_7652573814896400602
081110 225929 16740 INFO dfs.DataNode$DataXceiver: Receiving block blk_1456541389929202213 src: /10.251.31.5:59836 dest: /10.251.31.5:50010
081110 210115 28 INFO dfs.FSNamesystem: BLOCK* NameSystem.delete: blk_216622973123702833 is added to invalidSet of 10.251.194.102:50010
081111 065513 19 INFO dfs.FSDataset: Deleting block blk_-1045147924852939545 file /mnt/hadoop/dfs/data/current/subdir21/blk_-1045147924852939545
081110 212628 14883 INFO dfs.DataNode$PacketResponder: Received block blk_-2852149473687524166 of size 67108864 from /10.250.19.227
081109 233633 3993 INFO dfs.DataNode$DataXceiver: Receiving block blk_-5165124697812535005 src: /10.251.193.175:39969 dest: /10.251.193.175:50010
081110 164230 13606 WARN dfs.DataNode$DataXceiver: 10.251.126.227:50010:Got exception while serving blk_4573025602556077440 to /10.251.39.144:
081110 120554 30 INFO dfs.FSNamesystem: BLOCK* NameSystem.addStoredBlock: blockMap updated: 10.250.17.177:50010 is added to blk_-230071096649154541 size 67108864
081110 215844 32 INFO dfs.FSNamesystem: BLOCK* NameSystem.addStoredBlock: blockMap updated: 10.250.17.225:50010 is added to blk_-6732664136588365622 size 67108864
081110 225348 16565 INFO dfs.DataNode$DataXceiver: Receiving block blk_8245018472614135926 src: /10.250.13.188:57795 dest: /10.250.13.188:50010
081109 210744 1343 INFO dfs.DataNode$DataXceiver: Receiving block blk_4328497355832666634 src: /10.251.30.85:53138 dest: /10.251.30.85:50010
081111 031659 18618 INFO dfs.DataNode$DataXceiver: Receiving block blk_7048114122003867303 src: /10.251.195.33:59263 dest: /10.251.195.33:50010
081111 100205 19 INFO dfs.FSDataset: Deleting block blk_2308617941116159996 file /mnt/hadoop/dfs/data/current/subdir44/blk_2308617941116159996
081110 222904 16196 INFO dfs.DataNode$DataXceiver: Receiving block blk_3492727752714267466 src: /10.251.42.191:36430 dest: /10.251.42.191:50010
081111 075922 19 INFO dfs.FSDataset: Deleting block blk_8166137636213756641 file /mnt/hadoop/dfs/data/current/blk_8166137636213756641
081110 103857 19 INFO dfs.FSDataset: Deleting block blk_6855962037289766797 file /mnt/hadoop/dfs/data/current/subdir35/blk_6855962037289766797
081111 093114 25750 INFO dfs.DataNode$DataXceiver: Receiving block blk_-266054807594729236 src: /10.251.39.179:43760 dest: /10.251.39.179:50010
081110 210117 28 INFO dfs.FSNamesystem: BLOCK* NameSystem.delete: blk_4606498404914216517 is added to invalidSet of 10.251.42.246:50010
081111 060255 21636 INFO dfs.DataNode$PacketResponder: PacketResponder 1 for block blk_-3961732986102823656 terminating
081110 124622 11376 WARN dfs.DataNode$DataXceiver: 10.251.194.147:50010:Got exception while serving blk_-4912793223987906942 to /10.251.70.5:
081111 100226 26342 INFO dfs.DataNode$PacketResponder: PacketResponder 2 for block blk_3401721570126204517 terminating
081111 024451 17695 INFO dfs.DataNode$PacketResponder: Received block blk_7962313829635560375 of size 67108864 from /10.251.67.113
081110 103127 30 INFO dfs.FSNamesystem: BLOCK* NameSystem.delete: blk_5600506435445415931 is added to invalidSet of 10.251.195.33:50010
081111 045221 26 INFO dfs.FSNamesystem: BLOCK* NameSystem.addStoredBlock: blockMap updated: 10.251.125.193:50010 is added to blk_8858987093262920856 size 67108864
081110 105754 35 INFO dfs.FSNamesystem: BLOCK* NameSystem.addStoredBlock: blockMap updated: 10.251.202.209:50010 is added to blk_6248539107405584431 size 67108864
081110 014520 5822 INFO dfs.DataNode$DataXceiver: Receiving block blk_-5313034335256048214 src: /10.251.75.49:43185 dest: /10.251.75.49:50010
081111 052625 20930 INFO dfs.DataNode$PacketResponder: PacketResponder 1 for block blk_-7614916448005498659 terminating
081110 150254 12926 INFO dfs.DataNode$PacketResponder: Received block blk_-5989540879230449022 of size 67108864 from /10.251.123.195
081111 073323 23329 INFO dfs.DataNode$DataXceiver: Receiving block blk_-230450015471375386 src: /10.251.110.8:41378 dest: /10.251.110.8:50010
081111 090440 25154 INFO dfs.DataNode$DataXceiver: Receiving block blk_6914617612944544845 src: /10.251.75.228:34401 dest: /10.251.75.228:50010
081110 144205 33 INFO dfs.FSNamesystem: BLOCK* NameSystem.addStoredBlock: blockMap updated: 10.251.70.112:50010 is added to blk_-3998513840991096893 size 67108864
081111 044812 19 INFO dfs.FSDataset: Deleting block blk_3877175548629859144 file /mnt/hadoop/dfs/data/current/subdir44/blk_3877175548629859144
081110 210456 19 INFO dfs.FSDataset: Deleting block blk_-2385421174729383232 file /mnt/hadoop/dfs/data/current/subdir39/blk_-2385421174729383232
081111 040341 33 INFO dfs.FSNamesystem: BLOCK* NameSystem.addStoredBlock: blockMap updated: 10.251.42.84:50010 is added to blk_1061393900331670856 size 67108864
081111 063405 22627 INFO dfs.DataNode$PacketResponder: PacketResponder 1 for block blk_8418658680184653749 terminating
081111 083328 24379 INFO dfs.DataNode$PacketResponder: PacketResponder 1 for block blk_799783324310072697 terminating
081111 071336 28 INFO dfs.FSNamesystem: BLOCK* NameSystem.allocateBlock: /user/root/rand6/_temporary/_task_200811101024_0013_m_000604_0/part-00604. blk_-3035754690612572174
081111 031159 29 INFO dfs.FSNamesystem: BLOCK* NameSystem.allocateBlock: /user/root/rand4/_temporary/_task_200811101024_0009_m_001216_0/part-01216. blk_3473340062917689288
081111 083224 23812 INFO dfs.DataNode$PacketResponder: Received block blk_9214096281877960734 of size 67108864 from /10.250.5.161
081111 045351 20277 INFO dfs.DataNode$PacketResponder: Received block blk_3250729056660362411 of size 67108864 from /10.250.5.161
081111 043701 35 INFO dfs.FSNamesystem: BLOCK* NameSystem.addStoredBlock: blockMap updated: 10.250.11.85:50010 is added to blk_-9073306366032844151 size 67108864
081110 152423 34 INFO dfs.FSNamesystem: BLOCK* NameSystem.addStoredBlock: blockMap updated: 10.251.203.129:50010 is added to blk_-5992964382341384710 size 67108864
081110 120059 10680 INFO dfs.DataNode$PacketResponder: Received block blk_828681026576015040 of size 67108864 from /10.250.10.144
081111 053421 31 INFO dfs.FSNamesystem: BLOCK* NameSystem.addStoredBlock: blockMap updated: 10.250.14.196:50010 is added to blk_5433548935800986383 size 67108864
081110 212826 14865 INFO dfs.DataNode$PacketResponder: PacketResponder 1 for block blk_6363537869705809215 terminating
081111 085139 25025 INFO dfs.DataNode$PacketResponder: PacketResponder 2 for block blk_-2183366762427272440 terminating
081110 220638 32 INFO dfs.FSNamesystem: BLOCK* NameSystem.delete: blk_2525815524475764291 is added to invalidSet of 10.251.91.159:50010
081111 083134 24354 INFO dfs.DataNode$DataXceiver: Receiving block blk_-349786180725472917 src: /10.251.126.255:55106 dest: /10.251.126.255:50010
081110 110841 9498 INFO dfs.DataNode$DataXceiver: Receiving block blk_-3659684057814230852 src: /10.251.29.239:46633 dest: /10.251.29.239:50010
081110 210428 14654 INFO dfs.DataNode$PacketResponder: Received block blk_8518538034186135421 of size 67108864 from /10.251.203.166
081110 011420 5185 INFO dfs.DataNode$PacketResponder: PacketResponder 1 for block blk_-8993675850133885007 terminating
081110 213910 15364 INFO dfs.DataNode$PacketResponder: Received block blk_-204499234139069600 of size 3545756 from /10.251.66.102
081110 220643 32 INFO dfs.FSNamesystem: BLOCK* NameSystem.delete: blk_7265072579554864608 is added to invalidSet of 10.251.123.33:50010
081110 065834 7364 INFO dfs.DataNode$DataXceiver: 10.251.110.8:50010 Served block blk_-3823496251448742065 to /10.251.110.8
081110 220838 19 INFO dfs.FSDataset: Deleting block blk_-4821172850796727762 file /mnt/hadoop/dfs/data/current/subdir24/blk_-4821172850796727762
081109 235408 4379 INFO dfs.DataNode$PacketResponder: Received block blk_-8018054394832155516 of size 67108864 from /10.251.39.64
081109 205353 824 INFO dfs.DataNode$PacketResponder: PacketResponder 1 for block blk_-6897620271421689210 terminating
081111 074357 23466 INFO dfs.DataNode$DataXceiver: Receiving block blk_8350264503540168489 src: /10.251.43.21:55021 dest: /10.251.43.21:50010
081110 054619 7156 WARN dfs.DataNode$DataXceiver: 10.251.71.193:50010:Got exception while serving blk_-8513442635741617811 to /10.251.107.227:
081111 023136 19 INFO dfs.FSDataset: Deleting block blk_-8428316652256178275 file /mnt/hadoop/dfs/data/current/subdir16/blk_-8428316652256178275
081111 080959 24252 INFO dfs.DataNode$DataXceiver: Receiving block blk_-9181633633574515713 src: /10.251.195.33:42249 dest: /10.251.195.33:50010
081111 074847 26 INFO dfs.FSNamesystem: BLOCK* NameSystem.addStoredBlock: blockMap updated: 10.251.70.37:50010 is added to blk_-393102296855304517 size 67108864
081111 022408 17631 WARN dfs.DataNode$DataXceiver: 10.251.199.150:50010:Got exception while serving blk_-298226122516797266 to /10.251.75.49:
081110 210200 28 INFO dfs.FSNamesystem: BLOCK* NameSystem.delete: blk_-4760858933787615878 is added to invalidSet of 10.251.107.50:50010
081111 042754 19885 INFO dfs.DataNode$DataXceiver: Receiving block blk_2464783212143095233 src: /10.251.194.213:56222 dest: /10.251.194.213:50010
081111 044326 19 INFO dfs.FSDataset: Deleting block blk_7685202354333508687 file /mnt/hadoop/dfs/data/current/subdir31/blk_7685202354333508687
081111 032746 18207 INFO dfs.DataNode$DataXceiver: Receiving block blk_-2817196220105838140 src: /10.251.91.32:50976 dest: /10.251.91.32:50010
081110 015345 26 INFO dfs.FSNamesystem: BLOCK* NameSystem.allocateBlock: /user/root/randtxt/_temporary/_task_200811092030_0003_m_001739_0/part-01739. blk_6444454253280385002
081111 075739 23824 INFO dfs.DataNode$PacketResponder: Received block blk_2895858096129626390 of size 67108864 from /10.250.17.225
081110 212911 14575 INFO dfs.DataNode$PacketResponder: PacketResponder 1 for block blk_5327294122945255149 terminating
081111 071238 35 INFO dfs.FSNamesystem: BLOCK* NameSystem.addStoredBlock: blockMap updated: 10.251.106.214:50010 is added to blk_2521483181569498059 size 67108864
081111 044313 35 INFO dfs.FSNamesystem: BLOCK* NameSystem.delete: blk_-1649943708315449228 is added to invalidSet of 10.250.15.240:50010
081111 104857 27180 INFO dfs.DataNode$PacketResponder: Received block blk_-8475625593321069095 of size 67108864 from /10.250.13.240
081111 095053 26105 INFO dfs.DataNode$DataXceiver: Receiving block blk_-227008877147018032 src: /10.251.38.197:41933 dest: /10.251.38.197:50010
081111 044306 35 INFO dfs.FSNamesystem: BLOCK* NameSystem.delete: blk_-7279174400831125543 is added to invalidSet of 10.251.106.10:50010
081110 222028 16117 INFO dfs.DataNode$DataXceiver: Receiving block blk_6746891125794511327 src: /10.251.30.85:37543 dest: /10.251.30.85:50010
081110 211205 29 INFO dfs.FSNamesystem: BLOCK* NameSystem.addStoredBlock: blockMap updated: 10.250.11.85:50010 is added to blk_6730848463245292204 size 67108864
081111 075904 19 INFO dfs.FSDataset: Deleting block blk_1576813902095826855 file /mnt/hadoop/dfs/data/current/subdir34/blk_1576813902095826855
081110 120434 30 INFO dfs.FSNamesystem: BLOCK* NameSystem.allocateBlock: /user/root/randtxt2/_temporary/_task_200811101024_0002_m_001142_0/part-01142. blk_-4844542908599839050
081111 050251 20851 INFO dfs.DataNode$PacketResponder: Received block blk_-4695674722559288329 of size 67108864 from /10.251.215.192
081111 045921 20522 INFO dfs.DataNode$PacketResponder: Received block blk_-6262299520467930279 of size 67108864 from /10.251.121.224
081110 015049 35 INFO dfs.FSNamesystem: BLOCK* NameSystem.addStoredBlock: blockMap updated: 10.250.13.188:50010 is added to blk_-2562502925890832267 size 67108864
081110 230136 16882 INFO dfs.DataNode$DataXceiver: Receiving block blk_2767423268106776456 src: /10.251.109.236:42390 dest: /10.251.109.236:50010
081111 065600 22809 INFO dfs.DataNode$DataXceiver: Receiving block blk_7163587496249010810 src: /10.251.91.32:52985 dest: /10.251.91.32:50010
081111 061359 22036 INFO dfs.DataNode$PacketResponder: PacketResponder 2 for block blk_7629007967953027393 terminating
081111 110426 26 INFO dfs.FSNamesystem: BLOCK* NameSystem.delete: blk_6378784892744509334 is added to invalidSet of 10.251.75.143:50010
081110 184005 13 INFO dfs.DataBlockScanner: Verification succeeded for blk_-8590445086586144043
081111 062903 21902 INFO dfs.DataNode$PacketResponder: Received block blk_-2397263788852851669 of size 67108864 from /10.251.67.225
081111 070217 22635 INFO dfs.DataNode$PacketResponder: PacketResponder 2 for block blk_-9088133012622784507 terminating
081111 085357 24754 INFO dfs.DataNode$DataXceiver: Receiving block blk_-2741321133649883571 src: /10.250.14.38:38186 dest: /10.250.14.38:50010
081110 225205 33 INFO dfs.FSNamesystem: BLOCK* NameSystem.addStoredBlock: blockMap updated: 10.251.110.68:50010 is added to blk_9115424548898383891 size 67108864
081111 053707 20707 INFO dfs.DataNode$PacketResponder: Received block blk_7523394419110486702 of size 67108864 from /10.251.75.228
081111 062747 32 INFO dfs.FSNamesystem: BLOCK* NameSystem.addStoredBlock: blockMap updated: 10.251.214.32:50010 is added to blk_786585649045710284 size 67108864
081111 110437 26 INFO dfs.FSNamesystem: BLOCK* NameSystem.delete: blk_144432110988594137 is added to invalidSet of 10.250.15.67:50010
081110 040642 6712 WARN dfs.DataNode$DataXceiver: 10.250.13.188:50010:Got exception while serving blk_1382728599263400183 to /10.251.42.191:
081109 203941 279 INFO dfs.DataNode$PacketResponder: PacketResponder 0 for block blk_435571557354499244 terminating
081111 073128 23436 INFO dfs.DataNode$PacketResponder: PacketResponder 1 for block blk_3875795447289960568 terminating
081109 233007 32 INFO dfs.FSNamesystem: BLOCK* NameSystem.addStoredBlock: blockMap updated: 10.251.27.63:50010 is added to blk_5335459855812521048 size 67108864
081110 210153 28 INFO dfs.FSNamesystem: BLOCK* NameSystem.delete: blk_8955648950590065013 is added to invalidSet of 10.250.5.161:50010
081110 223550 16139 INFO dfs.DataNode$DataXceiver: Receiving block blk_-7506281103275077080 src: /10.251.199.19:38191 dest: /10.251.199.19:50010
081111 084125 24404 INFO dfs.DataNode$PacketResponder: PacketResponder 1 for block blk_1754869697944918981 terminating
081110 151649 30 INFO dfs.FSNamesystem: BLOCK* NameSystem.addStoredBlock: blockMap updated: 10.251.43.115:50010 is added to blk_-5388895105420006026 size 67108864
081110 112940 28 INFO dfs.FSNamesystem: BLOCK* NameSystem.addStoredBlock: blockMap updated: 10.251.122.38:50010 is added to blk_-2951247607832144904 size 67108864
081110 230726 31 INFO dfs.FSNamesystem: BLOCK* NameSystem.allocateBlock: /user/root/randtxt3/_temporary/_task_200811101024_0007_m_001885_1/part-01885. blk_-1325340856136062864
081109 211552 1697 INFO dfs.DataNode$DataXceiver: Receiving block blk_-3955539601212591258 src: /10.251.193.175:60984 dest: /10.251.193.175:50010
081110 143241 28 INFO dfs.FSNamesystem: BLOCK* NameSystem.addStoredBlock: blockMap updated: 10.251.30.179:50010 is added to blk_6096370552816119419 size 67108864
081110 105254 30 INFO dfs.FSNamesystem: BLOCK* NameSystem.addStoredBlock: blockMap updated: 10.251.74.79:50010 is added to blk_-1517804870920904063 size 67108864
081111 055758 21544 INFO dfs.DataNode$PacketResponder: PacketResponder 0 for block blk_-7502794998836280468 terminating
081111 070902 32 INFO dfs.FSNamesystem: BLOCK* NameSystem.addStoredBlock: blockMap updated: 10.251.199.159:50010 is added to blk_5424198101699044704 size 67108864
081111 073222 23809 INFO dfs.DataNode$PacketResponder: Received block blk_1234284487776647614 of size 67108864 from /10.251.37.240
081111 084352 24806 INFO dfs.DataNode$PacketResponder: PacketResponder 0 for block blk_-7867955673514567814 terminating
081110 001237 4783 INFO dfs.DataNode$PacketResponder: PacketResponder 0 for block blk_-8020450850267577839 terminating
081111 071527 22797 INFO dfs.DataNode$PacketResponder: PacketResponder 1 for block blk_-5678823896354256041 terminating
081110 214718 15502 INFO dfs.DataNode$PacketResponder: Received block blk_5749963880245749671 of size 67108864 from /10.251.66.102
081111 044546 19 INFO dfs.FSDataset: Deleting block blk_-9162033865714589915 file /mnt/hadoop/dfs/data/current/subdir19/blk_-9162033865714589915
081111 025956 17827 INFO dfs.DataNode$PacketResponder: PacketResponder 2 for block blk_-1364648806353946154 terminating
081110 054058 7225 WARN dfs.DataNode$DataXceiver: 10.251.111.228:50010:Got exception while serving blk_9062503661483120520 to /10.250.5.237:
081110 151205 13 INFO dfs.DataBlockScanner: Verification succeeded for blk_915605085735060531
081110 143820 12498 INFO dfs.DataNode$PacketResponder: Received block blk_3833168782701369613 of size 67108864 from /10.251.193.224
081110 115100 10436 INFO dfs.DataNode$DataXceiver: Receiving block blk_3038075316851061184 src: /10.251.31.160:42263 dest: /10.251.31.160:50010
081110 223037 16240 INFO dfs.DataNode$DataXceiver: Receiving block blk_1449921318450949697 src: /10.251.91.229:51492 dest: /10.251.91.229:50010
081110 130538 11695 WARN dfs.DataNode$DataXceiver: 10.251.106.50:50010:Got exception while serving blk_-7505812347551157612 to /10.251.74.192:
081111 090304 19 INFO dfs.FSDataset: Deleting block blk_8131599227499065804 file /mnt/hadoop/dfs/data/current/subdir59/blk_8131599227499065804
081109 205146 774 INFO dfs.DataNode$DataXceiver: Receiving block blk_2372929765646929902 src: /10.251.73.220:56125 dest: /10.251.73.220:50010
081111 093232 25569 INFO dfs.DataNode$PacketResponder: PacketResponder 2 for block blk_1700684394138489732 terminating
081111 032409 18570 INFO dfs.DataNode$PacketResponder: PacketResponder 0 for block blk_-8556150499439623866 terminating
081109 204504 484 INFO dfs.DataNode$PacketResponder: Received block blk_8354632629489789672 of size 67108864 from /10.251.109.236
081111 044835 19 INFO dfs.FSDataset: Deleting block blk_4310113449433686817 file /mnt/hadoop/dfs/data/current/subdir54/blk_4310113449433686817
081111 044608 19 INFO dfs.FSDataset: Deleting block blk_-4732210119075573290 file /mnt/hadoop/dfs/data/current/subdir43/blk_-4732210119075573290
081111 044754 19 INFO dfs.FSDataset: Deleting block blk_2195014524978795864 file /mnt/hadoop/dfs/data/current/subdir54/blk_2195014524978795864
081110 220956 19 INFO dfs.FSDataset: Deleting block blk_-4289919779160714330 file /mnt/hadoop/dfs/data/current/subdir0/blk_-4289919779160714330
081110 113633 26 INFO dfs.FSNamesystem: BLOCK* NameSystem.delete: blk_7472308315483763282 is added to invalidSet of 10.251.111.80:50010
081110 002456 4803 INFO dfs.DataNode$PacketResponder: Received block blk_5741684416547182669 of size 67108864 from /10.251.107.196
081110 105511 9492 INFO dfs.DataNode$DataXceiver: Receiving block blk_-2517934150679930504 src: /10.251.107.19:51626 dest: /10.251.107.19:50010
081111 061144 21924 INFO dfs.DataNode$PacketResponder: Received block blk_-2478287714495689274 of size 28490198 from /10.251.193.224
081111 073908 23375 INFO dfs.DataNode$PacketResponder: PacketResponder 0 for block blk_55279072041211495 terminating
081110 103537 19 INFO dfs.FSDataset: Deleting block blk_-3687422145208840266 file /mnt/hadoop/dfs/data/current/subdir37/blk_-3687422145208840266
081110 224325 16519 INFO dfs.DataNode$DataXceiver: Receiving block blk_5788338364729331244 src: /10.250.19.16:57640 dest: /10.250.19.16:50010
081110 210737 14692 INFO dfs.DataNode$PacketResponder: PacketResponder 0 for block blk_-4289147258118640222 terminating
081111 090159 19 INFO dfs.FSDataset: Deleting block blk_729678092254593610 file /mnt/hadoop/dfs/data/current/subdir12/blk_729678092254593610
081111 035310 18920 INFO dfs.DataNode$PacketResponder: PacketResponder 0 for block blk_-3166112647887037109 terminating
081111 040612 19586 INFO dfs.DataNode$DataXceiver: Receiving block blk_2108352354165505523 src: /10.251.42.191:49090 dest: /10.251.42.191:50010
081111 044912 19 INFO dfs.FSDataset: Deleting block blk_7908025755494588309 file /mnt/hadoop/dfs/data/current/subdir40/blk_7908025755494588309
081111 092341 25585 INFO dfs.DataNode$PacketResponder: Received block blk_4436013271034754527 of size 67108864 from /10.251.42.84
081111 091415 25071 INFO dfs.DataNode$DataXceiver: Receiving block blk_-5574179453836696500 src: /10.250.19.16:37475 dest: /10.250.19.16:50010
081111 044332 29 INFO dfs.FSNamesystem: BLOCK* NameSystem.delete: blk_5975398349050756914 is added to invalidSet of 10.251.203.246:50010
081110 210413 18 INFO dfs.FSDataset: Deleting block blk_-7283397945716980871 file /mnt/hadoop/dfs/data/current/subdir46/blk_-7283397945716980871
081110 012150 5372 INFO dfs.DataNode$DataXceiver: Receiving block blk_-3041183145991861417 src: /10.251.199.159:32807 dest: /10.251.199.159:50010
081110 222539 16018 INFO dfs.DataNode$PacketResponder: Received block blk_-8337274773989977179 of size 67108864 from /10.251.109.209
081111 052020 21027 INFO dfs.DataNode$PacketResponder: PacketResponder 1 for block blk_-3666325864318065645 terminating
081110 210142 28 INFO dfs.FSNamesystem: BLOCK* NameSystem.delete: blk_-8921269277325677831 is added to invalidSet of 10.251.203.129:50010
081110 111455 9899 INFO dfs.DataNode$PacketResponder: Received block blk_209736039232732081 of size 67108864 from /10.251.42.191
081111 060921 35 INFO dfs.FSNamesystem: BLOCK* NameSystem.allocateBlock: /user/root/randtxt5/_temporary/_task_200811101024_0012_m_000830_0/part-00830. blk_6383770379844341140
081111 095936 26263 INFO dfs.DataNode$PacketResponder: PacketResponder 0 for block blk_5530091079282620434 terminating
081111 044140 35 INFO dfs.FSNamesystem: BLOCK* NameSystem.addStoredBlock: blockMap updated: 10.251.198.196:50010 is added to blk_-7288797024824731810 size 67108864
081110 000504 30 INFO dfs.FSNamesystem: BLOCK* NameSystem.addStoredBlock: blockMap updated: 10.250.11.100:50010 is added to blk_6134356421863439514 size 67108864
081111 102119 29 INFO dfs.FSNamesystem: BLOCK* NameSystem.allocateBlock: /user/root/randtxt9/_temporary/_task_200811101024_0016_m_000674_0/part-00674. blk_8353471725005300652
081110 104533 9150 INFO dfs.DataNode$DataXceiver: Received block blk_-8184577140386133791 src: /10.251.126.255:47757 dest: /10.251.126.255:50010 of size 67108864
081111 092550 33 INFO dfs.FSNamesystem: BLOCK* NameSystem.addStoredBlock: blockMap updated: 10.251.31.180:50010 is added to blk_-8828209644594536743 size 67108864
081111 094653 26153 INFO dfs.DataNode$DataXceiver: Receiving block blk_4603780426451345226 src: /10.251.38.214:58928 dest: /10.251.38.214:50010
081110 091219 8646 INFO dfs.DataNode$DataXceiver: 10.251.42.191:50010 Served block blk_2956337456276997097 to /10.251.193.224
081110 220209 33 INFO dfs.FSNamesystem: BLOCK* NameSystem.addStoredBlock: blockMap updated: 10.251.39.144:50010 is added to blk_-7345981575785426968 size 67108864
081111 052703 20945 INFO dfs.DataNode$PacketResponder: PacketResponder 0 for block blk_8058768963146092710 terminating
081111 071458 22711 INFO dfs.DataNode$DataXceiver: Receiving block blk_7435198393681047264 src: /10.251.107.227:59497 dest: /10.251.107.227:50010
081111 082254 34 INFO dfs.FSNamesystem: BLOCK* NameSystem.allocateBlock: /user/root/rand7/_temporary/_task_200811101024_0014_m_000886_0/part-00886. blk_-4921146709969191820
081111 031616 31 INFO dfs.FSNamesystem: BLOCK* NameSystem.addStoredBlock: blockMap updated: 10.251.75.79:50010 is added to blk_4846409719674439381 size 67108864
081110 120007 10755 INFO dfs.DataNode$DataXceiver: Receiving block blk_5826932040854574702 src: /10.251.26.8:33858 dest: /10.251.26.8:50010
081109 212927 2273 INFO dfs.DataNode$DataXceiver: Receiving block blk_6100075088256625519 src: /10.251.38.214:44763 dest: /10.251.38.214:50010
081110 010319 5186 INFO dfs.DataNode$PacketResponder: Received block blk_-6251863507209457990 of size 67108864 from /10.251.71.97
081111 054129 21292 INFO dfs.DataNode$PacketResponder: PacketResponder 0 for block blk_-2609486475445977061 terminating
081111 072007 29 INFO dfs.FSNamesystem: BLOCK* NameSystem.addStoredBlock: blockMap updated: 10.251.74.79:50010 is added to blk_-3891412279160886015 size 67108864
081111 110527 19 INFO dfs.FSDataset: Deleting block blk_-7803818851226983844 file /mnt/hadoop/dfs/data/current/subdir22/blk_-7803818851226983844
081111 043713 19894 INFO dfs.DataNode$DataXceiver: Receiving block blk_1529781102370471517 src: /10.251.39.209:42594 dest: /10.251.39.209:50010
081110 111042 9644 INFO dfs.DataNode$PacketResponder: Received block blk_-2041453152965442818 of size 67108864 from /10.250.15.101
081111 070518 22836 INFO dfs.DataNode$PacketResponder: Received block blk_381943225295705072 of size 3552205 from /10.251.194.129
081110 000125 4442 INFO dfs.DataNode$DataXceiver: Receiving block blk_4474236511151837088 src: /10.251.39.209:59218 dest: /10.251.39.209:50010
081110 210504 19 INFO dfs.FSDataset: Deleting block blk_-5773185436321208212 file /mnt/hadoop/dfs/data/current/subdir0/blk_-5773185436321208212
081110 103059 30 INFO dfs.FSNamesystem: BLOCK* NameSystem.delete: blk_7275792270850448244 is added to invalidSet of 10.250.10.6:50010
081111 042400 27 INFO dfs.FSNamesystem: BLOCK* NameSystem.addStoredBlock: blockMap updated: 10.251.199.159:50010 is added to blk_-2882193084146088239 size 67108864
081111 083505 24669 INFO dfs.DataNode$PacketResponder: Received block blk_4697129132982959619 of size 67108864 from /10.251.194.245
081110 103630 19 INFO dfs.FSDataset: Deleting block blk_-36716253371065501 file /mnt/hadoop/dfs/data/current/subdir62/blk_-36716253371065501
081110 103146 30 INFO dfs.FSNamesystem: BLOCK* NameSystem.delete: blk_7139121270930879464 is added to invalidSet of 10.251.39.144:50010
081111 085240 35 INFO dfs.FSNamesystem: BLOCK* NameSystem.allocateBlock: /user/root/rand7/_temporary/_task_200811101024_0014_m_001743_1/part-01743. blk_7933580200980583451
081110 222838 16222 INFO dfs.DataNode$DataXceiver: Receiving block blk_-9082867030409323826 src: /10.251.126.5:40248 dest: /10.251.126.5:50010
081110 103109 30 INFO dfs.FSNamesystem: BLOCK* NameSystem.delete: blk_-8019343871245975081 is added to invalidSet of 10.250.6.191:50010
081111 062526 26 INFO dfs.FSNamesystem: BLOCK* NameSystem.addStoredBlock: blockMap updated: 10.251.39.209:50010 is added to blk_3176080649067089819 size 67108864
081111 085914 27 INFO dfs.FSNamesystem: BLOCK* NameSystem.delete: blk_532409374713364178 is added to invalidSet of 10.251.107.98:50010
081110 103628 19 INFO dfs.FSDataset: Deleting block blk_-650030523852467868 file /mnt/hadoop/dfs/data/current/subdir18/blk_-650030523852467868
081110 220658 32 INFO dfs.FSNamesystem: BLOCK* NameSystem.delete: blk_-7179937224442493423 is added to invalidSet of 10.251.203.129:50010
081109 212312 35 INFO dfs.FSNamesystem: BLOCK* NameSystem.allocateBlock: /user/root/rand/_temporary/_task_200811092030_0001_m_001682_0/part-01682. blk_3126794653049400248
081111 072725 33 INFO dfs.FSNamesystem: BLOCK* NameSystem.addStoredBlock: blockMap updated: 10.251.203.166:50010 is added to blk_3400682836817381390 size 67108864
081111 073551 23011 INFO dfs.DataNode$DataXceiver: Receiving block blk_-4958179285835814952 src: /10.251.43.147:51356 dest: /10.251.43.147:50010
081110 103203 9107 INFO dfs.DataNode$DataXceiver: Receiving block blk_7377194875177420124 src: /10.250.6.214:60382 dest: /10.250.6.214:50010
081109 212352 1918 INFO dfs.DataNode$PacketResponder: PacketResponder 0 for block blk_5447608505980345250 terminating
081110 122507 35 INFO dfs.FSNamesystem: BLOCK* NameSystem.allocateBlock: /user/root/randtxt2/_temporary/_task_200811101024_0002_m_001605_0/part-01605. blk_-8134828967505548782
081111 084723 24811 INFO dfs.DataNode$PacketResponder: PacketResponder 0 for block blk_6399504076416501178 terminating
081111 071916 23130 INFO dfs.DataNode$DataXceiver: Receiving block blk_8216964154533512174 src: /10.251.75.49:45340 dest: /10.251.75.49:50010
081111 093023 13 INFO dfs.DataBlockScanner: Verification succeeded for blk_-3782512650456554007
081111 050017 20460 INFO dfs.DataNode$DataXceiver: Receiving block blk_-7846832973309089585 src: /10.251.105.189:41017 dest: /10.251.105.189:50010
081111 052800 20707 INFO dfs.DataNode$PacketResponder: Received block blk_3247314998556781807 of size 67108864 from /10.251.123.1
081110 111234 29 INFO dfs.FSNamesystem: BLOCK* NameSystem.addStoredBlock: blockMap updated: 10.251.122.38:50010 is added to blk_-6504374203508182226 size 67108864
081110 210532 19 INFO dfs.FSDataset: Deleting block blk_5166279369306172645 file /mnt/hadoop/dfs/data/current/subdir28/blk_5166279369306172645
081110 223039 16232 INFO dfs.DataNode$PacketResponder: Received block blk_1955083859997973908 of size 67108864 from /10.251.75.49
081111 100144 35 INFO dfs.FSNamesystem: BLOCK* NameSystem.delete: blk_6925264959987876302 is added to invalidSet of 10.251.67.225:50010
081111 033929 28 INFO dfs.FSNamesystem: BLOCK* NameSystem.addStoredBlock: blockMap updated: 10.250.13.188:50010 is added to blk_3536317854883942043 size 67108864
081110 122938 11268 INFO dfs.DataNode$DataXceiver: Receiving block blk_7951585503980147065 src: /10.251.43.147:45998 dest: /10.251.43.147:50010
081109 210708 1326 INFO dfs.DataNode$PacketResponder: PacketResponder 0 for block blk_7656258432459892895 terminating
081109 235152 4294 INFO dfs.DataNode$PacketResponder: PacketResponder 2 for block blk_4811572736631756846 terminating
081111 085700 24420 INFO dfs.DataNode$PacketResponder: PacketResponder 0 for block blk_-7422567081141690168 terminating
081110 135323 12081 WARN dfs.DataNode$DataXceiver: 10.251.194.129:50010:Got exception while serving blk_561898960641932990 to /10.250.11.100:
081109 213628 30 INFO dfs.FSNamesystem: BLOCK* NameSystem.allocateBlock: /user/root/rand/_temporary/_task_200811092030_0001_m_002005_1/part-02005. blk_354195070968027196
081111 083220 24475 INFO dfs.DataNode$PacketResponder: PacketResponder 2 for block blk_-7042004630592865618 terminating
081110 204543 13 INFO dfs.DataBlockScanner: Verification succeeded for blk_-7358842539066740041
081110 103058 30 INFO dfs.FSNamesystem: BLOCK* NameSystem.delete: blk_1092960795971700929 is added to invalidSet of 10.251.110.196:50010
081110 111830 28 INFO dfs.FSNamesystem: BLOCK* NameSystem.addStoredBlock: blockMap updated: 10.251.70.211:50010 is added to blk_838668043102156388 size 67108864
081111 040909 28 INFO dfs.FSNamesystem: BLOCK* NameSystem.addStoredBlock: blockMap updated: 10.251.74.134:50010 is added to blk_166371235462832898 size 67108864
081111 044539 19 INFO dfs.FSDataset: Deleting block blk_-6322305481950797048 file /mnt/hadoop/dfs/data/current/subdir20/blk_-6322305481950797048
081111 093839 34 INFO dfs.FSNamesystem: BLOCK* NameSystem.addStoredBlock: blockMap updated: 10.251.126.255:50010 is added to blk_-3594701393779953739 size 67108864
081110 015215 5900 INFO dfs.DataNode$DataXceiver: Receiving block blk_-6587613482278020038 src: /10.250.17.225:49541 dest: /10.250.17.225:50010
081110 144638 12492 INFO dfs.DataNode$PacketResponder: Received block blk_2863464230555849436 of size 67108864 from /10.251.31.160
081109 222215 3496 WARN dfs.DataNode$DataXceiver: 10.251.126.5:50010:Got exception while serving blk_1671387097083753530 to /10.251.31.5:
081111 044340 29 INFO dfs.FSNamesystem: BLOCK* NameSystem.delete: blk_-414659934388218977 is added to invalidSet of 10.251.107.242:50010
081110 150439 13007 INFO dfs.DataNode$PacketResponder: PacketResponder 2 for block blk_4339609677730121933 terminating
081110 082450 8420 WARN dfs.DataNode$DataXceiver: 10.251.39.242:50010:Got exception while serving blk_-3732223759509494709 to /10.251.26.8:
081111 085001 25035 INFO dfs.DataNode$PacketResponder: Received block blk_-1211460678521640168 of size 67108864 from /10.250.15.198
081110 110538 9546 INFO dfs.DataNode$PacketResponder: PacketResponder 1 for block blk_-1255289036878726888 terminating
081111 090807 19585 INFO dfs.DataNode$PacketResponder: Received block blk_2671546001361868446 of size 67108864 from /10.251.123.132
081111 032931 30 INFO dfs.FSNamesystem: BLOCK* NameSystem.addStoredBlock: blockMap updated: 10.251.42.9:50010 is added to blk_1465513149586876643 size 67108864
081109 210353 35 INFO dfs.FSNamesystem: BLOCK* NameSystem.addStoredBlock: blockMap updated: 10.251.202.181:50010 is added to blk_-7821682566975702409 size 67108864
081111 031010 18056 INFO dfs.DataNode$PacketResponder: Received block blk_473114788738347294 of size 67108864 from /10.251.203.179
081110 091726 8657 INFO dfs.DataNode$DataXceiver: 10.251.31.242:50010 Served block blk_3441836913513958131 to /10.251.31.242
081110 220202 15810 INFO dfs.DataNode$PacketResponder: PacketResponder 1 for block blk_5191437232846622238 terminating
081111 060231 21844 INFO dfs.DataNode$PacketResponder: PacketResponder 2 for block blk_-3690077237630443327 terminating
081111 084116 24695 INFO dfs.DataNode$PacketResponder: PacketResponder 2 for block blk_7969667060427622317 terminating
081111 045220 33 INFO dfs.FSNamesystem: BLOCK* NameSystem.addStoredBlock: blockMap updated: 10.250.13.188:50010 is added to blk_-7948360256604506839 size 67108864
081111 064248 22459 INFO dfs.DataNode$PacketResponder: Received block blk_-6299485554919071819 of size 67108864 from /10.251.197.161
081110 215249 15482 INFO dfs.DataNode$DataXceiver: Receiving block blk_-3067190667557705714 src: /10.251.91.229:47561 dest: /10.251.91.229:50010
081110 011840 5437 INFO dfs.DataNode$PacketResponder: PacketResponder 2 for block blk_-2205294124554650666 terminating
081111 075804 19 INFO dfs.FSDataset: Deleting block blk_-5646728299924789408 file /mnt/hadoop/dfs/data/current/subdir53/blk_-5646728299924789408
081110 210151 28 INFO dfs.FSNamesystem: BLOCK* NameSystem.delete: blk_-1552586440549410144 is added to invalidSet of 10.250.6.4:50010
081110 120635 26 INFO dfs.FSNamesystem: BLOCK* NameSystem.addStoredBlock: blockMap updated: 10.251.122.38:50010 is added to blk_2176640862392185051 size 67108864
081110 013206 5590 INFO dfs.DataNode$PacketResponder: Received block blk_4649190918360605499 of size 67108864 from /10.250.6.214
081109 235959 4461 INFO dfs.DataNode$PacketResponder: Received block blk_8346562601060225434 of size 67108864 from /10.251.126.22
081111 040947 19505 INFO dfs.DataNode$DataXceiver: Receiving block blk_-2561367337373865893 src: /10.250.6.4:42771 dest: /10.250.6.4:50010
081111 020223 17697 WARN dfs.DataNode$DataXceiver: 10.251.126.22:50010:Got exception while serving blk_-7662092066377448798 to /10.251.38.214:
081111 023034 27 INFO dfs.FSNamesystem: BLOCK* NameSystem.delete: blk_-2690669208688500161 is added to invalidSet of 10.251.71.240:50010
081111 063139 31 INFO dfs.FSNamesystem: BLOCK* NameSystem.addStoredBlock: blockMap updated: 10.251.75.143:50010 is added to blk_1446502132745453819 size 67108864
081111 110523 19 INFO dfs.FSDataset: Deleting block blk_-6125611625531981307 file /mnt/hadoop/dfs/data/current/subdir15/blk_-6125611625531981307
081110 111245 31 INFO dfs.FSNamesystem: BLOCK* NameSystem.addStoredBlock: blockMap updated: 10.250.7.146:50010 is added to blk_-4068565511839905675 size 67108864
081111 065449 19 INFO dfs.FSDataset: Deleting block blk_-1508676111706890326 file /mnt/hadoop/dfs/data/current/subdir57/blk_-1508676111706890326
081109 213438 2430 INFO dfs.DataNode$DataXceiver: Receiving block blk_4489358710664286517 src: /10.251.193.175:60527 dest: /10.251.193.175:50010
081111 110445 26 INFO dfs.FSNamesystem: BLOCK* NameSystem.delete: blk_-7966846635850250481 is added to invalidSet of 10.251.203.80:50010
081111 093724 35 INFO dfs.FSNamesystem: BLOCK* NameSystem.addStoredBlock: blockMap updated: 10.251.214.130:50010 is added to blk_-7377190112277443925 size 67108864
081111 044711 19 INFO dfs.FSDataset: Deleting block blk_-4554784849109080992 file /mnt/hadoop/dfs/data/current/subdir52/blk_-4554784849109080992
081111 044336 29 INFO dfs.FSNamesystem: BLOCK* NameSystem.delete: blk_-7544913304393543742 is added to invalidSet of 10.251.203.129:50010
081111 090314 25095 INFO dfs.DataNode$DataXceiver: Receiving block blk_-4266558036093878286 src: /10.251.106.10:40043 dest: /10.251.106.10:50010
081110 123106 11058 INFO dfs.DataNode$PacketResponder: PacketResponder 1 for block blk_-3001187109469433746 terminating
081110 210330 19 INFO dfs.FSDataset: Deleting block blk_-7893286941324970898 file /mnt/hadoop/dfs/data/current/subdir34/blk_-7893286941324970898
081111 074129 23487 INFO dfs.DataNode$PacketResponder: Received block blk_4635755234545491807 of size 67108864 from /10.251.126.22
081111 083450 24706 INFO dfs.DataNode$PacketResponder: PacketResponder 2 for block blk_2822497555150959950 terminating
081110 103137 30 INFO dfs.FSNamesystem: BLOCK* NameSystem.delete: blk_-2501919723808448799 is added to invalidSet of 10.251.30.134:50010
081111 042728 19971 INFO dfs.DataNode$PacketResponder: Received block blk_7150522081480106418 of size 67108864 from /10.251.199.225
081110 223856 16253 INFO dfs.DataNode$PacketResponder: Received block blk_6931235310211138995 of size 67108864 from /10.251.107.227
081111 022021 17540 INFO dfs.DataNode$DataXceiver: 10.251.202.209:50010 Served block blk_3680168944349313036 to /10.251.203.179
081110 081716 8126 INFO dfs.DataNode$DataXceiver: 10.251.89.155:50010 Served block blk_4515106565191963829 to /10.251.71.97
081111 102343 26541 INFO dfs.DataNode$DataXceiver: Receiving block blk_-8448680321198085082 src: /10.250.13.240:60230 dest: /10.250.13.240:50010
081109 222659 3538 INFO dfs.DataNode$DataXceiver: 10.251.31.85:50010 Served block blk_-493724138796909276 to /10.251.90.239
081109 204354 459 INFO dfs.DataNode$PacketResponder: PacketResponder 0 for block blk_-2488082307288759081 terminating
081110 103821 9035 INFO dfs.DataNode$PacketResponder: Received block blk_-1724822310237785282 of size 67108864 from /10.251.66.192
081111 092137 25644 INFO dfs.DataNode$PacketResponder: Received block blk_7418645559090815469 of size 67108864 from /10.251.39.144
081110 093249 13 INFO dfs.DataBlockScanner: Verification succeeded for blk_8285293646464851536
081110 112202 9916 INFO dfs.DataNode$PacketResponder: Received block blk_4915975937156471136 of size 67108864 from /10.251.107.98
081111 044307 35 INFO dfs.FSNamesystem: BLOCK* NameSystem.delete: blk_-5334350877991299829 is added to invalidSet of 10.251.39.242:50010
081111 024936 32 INFO dfs.FSNamesystem: BLOCK* NameSystem.allocateBlock: /user/root/rand4/_temporary/_task_200811101024_0009_m_000309_0/part-00309. blk_814599139714230670
081111 051235 20759 INFO dfs.DataNode$DataXceiver: Receiving block blk_7619907871513793636 src: /10.251.38.214:45915 dest: /10.251.38.214:50010
081111 092442 25757 INFO dfs.DataNode$DataXceiver: Receiving block blk_7590514289053888987 src: /10.250.10.144:37305 dest: /10.250.10.144:50010
081111 093923 25893 INFO dfs.DataNode$PacketResponder: Received block blk_6646223839488500231 of size 67108864 from /10.250.19.227
081110 160636 13468 INFO dfs.DataNode$DataXceiver: Receiving block blk_-4536959805876667688 src: /10.251.71.97:46366 dest: /10.251.71.97:50010
081111 025230 17968 INFO dfs.DataNode$DataXceiver: Receiving block blk_-2540377091757121790 src: /10.250.15.67:53894 dest: /10.250.15.67:50010
081111 044703 19 INFO dfs.FSDataset: Deleting block blk_-3208936505095121861 file /mnt/hadoop/dfs/data/current/subdir0/blk_-3208936505095121861
081110 211602 14510 INFO dfs.DataNode$PacketResponder: PacketResponder 0 for block blk_1162170063602479049 terminating
081111 023645 31 INFO dfs.FSNamesystem: BLOCK* NameSystem.addStoredBlock: blockMap updated: 10.251.215.70:50010 is added to blk_-7120516907788388762 size 67108864
081111 075300 29 INFO dfs.FSNamesystem: BLOCK* NameSystem.addStoredBlock: blockMap updated: 10.251.89.155:50010 is added to blk_-6122138178334780713 size 67108864
081110 212809 14900 INFO dfs.DataNode$PacketResponder: Received block blk_-2941037013967044784 of size 67108864 from /10.251.214.32
081111 083751 24817 INFO dfs.DataNode$DataXceiver: Receiving block blk_1689729987573788782 src: /10.251.193.224:57420 dest: /10.251.193.224:50010
081110 113807 10365 INFO dfs.DataNode$PacketResponder: PacketResponder 0 for block blk_-6264985829592367348 terminating
081110 033346 13 INFO dfs.DataBlockScanner: Verification succeeded for blk_-4837980020700207247
081111 045618 20554 INFO dfs.DataNode$PacketResponder: Received block blk_3821699514841918744 of size 67108864 from /10.251.42.9
081110 103246 19 INFO dfs.FSDataset: Deleting block blk_-8235678152125779098 file /mnt/hadoop/dfs/data/current/subdir44/blk_-8235678152125779098
081111 044336 29 INFO dfs.FSNamesystem: BLOCK* NameSystem.delete: blk_-265403896253251488 is added to invalidSet of 10.251.66.192:50010
081111 075630 28 INFO dfs.FSNamesystem: BLOCK* NameSystem.delete: blk_-3901342393186920888 is added to invalidSet of 10.251.74.227:50010
081111 054859 21502 INFO dfs.DataNode$DataXceiver: Receiving block blk_-3592219224877499889 src: /10.250.11.100:59599 dest: /10.250.11.100:50010
081111 090314 24780 INFO dfs.DataNode$PacketResponder: Received block blk_2521080263606910211 of size 67108864 from /10.251.203.129
081111 090217 19 INFO dfs.FSDataset: Deleting block blk_8713944412077048043 file /mnt/hadoop/dfs/data/current/subdir16/blk_8713944412077048043
081111 082903 24276 INFO dfs.DataNode$DataXceiver: Receiving block blk_6416236265206119721 src: /10.251.74.227:42143 dest: /10.251.74.227:50010
081111 095636 26015 INFO dfs.DataNode$PacketResponder: PacketResponder 0 for block blk_3174466197364268697 terminating
081110 211403 14710 INFO dfs.DataNode$PacketResponder: PacketResponder 0 for block blk_-2532211411411070090 terminating
081110 083030 8345 WARN dfs.DataNode$DataXceiver: 10.251.214.67:50010:Got exception while serving blk_2936662685217144147 to /10.250.10.223:
081110 024342 6486 WARN dfs.DataNode$DataXceiver: 10.251.42.191:50010:Got exception while serving blk_7211619052534623179 to /10.251.71.146:
081110 223301 16226 INFO dfs.DataNode$PacketResponder: PacketResponder 2 for block blk_3527785733683347473 terminating
081110 103949 9100 INFO dfs.DataNode$PacketResponder: PacketResponder 2 for block blk_2463938423783410775 terminating
081110 225125 16551 INFO dfs.DataNode$PacketResponder: PacketResponder 2 for block blk_4735761441564018850 terminating
081110 103138 30 INFO dfs.FSNamesystem: BLOCK* NameSystem.delete: blk_-3976054313994072458 is added to invalidSet of 10.250.5.237:50010
081111 044309 35 INFO dfs.FSNamesystem: BLOCK* NameSystem.delete: blk_-2522097676145228725 is added to invalidSet of 10.251.195.52:50010
081110 220927 19 INFO dfs.FSDataset: Deleting block blk_3525152421344934894 file /mnt/hadoop/dfs/data/current/subdir62/blk_3525152421344934894
081110 015504 26 INFO dfs.FSNamesystem: BLOCK* NameSystem.addStoredBlock: blockMap updated: 10.251.109.236:50010 is added to blk_1067169371448969848 size 67108864
081110 103130 30 INFO dfs.FSNamesystem: BLOCK* NameSystem.delete: blk_7220542025044029808 is added to invalidSet of 10.251.74.134:50010
081111 084007 24352 INFO dfs.DataNode$PacketResponder: Received block blk_1101473724577145659 of size 67108864 from /10.250.5.161
081111 043321 19893 INFO dfs.DataNode$DataXceiver: Receiving block blk_-6024605313891169204 src: /10.251.70.5:49012 dest: /10.251.70.5:50010
081109 234308 34 INFO dfs.FSNamesystem: BLOCK* NameSystem.addStoredBlock: blockMap updated: 10.251.70.112:50010 is added to blk_-3315953096018317187 size 67108864
081110 213654 30 INFO dfs.FSNamesystem: BLOCK* NameSystem.addStoredBlock: blockMap updated: 10.251.203.149:50010 is added to blk_-3155957176507564348 size 67108864
081111 090134 19 INFO dfs.FSDataset: Deleting block blk_2420583779760764022 file /mnt/hadoop/dfs/data/current/subdir41/blk_2420583779760764022
081111 090137 18 INFO dfs.FSDataset: Deleting block blk_1635884580963978096 file /mnt/hadoop/dfs/data/current/subdir54/blk_1635884580963978096
081111 054734 30 INFO dfs.FSNamesystem: BLOCK* NameSystem.delete: blk_4299443706877914 is added to invalidSet of 10.251.73.188:50010
081110 113110 35 INFO dfs.FSNamesystem: BLOCK* NameSystem.addStoredBlock: blockMap updated: 10.251.122.65:50010 is added to blk_7363361970831665317 size 67108864
081111 023019 27 INFO dfs.FSNamesystem: BLOCK* NameSystem.delete: blk_5688158688547896066 is added to invalidSet of 10.251.27.63:50010
081110 105332 9440 INFO dfs.DataNode$PacketResponder: Received block blk_-2599846500259530937 of size 67108864 from /10.251.38.53
081111 110436 26 INFO dfs.FSNamesystem: BLOCK* NameSystem.delete: blk_-5983670886639340419 is added to invalidSet of 10.251.202.181:50010
081110 210447 19 INFO dfs.FSDataset: Deleting block blk_541872949265589428 file /mnt/hadoop/dfs/data/current/subdir27/blk_541872949265589428
081110 103147 30 INFO dfs.FSNamesystem: BLOCK* NameSystem.delete: blk_4859525139250376897 is added to invalidSet of 10.251.26.131:50010
081109 211056 1493 INFO dfs.DataNode$PacketResponder: PacketResponder 0 for block blk_6532404498510685221 terminating
081111 074645 23954 INFO dfs.DataNode$PacketResponder: PacketResponder 0 for block blk_2354797523239535160 terminating
081111 052137 32 INFO dfs.FSNamesystem: BLOCK* NameSystem.allocateBlock: /user/root/rand5/_temporary/_task_200811101024_0011_m_001178_0/part-01178. blk_-995531407496076432
081111 061914 21781 INFO dfs.DataNode$PacketResponder: Received block blk_3550354489197498948 of size 67108864 from /10.251.126.227
081111 065316 18 INFO dfs.FSDataset: Deleting block blk_-7988538372854737029 file /mnt/hadoop/dfs/data/current/subdir40/blk_-7988538372854737029
081111 071207 22849 INFO dfs.DataNode$PacketResponder: PacketResponder 2 for block blk_835948297880268677 terminating
081111 084746 24838 INFO dfs.DataNode$DataXceiver: Receiving block blk_3188307828360964176 src: /10.251.215.192:34310 dest: /10.251.215.192:50010
081111 040010 19275 INFO dfs.DataNode$PacketResponder: PacketResponder 0 for block blk_-6854234495149090616 terminating
081111 084854 32 INFO dfs.FSNamesystem: BLOCK* NameSystem.allocateBlock: /user/root/rand7/_temporary/_task_200811101024_0014_m_001931_0/part-01931. blk_4683656417844481788
081110 220914 19 INFO dfs.FSDataset: Deleting block blk_-1956663900768984576 file /mnt/hadoop/dfs/data/current/subdir61/blk_-1956663900768984576
081110 210729 14583 INFO dfs.DataNode$PacketResponder: PacketResponder 0 for block blk_3831990808168886669 terminating
081110 020451 28 INFO dfs.FSNamesystem: BLOCK* NameSystem.addStoredBlock: blockMap updated: 10.250.19.227:50010 is added to blk_3790400175178570050 size 67108864
081111 035941 32 INFO dfs.FSNamesystem: BLOCK* NameSystem.addStoredBlock: blockMap updated: 10.251.90.81:50010 is added to blk_7822937466022220655 size 67108864
081111 091807 29 INFO dfs.FSNamesystem: BLOCK* NameSystem.addStoredBlock: blockMap updated: 10.251.74.134:50010 is added to blk_6810433427196688118 size 67108864
081111 102220 26111 INFO dfs.DataNode$PacketResponder: PacketResponder 2 for block blk_-4234719704572166948 terminating
081110 174130 13690 WARN dfs.DataNode$DataXceiver: 10.251.39.192:50010:Got exception while serving blk_-2130929491999665808 to /10.251.195.70:
081109 204829 645 INFO dfs.DataNode$DataXceiver: Receiving block blk_-6399661140768899704 src: /10.251.37.240:32964 dest: /10.251.37.240:50010
081110 130807 11777 INFO dfs.DataNode$DataXceiver: 10.251.91.15:50010 Served block blk_-3092578172205629398 to /10.251.70.112
081110 150306 13147 INFO dfs.DataNode$DataXceiver: Receiving block blk_-1057494165071821558 src: /10.251.75.163:34398 dest: /10.251.75.163:50010
081110 145918 9840 INFO dfs.DataNode$DataXceiver: Receiving block blk_8875721127870997257 src: /10.250.14.196:56015 dest: /10.250.14.196:50010
081110 221803 35 INFO dfs.FSNamesystem: BLOCK* NameSystem.allocateBlock: /user/root/randtxt3/_temporary/_task_200811101024_0007_m_000343_0/part-00343. blk_55145706563881705
081110 144206 35 INFO dfs.FSNamesystem: BLOCK* NameSystem.addStoredBlock: blockMap updated: 10.251.75.79:50010 is added to blk_-4160989929646229637 size 67108864
081109 220846 3333 WARN dfs.DataNode$DataXceiver: 10.251.121.224:50010:Got exception while serving blk_-5267885207329647550 to /10.251.121.224:
081111 063401 22398 INFO dfs.DataNode$PacketResponder: PacketResponder 0 for block blk_-4467134204361652434 terminating
081110 152454 13232 INFO dfs.DataNode$DataXceiver: Receiving block blk_20735360856770448 src: /10.251.30.134:40114 dest: /10.251.30.134:50010
081111 090224 19 INFO dfs.FSDataset: Deleting block blk_7300147261425010746 file /mnt/hadoop/dfs/data/current/subdir42/blk_7300147261425010746
081111 070512 22339 INFO dfs.DataNode$DataXceiver: Receiving block blk_-7244357177095217506 src: /10.251.203.4:56249 dest: /10.251.203.4:50010
081111 051520 20896 INFO dfs.DataNode$DataXceiver: Receiving block blk_5755558903550474884 src: /10.251.123.99:43863 dest: /10.251.123.99:50010
081109 233325 4006 INFO dfs.DataNode$PacketResponder: PacketResponder 2 for block blk_8484363848521830829 terminating
081111 032433 30 INFO dfs.FSNamesystem: BLOCK* NameSystem.addStoredBlock: blockMap updated: 10.250.11.53:50010 is added to blk_6659432625365386263 size 3535845
081111 100656 26161 INFO dfs.DataNode$PacketResponder: Received block blk_-2834478657890370028 of size 67108864 from /10.251.127.191
081110 015853 6174 INFO dfs.DataNode$DataXceiver: Receiving block blk_8970025436205449320 src: /10.251.215.16:51818 dest: /10.251.215.16:50010
081111 044348 29 INFO dfs.FSNamesystem: BLOCK* NameSystem.delete: blk_5827217750826959058 is added to invalidSet of 10.251.203.246:50010
081111 065103 35 INFO dfs.FSNamesystem: BLOCK* NameSystem.addStoredBlock: blockMap updated: 10.251.89.155:50010 is added to blk_-715425170103576400 size 67108864
081111 044847 19 INFO dfs.FSDataset: Deleting block blk_6161629469885254502 file /mnt/hadoop/dfs/data/current/subdir6/blk_6161629469885254502
081110 120917 10820 INFO dfs.DataNode$PacketResponder: PacketResponder 0 for block blk_-693939327479224237 terminating
081110 224338 15994 INFO dfs.DataNode$DataXceiver: Receiving block blk_787571409875160248 src: /10.251.111.80:43244 dest: /10.251.111.80:50010
081111 080157 23573 INFO dfs.DataNode$PacketResponder: PacketResponder 0 for block blk_6616257955506112262 terminating
081111 063650 22400 INFO dfs.DataNode$PacketResponder: PacketResponder 1 for block blk_-395234027942334494 terminating
081111 061555 21976 INFO dfs.DataNode$PacketResponder: PacketResponder 1 for block blk_-9177683992520276926 terminating
081111 043524 19497 INFO dfs.DataNode$PacketResponder: PacketResponder 1 for block blk_2493184088683409516 terminating
081111 032058 18609 INFO dfs.DataNode$PacketResponder: PacketResponder 2 for block blk_122303473839881598 terminating
081110 103128 30 INFO dfs.FSNamesystem: BLOCK* NameSystem.delete: blk_7183014374948512726 is added to invalidSet of 10.250.7.244:50010
081110 210153 28 INFO dfs.FSNamesystem: BLOCK* NameSystem.delete: blk_-6279795439025421269 is added to invalidSet of 10.251.199.86:50010
081109 204846 664 INFO dfs.DataNode$PacketResponder: Received block blk_-1040723231621687859 of size 67108864 from /10.250.10.176
081110 220645 32 INFO dfs.FSNamesystem: BLOCK* NameSystem.delete: blk_862300265551694573 is added to invalidSet of 10.251.39.64:50010
081110 145518 34 INFO dfs.FSNamesystem: BLOCK* NameSystem.addStoredBlock: blockMap updated: 10.251.199.86:50010 is added to blk_-7814882102630377809 size 67108864
081110 224320 16315 INFO dfs.DataNode$PacketResponder: Received block blk_6150984388545351304 of size 67108864 from /10.250.7.32
081111 031439 18595 INFO dfs.DataNode$PacketResponder: Received block blk_842810621657300290 of size 67108864 from /10.251.193.175
081111 110448 26 INFO dfs.FSNamesystem: BLOCK* NameSystem.delete: blk_-1962256493057425015 is added to invalidSet of 10.251.71.68:50010
081110 222645 16146 INFO dfs.DataNode$PacketResponder: Received block blk_-6749873894190969501 of size 67108864 from /10.251.75.143
081111 044753 19 WARN dfs.FSDataset: Unexpected error trying to delete block blk_8815728754346249469. BlockInfo not found in volumeMap.
081110 121112 10638 INFO dfs.DataNode$PacketResponder: Received block blk_-7295496520228982385 of size 28499503 from /10.251.214.32
081110 150602 12701 INFO dfs.DataNode$PacketResponder: Received block blk_-8774247251026319651 of size 67108864 from /10.251.126.227
081111 024359 31 INFO dfs.FSNamesystem: BLOCK* NameSystem.addStoredBlock: blockMap updated: 10.251.195.52:50010 is added to blk_8270765675035747588 size 67108864
081111 023025 27 INFO dfs.FSNamesystem: BLOCK* NameSystem.delete: blk_3516341297722693697 is added to invalidSet of 10.251.193.175:50010
081110 220852 19 INFO dfs.FSDataset: Deleting block blk_-4387101415169497519 file /mnt/hadoop/dfs/data/current/subdir25/blk_-4387101415169497519
081111 094219 27 INFO dfs.FSNamesystem: BLOCK* NameSystem.addStoredBlock: blockMap updated: 10.251.43.147:50010 is added to blk_-639942488897459922 size 67108864
081111 044348 29 INFO dfs.FSNamesystem: BLOCK* NameSystem.delete: blk_8423480321524790618 is added to invalidSet of 10.251.91.32:50010
081111 092200 30 INFO dfs.FSNamesystem: BLOCK* NameSystem.allocateBlock: /user/root/rand8/_temporary/_task_200811101024_0015_m_000450_0/part-00450. blk_-511760309997082347
081111 085404 31 INFO dfs.FSNamesystem: BLOCK* NameSystem.addStoredBlock: blockMap updated: 10.250.11.194:50010 is added to blk_4261131522031394082 size 3550509
081111 103018 28 INFO dfs.FSNamesystem: BLOCK* NameSystem.allocateBlock: /user/root/randtxt9/_temporary/_task_200811101024_0016_m_000930_0/part-00930. blk_-2012609972499771937
081111 110430 26 INFO dfs.FSNamesystem: BLOCK* NameSystem.delete: blk_-5265310976648884170 is added to invalidSet of 10.250.6.191:50010
081110 105429 9546 INFO dfs.DataNode$PacketResponder: PacketResponder 2 for block blk_544473786980458005 terminating
081111 110443 26 INFO dfs.FSNamesystem: BLOCK* NameSystem.delete: blk_-949894797024274980 is added to invalidSet of 10.251.215.16:50010
081110 221857 16066 INFO dfs.DataNode$PacketResponder: PacketResponder 0 for block blk_-3322966214652655863 terminating
081110 145518 12788 INFO dfs.DataNode$PacketResponder: PacketResponder 2 for block blk_-6026738389277536208 terminating
081111 052921 20955 INFO dfs.DataNode$PacketResponder: PacketResponder 2 for block blk_-7885670265215106587 terminating
081110 210140 28 INFO dfs.FSNamesystem: BLOCK* NameSystem.delete: blk_-5786956549939718789 is added to invalidSet of 10.250.14.196:50010
081110 231248 19 INFO dfs.FSDataset: Deleting block blk_1808957680363088381 file /mnt/hadoop/dfs/data/current/subdir16/blk_1808957680363088381
081111 094131 25632 INFO dfs.DataNode$DataXceiver: Receiving block blk_2352434571530544173 src: /10.251.195.70:50244 dest: /10.251.195.70:50010
081111 070658 31 INFO dfs.FSNamesystem: BLOCK* NameSystem.addStoredBlock: blockMap updated: 10.251.73.220:50010 is added to blk_-6970940027412639015 size 67108864
081110 230102 26 INFO dfs.FSNamesystem: BLOCK* NameSystem.addStoredBlock: blockMap updated: 10.251.106.50:50010 is added to blk_-1042465679114511710 size 67108864
081110 103108 30 INFO dfs.FSNamesystem: BLOCK* NameSystem.delete: blk_-7882728674559364038 is added to invalidSet of 10.251.65.203:50010
081110 212813 15173 INFO dfs.DataNode$DataXceiver: Receiving block blk_-5533877614624584408 src: /10.251.31.5:38048 dest: /10.251.31.5:50010
081110 223542 15804 INFO dfs.DataNode$PacketResponder: Received block blk_1086613672388125708 of size 67108864 from /10.251.122.79
081111 044317 35 INFO dfs.FSNamesystem: BLOCK* NameSystem.delete: blk_7811435791409552951 is added to invalidSet of 10.251.214.112:50010
081110 103058 30 INFO dfs.FSNamesystem: BLOCK* NameSystem.delete: blk_8537760559372853304 is added to invalidSet of 10.251.39.242:50010
081110 103654 19 INFO dfs.FSDataset: Deleting block blk_972815659020481184 file /mnt/hadoop/dfs/data/current/subdir28/blk_972815659020481184
081110 122220 29 INFO dfs.FSNamesystem: BLOCK* NameSystem.addStoredBlock: blockMap updated: 10.251.38.53:50010 is added to blk_4373153197478576502 size 67108864
081110 122617 26 INFO dfs.FSNamesystem: BLOCK* NameSystem.allocateBlock: /user/root/randtxt2/_temporary/_task_200811101024_0002_m_001948_0/part-01948. blk_-5541793772750231717
081109 213148 2303 INFO dfs.DataNode$PacketResponder: Received block blk_5135814656647097522 of size 24787120 from /10.251.193.175
081110 220645 32 INFO dfs.FSNamesystem: BLOCK* NameSystem.delete: blk_5204515180727422266 is added to invalidSet of 10.251.127.47:50010
081110 013838 27 INFO dfs.FSNamesystem: BLOCK* NameSystem.allocateBlock: /user/root/randtxt/_temporary/_task_200811092030_0003_m_001265_0/part-01265. blk_4435752539297990198
081109 204106 30 INFO dfs.FSNamesystem: BLOCK* NameSystem.addStoredBlock: blockMap updated: 10.251.25.237:50010 is added to blk_4296336748908023245 size 67108864
081111 062430 22254 INFO dfs.DataNode$PacketResponder: PacketResponder 0 for block blk_3705007001944734711 terminating
081110 013711 5765 INFO dfs.DataNode$PacketResponder: Received block blk_-4108721488327979822 of size 67108864 from /10.250.7.146
081109 232836 31 INFO dfs.FSNamesystem: BLOCK* NameSystem.addStoredBlock: blockMap updated: 10.251.31.180:50010 is added to blk_-7073177477685201217 size 67108864
081110 145950 27 INFO dfs.FSNamesystem: BLOCK* NameSystem.addStoredBlock: blockMap updated: 10.251.110.196:50010 is added to blk_4943570979058087450 size 67108864
081111 081043 23944 INFO dfs.DataNode$DataXceiver: Receiving block blk_2351096343172798920 src: /10.251.199.19:37873 dest: /10.251.199.19:50010
081110 015748 6221 INFO dfs.DataNode$PacketResponder: PacketResponder 2 for block blk_7610852520755842335 terminating
081111 084856 24627 INFO dfs.DataNode$PacketResponder: Received block blk_3678658109657773250 of size 67108864 from /10.250.9.207
081111 035650 18936 INFO dfs.DataNode$PacketResponder: Received block blk_-8675624907589021049 of size 67108864 from /10.251.66.3
081110 160349 13505 INFO dfs.DataNode$PacketResponder: PacketResponder 1 for block blk_-5718760481540628928 terminating
081110 103547 19 INFO dfs.FSDataset: Deleting block blk_1015109016806279916 file /mnt/hadoop/dfs/data/current/subdir45/blk_1015109016806279916
081111 035331 19074 INFO dfs.DataNode$PacketResponder: Received block blk_-4101570601361459077 of size 67108864 from /10.250.7.96
081111 051228 20872 INFO dfs.DataNode$DataXceiver: Receiving block blk_3947031598260752152 src: /10.251.110.160:41593 dest: /10.251.110.160:50010
081109 210921 35 INFO dfs.FSNamesystem: BLOCK* NameSystem.addStoredBlock: blockMap updated: 10.250.11.194:50010 is added to blk_-7647561627448751321 size 67108864
081110 121117 10794 INFO dfs.DataNode$PacketResponder: Received block blk_5289865755733067935 of size 67108864 from /10.251.30.85
081111 044331 29 INFO dfs.FSNamesystem: BLOCK* NameSystem.delete: blk_-5331306323375654317 is added to invalidSet of 10.251.123.132:50010
081109 211338 1572 INFO dfs.DataNode$DataXceiver: Receiving block blk_442041799034041513 src: /10.250.14.143:34488 dest: /10.250.14.143:50010
081111 065226 26 INFO dfs.FSNamesystem: BLOCK* NameSystem.delete: blk_-4811071280544063487 is added to invalidSet of 10.251.199.86:50010
081111 050407 20254 INFO dfs.DataNode$PacketResponder: Received block blk_9039827380197994727 of size 67108864 from /10.251.123.99
081111 110615 19 INFO dfs.FSDataset: Deleting block blk_2945769782775103479 file /mnt/hadoop/dfs/data/current/subdir51/blk_2945769782775103479
081111 044813 19982 INFO dfs.DataNode$DataXceiver: Receiving block blk_-304725639753474495 src: /10.251.37.240:55281 dest: /10.251.37.240:50010
081110 124054 32 INFO dfs.FSNamesystem: BLOCK* NameSystem.delete: blk_1844832299755722522 is added to invalidSet of 10.250.7.244:50010
081110 151534 13309 INFO dfs.DataNode$DataXceiver: Receiving block blk_3054989655152211666 src: /10.251.71.16:39375 dest: /10.251.71.16:50010
081109 205118 732 INFO dfs.DataNode$PacketResponder: Received block blk_-129061966975050166 of size 67108864 from /10.251.127.191
081110 114256 33 INFO dfs.FSNamesystem: BLOCK* NameSystem.addStoredBlock: blockMap updated: 10.251.43.115:50010 is added to blk_-3418014119482003661 size 67108864
081109 235943 31 INFO dfs.FSNamesystem: BLOCK* NameSystem.allocateBlock: /user/root/sortrand/_temporary/_task_200811092030_0002_r_000311_0/part-00311. blk_179728225387955442
081111 075627 28 INFO dfs.FSNamesystem: BLOCK* NameSystem.delete: blk_6342165685711019815 is added to invalidSet of 10.250.14.143:50010
081109 234527 4269 INFO dfs.DataNode$DataXceiver: Receiving block blk_-5517043910175328380 src: /10.251.214.225:51424 dest: /10.251.214.225:50010
081110 220914 19 INFO dfs.FSDataset: Deleting block blk_-2298918909016407007 file /mnt/hadoop/dfs/data/current/subdir18/blk_-2298918909016407007
081110 134543 12032 WARN dfs.DataNode$DataXceiver: 10.251.193.224:50010:Got exception while serving blk_-1898246733282832207 to /10.251.110.160:
081110 210411 19 INFO dfs.FSDataset: Deleting block blk_-7354405052879586461 file /mnt/hadoop/dfs/data/current/subdir51/blk_-7354405052879586461
081110 222222 15994 INFO dfs.DataNode$DataXceiver: Receiving block blk_-8757550556067517708 src: /10.251.110.160:50826 dest: /10.251.110.160:50010
081109 204042 321 INFO dfs.DataNode$PacketResponder: PacketResponder 1 for block blk_7985524981839863080 terminating
081111 040816 33 INFO dfs.FSNamesystem: BLOCK* NameSystem.addStoredBlock: blockMap updated: 10.251.197.226:50010 is added to blk_6479658424577551361 size 67108864
081109 210914 29 INFO dfs.FSNamesystem: BLOCK* NameSystem.addStoredBlock: blockMap updated: 10.251.65.237:50010 is added to blk_-2918727604221888847 size 67108864
081109 210329 30 INFO dfs.FSNamesystem: BLOCK* NameSystem.addStoredBlock: blockMap updated: 10.251.214.32:50010 is added to blk_-5574421100512866926 size 67108864
081111 095227 34 INFO dfs.FSNamesystem: BLOCK* NameSystem.addStoredBlock: blockMap updated: 10.251.122.65:50010 is added to blk_-3877084187586862831 size 67108864
081111 040921 19619 INFO dfs.DataNode$PacketResponder: Received block blk_-4733939682130250674 of size 67108864 from /10.251.37.240
081109 233953 35 INFO dfs.FSNamesystem: BLOCK* NameSystem.addStoredBlock: blockMap updated: 10.251.75.143:50010 is added to blk_1603589916146501917 size 67108864
081110 113340 10110 INFO dfs.DataNode$PacketResponder: Received block blk_2991267754989731269 of size 67108864 from /10.251.123.1
081111 041737 27 INFO dfs.FSNamesystem: BLOCK* NameSystem.allocateBlock: /user/root/randtxt4/_temporary/_task_200811101024_0010_m_001535_0/part-01535. blk_-5776868936509419759
081110 225618 16729 INFO dfs.DataNode$PacketResponder: PacketResponder 2 for block blk_1071353055810353601 terminating
081111 055319 21669 INFO dfs.DataNode$DataXceiver: Receiving block blk_5291090081229986753 src: /10.251.26.8:46222 dest: /10.251.26.8:50010
081111 032046 18313 INFO dfs.DataNode$PacketResponder: Received block blk_-8292945708106156994 of size 67108864 from /10.251.111.37
081110 110254 28 INFO dfs.FSNamesystem: BLOCK* NameSystem.addStoredBlock: blockMap updated: 10.251.71.146:50010 is added to blk_-7465024292472101136 size 67108864
081111 105224 26981 INFO dfs.DataNode$PacketResponder: Received block blk_-6447196316382559460 of size 67108864 from /10.250.17.177
081110 210624 19 INFO dfs.FSDataset: Deleting block blk_2451632262180822164 file /mnt/hadoop/dfs/data/current/subdir34/blk_2451632262180822164
081110 110608 9615 INFO dfs.DataNode$PacketResponder: Received block blk_-3083853595443254781 of size 67108864 from /10.250.10.213
081111 044654 28 INFO dfs.FSNamesystem: BLOCK* NameSystem.allocateBlock: /user/root/rand5/_temporary/_task_200811101024_0011_m_000369_0/part-00369. blk_-7520410876858380491
081110 223111 16251 INFO dfs.DataNode$PacketResponder: Received block blk_-5545620361754196453 of size 28501212 from /10.250.18.114
081109 213035 2259 INFO dfs.DataNode$DataXceiver: Receiving block blk_-8419546047838232712 src: /10.251.39.179:60245 dest: /10.251.39.179:50010
081111 060845 21675 INFO dfs.DataNode$PacketResponder: PacketResponder 2 for block blk_-8212820216017471521 terminating
081111 065159 35 INFO dfs.FSNamesystem: BLOCK* NameSystem.delete: blk_7495059306641034288 is added to invalidSet of 10.251.106.50:50010
081110 103134 30 INFO dfs.FSNamesystem: BLOCK* NameSystem.delete: blk_-6524841326325516721 is added to invalidSet of 10.251.30.101:50010
081111 101221 31 INFO dfs.FSNamesystem: BLOCK* NameSystem.allocateBlock: /user/root/randtxt9/_temporary/_task_200811101024_0016_m_000336_0/part-00336. blk_8654020442798383300
081111 073057 23475 INFO dfs.DataNode$DataXceiver: Receiving block blk_-5280819570625107879 src: /10.251.67.211:35778 dest: /10.251.67.211:50010
081110 210125 28 INFO dfs.FSNamesystem: BLOCK* NameSystem.delete: blk_-3137808906096601258 is added to invalidSet of 10.251.90.81:50010
081111 105559 27045 INFO dfs.DataNode$DataXceiver: Receiving block blk_7713580019953166200 src: /10.251.90.64:56546 dest: /10.251.90.64:50010
081110 014216 5828 INFO dfs.DataNode$PacketResponder: PacketResponder 2 for block blk_-6654178350789826732 terminating
081110 214359 15313 INFO dfs.DataNode$DataXceiver: Receiving block blk_5404694786965025076 src: /10.251.74.79:54608 dest: /10.251.74.79:50010
081110 210640 19 INFO dfs.FSDataset: Deleting block blk_8508260027835187326 file /mnt/hadoop/dfs/data/current/subdir48/blk_8508260027835187326
081110 210704 19 INFO dfs.FSDataset: Deleting block blk_9160957404287534426 file /mnt/hadoop/dfs/data/current/subdir17/blk_9160957404287534426
081110 215527 15653 INFO dfs.DataNode$PacketResponder: PacketResponder 2 for block blk_-6400603678080971737 terminating
081111 055836 35 INFO dfs.FSNamesystem: BLOCK* NameSystem.addStoredBlock: blockMap updated: 10.250.10.6:50010 is added to blk_8850719077940974763 size 67108864
081110 111011 9782 INFO dfs.DataNode$DataXceiver: Receiving block blk_1899426950232538111 src: /10.251.42.9:59293 dest: /10.251.42.9:50010
081110 215415 15487 INFO dfs.DataNode$DataXceiver: Receiving block blk_-9131063924783871788 src: /10.251.198.196:45323 dest: /10.251.198.196:50010
081110 223503 35 INFO dfs.FSNamesystem: BLOCK* NameSystem.addStoredBlock: blockMap updated: 10.251.91.159:50010 is added to blk_-2310302265375013306 size 67108864
081110 063840 31 INFO dfs.FSNamesystem: BLOCK* NameSystem.addStoredBlock: blockMap updated: 10.251.70.5:50010 is added to blk_-8032627533414800750 size 67108864
081111 033315 19132 INFO dfs.DataNode$PacketResponder: PacketResponder 1 for block blk_6005509374106270852 terminating
081110 214609 15598 INFO dfs.DataNode$PacketResponder: Received block blk_3867360975999838373 of size 67108864 from /10.251.70.112
081111 044730 19 INFO dfs.FSDataset: Deleting block blk_2046797227989586524 file /mnt/hadoop/dfs/data/current/subdir49/blk_2046797227989586524
081110 210745 14419 INFO dfs.DataNode$DataXceiver: Receiving block blk_-1753656160337307977 src: /10.250.17.225:38173 dest: /10.250.17.225:50010
081110 113027 10069 INFO dfs.DataNode$PacketResponder: Received block blk_-6922315915600584772 of size 67108864 from /10.250.9.207
081111 101248 33 INFO dfs.FSNamesystem: BLOCK* NameSystem.addStoredBlock: blockMap updated: 10.251.25.237:50010 is added to blk_1322304967447481164 size 67108864
081111 035918 19363 INFO dfs.DataNode$PacketResponder: PacketResponder 1 for block blk_-9110465057732732622 terminating
081111 041318 33 INFO dfs.FSNamesystem: BLOCK* NameSystem.addStoredBlock: blockMap updated: 10.250.15.67:50010 is added to blk_7781700093703525910 size 28485455
081110 114035 10477 INFO dfs.DataNode$PacketResponder: Received block blk_-4906265459542659703 of size 67108864 from /10.251.67.225
081111 091508 25346 INFO dfs.DataNode$DataXceiver: Receiving block blk_3922036461712048325 src: /10.251.67.225:45555 dest: /10.251.67.225:50010
081111 075819 19 INFO dfs.FSDataset: Deleting block blk_-3257412623104590780 file /mnt/hadoop/dfs/data/current/subdir51/blk_-3257412623104590780
081111 043127 19929 INFO dfs.DataNode$PacketResponder: Received block blk_360602562590547596 of size 67108864 from /10.251.123.132
081110 103036 34 INFO dfs.FSNamesystem: BLOCK* NameSystem.delete: blk_2243428879828619667 is added to invalidSet of 10.251.203.80:50010
081111 075829 19 INFO dfs.FSDataset: Deleting block blk_-4880849881575044858 file /mnt/hadoop/dfs/data/current/subdir42/blk_-4880849881575044858
081111 090137 19 INFO dfs.FSDataset: Deleting block blk_-367370460684124227 file /mnt/hadoop/dfs/data/current/subdir54/blk_-367370460684124227
081111 023504 17794 INFO dfs.DataNode$PacketResponder: Received block blk_2723693447800645978 of size 67108864 from /10.250.13.240
081111 054036 20692 INFO dfs.DataNode$DataXceiver: Receiving block blk_575475927687999155 src: /10.251.26.8:47446 dest: /10.251.26.8:50010
081110 232818 17036 WARN dfs.DataNode$DataXceiver: 10.251.71.97:50010:Got exception while serving blk_-6513686504784027707 to /10.250.6.191:
081111 031517 18148 INFO dfs.DataNode$PacketResponder: PacketResponder 2 for block blk_931058275692492037 terminating
081110 104227 9208 INFO dfs.DataNode$DataXceiver: Receiving block blk_2323000847751198327 src: /10.251.73.220:55657 dest: /10.251.73.220:50010
081111 094348 26159 INFO dfs.DataNode$PacketResponder: Received block blk_-417131317300085512 of size 67108864 from /10.251.106.50
081110 014122 5845 INFO dfs.DataNode$DataXceiver: Receiving block blk_-6863746527750770457 src: /10.251.198.33:58991 dest: /10.251.198.33:50010
081110 082831 8385 WARN dfs.DataNode$DataXceiver: 10.251.215.70:50010:Got exception while serving blk_8128581969420201836 to /10.251.203.246:
081110 112155 9910 INFO dfs.DataNode$PacketResponder: PacketResponder 1 for block blk_-2505827955855023339 terminating
081111 001426 17068 INFO dfs.DataNode$DataXceiver: 10.251.125.193:50010 Served block blk_7058522753312987885 to /10.251.125.237
081111 104533 26584 INFO dfs.DataNode$DataXceiver: Receiving block blk_1224508024571486470 src: /10.251.203.129:38222 dest: /10.251.203.129:50010
081110 220901 18 INFO dfs.FSDataset: Deleting block blk_2569254456089267376 file /mnt/hadoop/dfs/data/current/subdir10/blk_2569254456089267376
081111 063019 22099 INFO dfs.DataNode$PacketResponder: PacketResponder 2 for block blk_-6214249148278253939 terminating
081111 032305 18595 INFO dfs.DataNode$PacketResponder: PacketResponder 1 for block blk_-1784557273559546735 terminating
081111 070448 31 INFO dfs.FSNamesystem: BLOCK* NameSystem.addStoredBlock: blockMap updated: 10.251.70.5:50010 is added to blk_-6869247907774039425 size 67108864
081111 065517 19 INFO dfs.FSDataset: Deleting block blk_4953055385737549931 file /mnt/hadoop/dfs/data/current/subdir6/blk_4953055385737549931
081111 055827 21212 INFO dfs.DataNode$PacketResponder: Received block blk_-7264291909687886173 of size 67108864 from /10.251.39.192
081110 114956 27 INFO dfs.FSNamesystem: BLOCK* NameSystem.addStoredBlock: blockMap updated: 10.251.122.79:50010 is added to blk_7218810749698957 size 67108864
081109 233659 28 INFO dfs.FSNamesystem: BLOCK* NameSystem.allocateBlock: /user/root/sortrand/_temporary/_task_200811092030_0002_r_000143_0/part-00143. blk_-7299179743014662632
081111 080202 33 INFO dfs.FSNamesystem: BLOCK* NameSystem.allocateBlock: /user/root/rand7/_temporary/_task_200811101024_0014_m_000341_0/part-00341. blk_-4336097780735458828
081111 105428 27025 INFO dfs.DataNode$PacketResponder: PacketResponder 1 for block blk_1188904725206475568 terminating
081111 044851 2486 INFO dfs.DataNode$DataXceiver: Receiving block blk_5196718281664847285 src: /10.251.67.225:39822 dest: /10.251.67.225:50010
081110 212523 14956 INFO dfs.DataNode$PacketResponder: Received block blk_-3952320729646666936 of size 67108864 from /10.250.7.244
081110 013730 5578 INFO dfs.DataNode$DataXceiver: Receiving block blk_-4371864339383801832 src: /10.250.15.240:56618 dest: /10.250.15.240:50010
081111 044549 19983 INFO dfs.DataNode$PacketResponder: Received block blk_3569611455775152300 of size 67108864 from /10.251.127.243
081110 103027 34 INFO dfs.FSNamesystem: BLOCK* NameSystem.delete: blk_-672163422170331937 is added to invalidSet of 10.250.10.176:50010
081111 050658 20785 INFO dfs.DataNode$PacketResponder: Received block blk_-4392421936694384617 of size 3535442 from /10.251.195.33
081111 075854 19 INFO dfs.FSDataset: Deleting block blk_-4704316329956694719 file /mnt/hadoop/dfs/data/current/subdir22/blk_-4704316329956694719
081111 080706 23438 INFO dfs.DataNode$PacketResponder: PacketResponder 2 for block blk_-3138830092860132541 terminating
081110 000356 4618 INFO dfs.DataNode$PacketResponder: PacketResponder 1 for block blk_6432110553894888714 terminating
081110 144916 12770 INFO dfs.DataNode$PacketResponder: Received block blk_-8891963739692221302 of size 67108864 from /10.251.91.15
081111 095526 26341 INFO dfs.DataNode$DataXceiver: Receiving block blk_-5432634528672557167 src: /10.251.66.3:51419 dest: /10.251.66.3:50010
081111 031048 18506 INFO dfs.DataNode$DataXceiver: Receiving block blk_2904556704403377562 src: /10.251.70.5:34415 dest: /10.251.70.5:50010
081111 054127 31 INFO dfs.FSNamesystem: BLOCK* NameSystem.allocateBlock: /user/root/rand5/_temporary/_task_200811101024_0011_m_001998_0/part-01998. blk_-1519244047961861311
081111 102223 25016 INFO dfs.DataNode$PacketResponder: PacketResponder 1 for block blk_-7187317195436606271 terminating
081110 222330 16139 INFO dfs.DataNode$PacketResponder: PacketResponder 1 for block blk_6749297471564813453 terminating
081110 000517 4769 INFO dfs.DataNode$PacketResponder: Received block blk_-5613313909856612396 of size 67108864 from /10.251.127.191
081111 023019 27 INFO dfs.FSNamesystem: BLOCK* NameSystem.delete: blk_485141210550090926 is added to invalidSet of 10.251.39.64:50010
081110 221401 31 INFO dfs.FSNamesystem: BLOCK* NameSystem.addStoredBlock: blockMap updated: 10.251.202.181:50010 is added to blk_555276184351469940 size 67108864
081111 065206 26 INFO dfs.FSNamesystem: BLOCK* NameSystem.delete: blk_-8327880931629988643 is added to invalidSet of 10.251.109.236:50010
081111 105830 27324 INFO dfs.DataNode$PacketResponder: PacketResponder 0 for block blk_4328103906281988587 terminating
081109 210219 32 INFO dfs.FSNamesystem: BLOCK* NameSystem.addStoredBlock: blockMap updated: 10.251.107.227:50010 is added to blk_-5315120652832673479 size 67108864
081110 225638 30 INFO dfs.FSNamesystem: BLOCK* NameSystem.addStoredBlock: blockMap updated: 10.250.11.194:50010 is added to blk_-557075608178735460 size 67108864
081111 102830 26676 INFO dfs.DataNode$PacketResponder: Received block blk_2206380726846682785 of size 67108864 from /10.251.105.189
081110 105030 33 INFO dfs.FSNamesystem: BLOCK* NameSystem.allocateBlock: /user/root/rand/_temporary/_task_200811101024_0001_m_000480_0/part-00480. blk_720066678280906970
081110 220910 19 INFO dfs.FSDataset: Deleting block blk_-1853668192776266775 file /mnt/hadoop/dfs/data/current/subdir50/blk_-1853668192776266775
081111 090151 19 INFO dfs.FSDataset: Deleting block blk_7079946392055922676 file /mnt/hadoop/dfs/data/current/subdir29/blk_7079946392055922676
081111 051128 20517 INFO dfs.DataNode$DataXceiver: Receiving block blk_3487529076944309942 src: /10.250.7.146:59697 dest: /10.250.7.146:50010
081110 212405 29 INFO dfs.FSNamesystem: BLOCK* NameSystem.addStoredBlock: blockMap updated: 10.251.122.79:50010 is added to blk_-7199363114941458736 size 67108864
081110 070319 5907 WARN dfs.DataNode$DataXceiver: 10.251.39.160:50010:Got exception while serving blk_2562477907761303700 to /10.251.39.160:
081110 103048 34 INFO dfs.FSNamesystem: BLOCK* NameSystem.delete: blk_7223833693561489305 is added to invalidSet of 10.251.66.63:50010
081110 231235 32 INFO dfs.FSNamesystem: BLOCK* NameSystem.delete: blk_1465591069506011265 is added to invalidSet of 10.251.70.112:50010
081110 015935 6163 INFO dfs.DataNode$PacketResponder: Received block blk_-5960162112165961534 of size 67108864 from /10.251.66.192
081110 040937 13 INFO dfs.DataBlockScanner: Verification succeeded for blk_4648691976952974412
081110 230134 17075 INFO dfs.DataNode$PacketResponder: PacketResponder 0 for block blk_-5122932088809794932 terminating
081111 072019 23015 INFO dfs.DataNode$PacketResponder: PacketResponder 0 for block blk_-5663988163574335457 terminating
081110 011144 31 INFO dfs.FSNamesystem: BLOCK* NameSystem.addStoredBlock: blockMap updated: 10.251.123.132:50010 is added to blk_-4165341949680592974 size 67108864
081111 075126 23809 INFO dfs.DataNode$PacketResponder: PacketResponder 1 for block blk_7790980110012548603 terminating
081110 120428 27 INFO dfs.FSNamesystem: BLOCK* NameSystem.addStoredBlock: blockMap updated: 10.250.14.224:50010 is added to blk_1200101275575405198 size 67108864
081111 083306 24335 INFO dfs.DataNode$PacketResponder: Received block blk_5631536098356343557 of size 67108864 from /10.251.73.188
081111 043046 28 INFO dfs.FSNamesystem: BLOCK* NameSystem.addStoredBlock: blockMap updated: 10.251.91.229:50010 is added to blk_1027488294604411825 size 67108864
081110 014846 5841 INFO dfs.DataNode$PacketResponder: PacketResponder 1 for block blk_-5475927835733705341 terminating
081111 043213 19828 INFO dfs.DataNode$PacketResponder: Received block blk_-8464463327996008360 of size 67108864 from /10.251.215.16
081110 014235 5869 INFO dfs.DataNode$PacketResponder: Received block blk_3769513450775549693 of size 67108864 from /10.251.127.243
081111 054408 26 INFO dfs.FSNamesystem: BLOCK* NameSystem.addStoredBlock: blockMap updated: 10.251.122.38:50010 is added to blk_-8577142021333386690 size 67108864
081110 103557 19 INFO dfs.FSDataset: Deleting block blk_-4426801220336304402 file /mnt/hadoop/dfs/data/current/subdir17/blk_-4426801220336304402
081111 044710 18 INFO dfs.FSDataset: Deleting block blk_-592903683144276393 file /mnt/hadoop/dfs/data/current/subdir33/blk_-592903683144276393
081111 034418 18955 INFO dfs.DataNode$PacketResponder: Received block blk_1932056871399329231 of size 67108864 from /10.251.109.209
081111 072826 23507 INFO dfs.DataNode$DataXceiver: Receiving block blk_8941752134364425609 src: /10.251.75.163:53840 dest: /10.251.75.163:50010
081111 065218 26 INFO dfs.FSNamesystem: BLOCK* NameSystem.delete: blk_-8899905398895333859 is added to invalidSet of 10.250.5.161:50010
081110 212610 15049 INFO dfs.DataNode$PacketResponder: Received block blk_1787791913808907908 of size 67108864 from /10.251.66.102
081110 104223 9287 INFO dfs.DataNode$DataXceiver: Receiving block blk_8356527205701389380 src: /10.250.18.114:32915 dest: /10.250.18.114:50010
081111 105901 33 INFO dfs.FSNamesystem: BLOCK* NameSystem.addStoredBlock: blockMap updated: 10.250.15.198:50010 is added to blk_8155262215623504224 size 67108864
081109 220431 3298 INFO dfs.DataNode$DataXceiver: 10.251.201.204:50010 Served block blk_7519371064508259874 to /10.251.202.209
081111 043016 19943 INFO dfs.DataNode$DataXceiver: Receiving block blk_-2229445388923301925 src: /10.251.65.237:54086 dest: /10.251.65.237:50010
081111 092125 35 INFO dfs.FSNamesystem: BLOCK* NameSystem.allocateBlock: /user/root/rand8/_temporary/_task_200811101024_0015_m_000425_0/part-00425. blk_-4383329737455671190
081110 225811 16658 INFO dfs.DataNode$DataXceiver: Receiving block blk_8384844039342578817 src: /10.250.15.198:56364 dest: /10.250.15.198:50010
081110 114203 10039 INFO dfs.DataNode$PacketResponder: Received block blk_-1432383739114128255 of size 67108864 from /10.250.7.146
081109 204644 574 INFO dfs.DataNode$DataXceiver: Receiving block blk_1261676919178192629 src: /10.251.30.179:55532 dest: /10.251.30.179:50010
081110 014414 5653 INFO dfs.DataNode$PacketResponder: Received block blk_7538894716260990131 of size 67108864 from /10.251.90.134
081110 210121 28 INFO dfs.FSNamesystem: BLOCK* NameSystem.delete: blk_-7637923057510520569 is added to invalidSet of 10.251.126.255:50010
081110 103344 19 INFO dfs.FSDataset: Deleting block blk_-5781048574216447962 file /mnt/hadoop/dfs/data/current/subdir15/blk_-5781048574216447962
081110 000657 4742 INFO dfs.DataNode$PacketResponder: PacketResponder 0 for block blk_514990760009267014 terminating
081111 044349 29 INFO dfs.FSNamesystem: BLOCK* NameSystem.delete: blk_482813787222432352 is added to invalidSet of 10.251.111.80:50010
081110 012726 5584 INFO dfs.DataNode$PacketResponder: PacketResponder 2 for block blk_-3139242857881624584 terminating
081111 044551 19 INFO dfs.FSDataset: Deleting block blk_-9071368111073427772 file /mnt/hadoop/dfs/data/current/subdir58/blk_-9071368111073427772
081110 220644 32 INFO dfs.FSNamesystem: BLOCK* NameSystem.delete: blk_8109544681938818189 is added to invalidSet of 10.250.9.207:50010
081111 075630 28 INFO dfs.FSNamesystem: BLOCK* NameSystem.delete: blk_-302210184646335862 is added to invalidSet of 10.250.7.96:50010
081109 234440 29 INFO dfs.FSNamesystem: BLOCK* NameSystem.addStoredBlock: blockMap updated: 10.251.26.131:50010 is added to blk_-8576862573514929895 size 67108864
081110 210155 28 INFO dfs.FSNamesystem: BLOCK* NameSystem.delete: blk_3306352214377359305 is added to invalidSet of 10.251.214.18:50010
081110 220651 32 INFO dfs.FSNamesystem: BLOCK* NameSystem.delete: blk_2891784975802642848 is added to invalidSet of 10.251.43.21:50010
081110 000709 35 INFO dfs.FSNamesystem: BLOCK* NameSystem.addStoredBlock: blockMap updated: 10.251.109.236:50010 is added to blk_-5967279872331586813 size 67108864
081111 110547 19 INFO dfs.FSDataset: Deleting block blk_5186592780711910321 file /mnt/hadoop/dfs/data/current/subdir30/blk_5186592780711910321
081111 051003 20769 INFO dfs.DataNode$DataXceiver: Receiving block blk_-2473362640208374216 src: /10.251.111.80:45516 dest: /10.251.111.80:50010
081109 222449 3415 WARN dfs.DataNode$DataXceiver: 10.251.125.237:50010:Got exception while serving blk_3165278528141845939 to /10.251.125.237:
081110 210419 19 INFO dfs.FSDataset: Deleting block blk_-6984885958865466717 file /mnt/hadoop/dfs/data/current/subdir60/blk_-6984885958865466717
081111 090052 24486 INFO dfs.DataNode$PacketResponder: Received block blk_2207475638099107368 of size 67108864 from /10.251.31.242
081111 071828 23102 INFO dfs.DataNode$PacketResponder: Received block blk_-7457211227179672335 of size 67108864 from /10.250.19.227
081111 101549 26881 INFO dfs.DataNode$DataXceiver: Receiving block blk_6072437382759638064 src: /10.251.198.33:54335 dest: /10.251.198.33:50010
081111 044319 35 INFO dfs.FSNamesystem: BLOCK* NameSystem.delete: blk_-8932571000265999497 is added to invalidSet of 10.251.111.130:50010
081111 064610 30 INFO dfs.FSNamesystem: BLOCK* NameSystem.addStoredBlock: blockMap updated: 10.250.7.146:50010 is added to blk_3711647084540980447 size 25230010
081110 151059 13049 INFO dfs.DataNode$DataXceiver: Receiving block blk_4262794660169371825 src: /10.251.125.193:36751 dest: /10.251.125.193:50010
081110 114355 10515 INFO dfs.DataNode$PacketResponder: PacketResponder 1 for block blk_-8963100680702994110 terminating
081110 153758 26 INFO dfs.FSNamesystem: BLOCK* NameSystem.addStoredBlock: blockMap updated: 10.251.70.37:50010 is added to blk_-6864710794380012607 size 67108864
081110 213009 32 INFO dfs.FSNamesystem: BLOCK* NameSystem.addStoredBlock: blockMap updated: 10.251.125.193:50010 is added to blk_6916954708274285989 size 67108864
081111 110433 26 INFO dfs.FSNamesystem: BLOCK* NameSystem.delete: blk_1889073469614435085 is added to invalidSet of 10.251.74.227:50010
081110 103114 30 INFO dfs.FSNamesystem: BLOCK* NameSystem.delete: blk_-2551027839944663753 is added to invalidSet of 10.251.107.227:50010
081110 220024 15296 INFO dfs.DataNode$DataXceiver: Receiving block blk_-7234793454570503099 src: /10.251.110.8:48587 dest: /10.251.110.8:50010
081110 144830 12417 INFO dfs.DataNode$PacketResponder: PacketResponder 0 for block blk_-1931958424738647252 terminating
081110 213917 15188 INFO dfs.DataNode$PacketResponder: PacketResponder 0 for block blk_4584618717677908457 terminating
081111 090434 25060 INFO dfs.DataNode$DataXceiver: Receiving block blk_9183439930644615297 src: /10.251.43.210:42191 dest: /10.251.43.210:50010
081111 070414 22720 INFO dfs.DataNode$PacketResponder: PacketResponder 0 for block blk_-3040652544734875200 terminating
081110 105053 26 INFO dfs.FSNamesystem: BLOCK* NameSystem.allocateBlock: /user/root/rand/_temporary/_task_200811101024_0001_m_000040_0/part-00040. blk_-3519948707304590968
081111 053924 21066 INFO dfs.DataNode$PacketResponder: PacketResponder 1 for block blk_5859801634941347932 terminating
081110 013653 5656 INFO dfs.DataNode$PacketResponder: Received block blk_-2463446515493488966 of size 67108864 from /10.250.6.191
081110 103540 19 INFO dfs.FSDataset: Deleting block blk_-543750961692545818 file /mnt/hadoop/dfs/data/current/subdir51/blk_-543750961692545818
081110 110345 9743 INFO dfs.DataNode$PacketResponder: Received block blk_-1714352018257454134 of size 67108864 from /10.250.13.188
081111 033913 18738 INFO dfs.DataNode$PacketResponder: Received block blk_7178126524207988905 of size 67108864 from /10.251.26.131
081111 045341 20312 INFO dfs.DataNode$PacketResponder: PacketResponder 2 for block blk_5542291551444876654 terminating
081110 103058 30 INFO dfs.FSNamesystem: BLOCK* NameSystem.delete: blk_7246680679784476202 is added to invalidSet of 10.251.66.102:50010
081111 102935 26358 INFO dfs.DataNode$PacketResponder: Received block blk_-5624660975922970348 of size 67108864 from /10.251.126.227
081110 215750 15684 INFO dfs.DataNode$DataXceiver: Receiving block blk_-227041835142214526 src: /10.251.74.192:33811 dest: /10.251.74.192:50010
081111 090518 25034 INFO dfs.DataNode$PacketResponder: PacketResponder 2 for block blk_6781302159321807316 terminating
081110 065802 7406 INFO dfs.DataNode$DataXceiver: 10.251.67.4:50010 Served block blk_-3417510644063904923 to /10.251.67.4
081111 043608 20074 INFO dfs.DataNode$PacketResponder: Received block blk_7620753810449698107 of size 67108864 from /10.251.111.228
081110 011926 5306 INFO dfs.DataNode$DataXceiver: Receiving block blk_-886626001298655649 src: /10.250.11.85:34504 dest: /10.250.11.85:50010
081111 070649 34 INFO dfs.FSNamesystem: BLOCK* NameSystem.allocateBlock: /user/root/rand6/_temporary/_task_200811101024_0013_m_000459_0/part-00459. blk_2073983183445816112
081110 071622 7740 INFO dfs.DataNode$DataXceiver: 10.251.202.209:50010 Served block blk_2358053408830850204 to /10.251.202.209
081111 094403 31 INFO dfs.FSNamesystem: BLOCK* NameSystem.addStoredBlock: blockMap updated: 10.251.66.102:50010 is added to blk_3136190605596930687 size 67108864
081110 223222 33 INFO dfs.FSNamesystem: BLOCK* NameSystem.allocateBlock: /user/root/randtxt3/_temporary/_task_200811101024_0007_m_000744_0/part-00744. blk_-691327550993446667
081111 085912 27 INFO dfs.FSNamesystem: BLOCK* NameSystem.delete: blk_-3665695899303771011 is added to invalidSet of 10.251.123.132:50010
081110 010513 5102 INFO dfs.DataNode$DataXceiver: Receiving block blk_-7039260662354351518 src: /10.251.91.159:38249 dest: /10.251.91.159:50010
081110 210546 19 INFO dfs.FSDataset: Deleting block blk_-421024808802515398 file /mnt/hadoop/dfs/data/current/subdir22/blk_-421024808802515398
081109 211706 32 INFO dfs.FSNamesystem: BLOCK* NameSystem.allocateBlock: /user/root/rand/_temporary/_task_200811092030_0001_m_001395_0/part-01395. blk_62870343208424365
081110 145624 34 INFO dfs.FSNamesystem: BLOCK* NameSystem.allocateBlock: /user/root/sortrand2/_temporary/_task_200811101024_0003_r_000013_0/part-00013. blk_-7406381727208079578
081111 093153 25717 INFO dfs.DataNode$PacketResponder: Received block blk_-744290351032007198 of size 67108864 from /10.251.125.193
081110 012820 29 INFO dfs.FSNamesystem: BLOCK* NameSystem.addStoredBlock: blockMap updated: 10.251.91.229:50010 is added to blk_-4178198302509675232 size 67108864
081111 052720 31 INFO dfs.FSNamesystem: BLOCK* NameSystem.addStoredBlock: blockMap updated: 10.251.203.246:50010 is added to blk_-6296084532502997514 size 67108864
081110 220110 34 INFO dfs.FSNamesystem: BLOCK* NameSystem.addStoredBlock: blockMap updated: 10.251.25.237:50010 is added to blk_3612495693199301028 size 67108864
081110 225059 35 INFO dfs.FSNamesystem: BLOCK* NameSystem.allocateBlock: /user/root/randtxt3/_temporary/_task_200811101024_0007_m_001539_0/part-01539. blk_-8872195645123934643
081111 043051 19588 INFO dfs.DataNode$DataXceiver: Receiving block blk_5576541309335137252 src: /10.251.106.214:34962 dest: /10.251.106.214:50010
081111 102919 27010 INFO dfs.DataNode$DataXceiver: Receiving block blk_-2927986935412084931 src: /10.251.71.240:39132 dest: /10.251.71.240:50010
081110 025243 6370 WARN dfs.DataNode$DataXceiver: 10.250.19.227:50010:Got exception while serving blk_7162165518623627449 to /10.251.214.18:
081111 093539 25896 INFO dfs.DataNode$PacketResponder: Received block blk_-6682023766354855331 of size 67108864 from /10.251.106.214
081111 064344 21986 INFO dfs.DataNode$PacketResponder: PacketResponder 0 for block blk_-7730195012971622354 terminating
081109 210406 34 INFO dfs.FSNamesystem: BLOCK* NameSystem.addStoredBlock: blockMap updated: 10.251.71.193:50010 is added to blk_-5561435215997050244 size 67108864
081111 101819 32 INFO dfs.FSNamesystem: BLOCK* NameSystem.addStoredBlock: blockMap updated: 10.251.75.163:50010 is added to blk_7811905935779801757 size 67108864
081111 085322 35 INFO dfs.FSNamesystem: BLOCK* NameSystem.addStoredBlock: blockMap updated: 10.251.39.64:50010 is added to blk_-1313142911478535437 size 37104809
081111 085336 24852 INFO dfs.DataNode$PacketResponder: PacketResponder 1 for block blk_6670158247204074006 terminating
081111 044509 19 INFO dfs.FSDataset: Deleting block blk_-7102719639396096908 file /mnt/hadoop/dfs/data/current/subdir46/blk_-7102719639396096908
081110 020241 6150 INFO dfs.DataNode$PacketResponder: PacketResponder 1 for block blk_906414095188501956 terminating
081111 104829 27029 INFO dfs.DataNode$PacketResponder: PacketResponder 1 for block blk_-1974691653037271010 terminating
081110 103103 30 INFO dfs.FSNamesystem: BLOCK* NameSystem.delete: blk_6246326843675758486 is added to invalidSet of 10.251.31.85:50010
081111 081716 24158 INFO dfs.DataNode$PacketResponder: Received block blk_6771381321161619386 of size 3537903 from /10.251.110.8
081110 192720 14384 INFO dfs.DataNode$DataXceiver: 10.251.75.163:50010 Served block blk_-4337430276496098323 to /10.251.75.163
081111 071800 22975 INFO dfs.DataNode$DataXceiver: Receiving block blk_-5318208011809010215 src: /10.250.15.240:58455 dest: /10.250.15.240:50010
081110 103601 19 INFO dfs.FSDataset: Deleting block blk_4294890772268717350 file /mnt/hadoop/dfs/data/current/subdir36/blk_4294890772268717350
081110 103046 34 INFO dfs.FSNamesystem: BLOCK* NameSystem.delete: blk_-7160754615753644628 is added to invalidSet of 10.250.11.53:50010
081111 075626 28 INFO dfs.FSNamesystem: BLOCK* NameSystem.delete: blk_7846267126449260717 is added to invalidSet of 10.251.39.64:50010
081110 121516 11069 INFO dfs.DataNode$DataXceiver: Receiving block blk_1538864801697713027 src: /10.251.71.97:42016 dest: /10.251.71.97:50010
081111 110416 35 INFO dfs.FSNamesystem: BLOCK* NameSystem.delete: blk_617848213064381723 is added to invalidSet of 10.251.90.134:50010
081109 235254 30 INFO dfs.FSNamesystem: BLOCK* NameSystem.addStoredBlock: blockMap updated: 10.251.91.84:50010 is added to blk_-4887385325862752724 size 67108864
081111 044331 29 INFO dfs.FSNamesystem: BLOCK* NameSystem.delete: blk_130199884380361157 is added to invalidSet of 10.251.31.180:50010
081110 121115 10887 INFO dfs.DataNode$DataXceiver: Receiving block blk_5702270166543211468 src: /10.251.35.1:58936 dest: /10.251.35.1:50010
081110 105419 31 INFO dfs.FSNamesystem: BLOCK* NameSystem.addStoredBlock: blockMap updated: 10.251.27.63:50010 is added to blk_-3285679375756274038 size 67108864
081111 073512 32 INFO dfs.FSNamesystem: BLOCK* NameSystem.addStoredBlock: blockMap updated: 10.251.127.243:50010 is added to blk_1165665503496882298 size 67108864
081110 222314 15597 INFO dfs.DataNode$DataXceiver: Receiving block blk_80638893634964747 src: /10.251.123.99:57923 dest: /10.251.123.99:50010
081110 210838 14754 INFO dfs.DataNode$PacketResponder: PacketResponder 0 for block blk_-8360717913016431156 terminating
081109 234634 31 INFO dfs.FSNamesystem: BLOCK* NameSystem.allocateBlock: /user/root/sortrand/_temporary/_task_200811092030_0002_r_000169_0/part-00169. blk_6400247876184444643
081111 075627 28 INFO dfs.FSNamesystem: BLOCK* NameSystem.delete: blk_-1423960512941585085 is added to invalidSet of 10.251.214.225:50010
081111 072327 23148 INFO dfs.DataNode$DataXceiver: Receiving block blk_-5602499966002096123 src: /10.251.199.159:59013 dest: /10.251.199.159:50010
081111 021015 17640 WARN dfs.DataNode$DataXceiver: 10.251.35.1:50010:Got exception while serving blk_-3975792479668882646 to /10.251.122.65:
081110 214346 15300 INFO dfs.DataNode$PacketResponder: Received block blk_7173132195787076739 of size 67108864 from /10.251.90.81
081111 034630 19179 INFO dfs.DataNode$DataXceiver: Receiving block blk_-7308740437748632316 src: /10.251.106.50:39628 dest: /10.251.106.50:50010
081111 080226 29 INFO dfs.FSNamesystem: BLOCK* NameSystem.addStoredBlock: blockMap updated: 10.251.75.79:50010 is added to blk_3794460287808286233 size 67108864
081111 024954 18042 INFO dfs.DataNode$PacketResponder: Received block blk_2341057332783480722 of size 3549232 from /10.251.31.180
081109 230151 3720 WARN dfs.DataNode$DataXceiver: 10.251.38.197:50010:Got exception while serving blk_8232500565458411190 to /10.251.43.147:
081110 103711 19 INFO dfs.FSDataset: Deleting block blk_6852961120015258037 file /mnt/hadoop/dfs/data/current/subdir12/blk_6852961120015258037
081110 091337 8473 INFO dfs.DataNode$DataXceiver: 10.251.107.227:50010 Served block blk_-349429424757669319 to /10.251.39.64
081110 114104 10548 INFO dfs.DataNode$PacketResponder: Received block blk_5033726910578237482 of size 67108864 from /10.250.11.194
081110 114834 10510 INFO dfs.DataNode$PacketResponder: Received block blk_6080700384842501469 of size 67108864 from /10.250.6.191
081110 112024 9953 INFO dfs.DataNode$PacketResponder: Received block blk_5129321274359334188 of size 67108864 from /10.251.30.101
081110 105903 28 INFO dfs.FSNamesystem: BLOCK* NameSystem.addStoredBlock: blockMap updated: 10.251.123.33:50010 is added to blk_-1619242638103382326 size 67108864
081109 205601 940 INFO dfs.DataNode$PacketResponder: Received block blk_595768770354165821 of size 3541859 from /10.251.31.242
081110 080854 7775 INFO dfs.DataNode$DataXceiver: 10.251.42.9:50010 Served block blk_-5346532754384238621 to /10.251.42.9
081109 235012 4372 INFO dfs.DataNode$DataXceiver: Receiving block blk_4141409673080810601 src: /10.251.199.86:59630 dest: /10.251.199.86:50010
081110 103136 30 INFO dfs.FSNamesystem: BLOCK* NameSystem.delete: blk_4674250374327078459 is added to invalidSet of 10.251.122.79:50010
081110 115914 10703 INFO dfs.DataNode$DataXceiver: Receiving block blk_5777313559899295954 src: /10.251.106.10:45941 dest: /10.251.106.10:50010
081110 214529 27 INFO dfs.FSNamesystem: BLOCK* NameSystem.allocateBlock: /user/root/rand3/_temporary/_task_200811101024_0005_m_001556_0/part-01556. blk_-6327302605689824854
081110 070341 7423 INFO dfs.DataNode$DataXceiver: 10.251.67.113:50010 Served block blk_2513363866563425598 to /10.251.67.113
081110 120917 10967 INFO dfs.DataNode$PacketResponder: Received block blk_-8518638385730637529 of size 67108864 from /10.251.105.189
081111 075901 18 INFO dfs.FSDataset: Deleting block blk_2688690943769452354 file /mnt/hadoop/dfs/data/current/subdir31/blk_2688690943769452354
081111 085912 27 INFO dfs.FSNamesystem: BLOCK* NameSystem.delete: blk_-7187637832374436251 is added to invalidSet of 10.251.38.214:50010
081110 022552 6307 WARN dfs.DataNode$DataXceiver: 10.251.110.8:50010:Got exception while serving blk_1457541974964882092 to /10.251.214.18:
081110 103133 30 INFO dfs.FSNamesystem: BLOCK* NameSystem.delete: blk_4077522991094964037 is added to invalidSet of 10.251.123.33:50010
081109 205158 736 INFO dfs.DataNode$PacketResponder: Received block blk_-6635566905743801707 of size 67108864 from /10.251.110.196
081111 070029 29 INFO dfs.FSNamesystem: BLOCK* NameSystem.addStoredBlock: blockMap updated: 10.251.31.242:50010 is added to blk_4173510564296837096 size 67108864
081111 061616 33 INFO dfs.FSNamesystem: BLOCK* NameSystem.addStoredBlock: blockMap updated: 10.251.123.99:50010 is added to blk_-4192776209467612291 size 67108864
081111 044525 20361 INFO dfs.DataNode$DataXceiver: Receiving block blk_1105005408227645000 src: /10.251.70.211:39276 dest: /10.251.70.211:50010
081110 103403 9097 INFO dfs.DataNode$DataXceiver: Receiving block blk_-611643538674181092 src: /10.251.199.225:46594 dest: /10.251.199.225:50010
081111 092033 25411 INFO dfs.DataNode$PacketResponder: Received block blk_-5466062610839338191 of size 67108864 from /10.251.203.129
081111 041935 19737 INFO dfs.DataNode$PacketResponder: PacketResponder 2 for block blk_-8458479579253549374 terminating
081110 103610 19 INFO dfs.FSDataset: Deleting block blk_1689300934414652111 file /mnt/hadoop/dfs/data/current/subdir33/blk_1689300934414652111
081110 104740 9129 INFO dfs.DataNode$DataXceiver: Receiving block blk_9174493775388084556 src: /10.251.107.242:44364 dest: /10.251.107.242:50010
081110 161500 13417 INFO dfs.DataNode$DataXceiver: Receiving block blk_8427087405656896188 src: /10.251.75.143:43138 dest: /10.251.75.143:50010
081111 074226 23434 INFO dfs.DataNode$PacketResponder: Received block blk_-6675029031769947703 of size 67108864 from /10.251.126.227
081111 060318 31 INFO dfs.FSNamesystem: BLOCK* NameSystem.addStoredBlock: blockMap updated: 10.251.39.160:50010 is added to blk_469135556283161664 size 67108864
081109 213008 28 INFO dfs.FSNamesystem: BLOCK* NameSystem.addStoredBlock: blockMap updated: 10.251.39.179:50010 is added to blk_-9135830366247241739 size 67108864
081111 091654 19 WARN dfs.FSDataset: Unexpected error trying to delete block blk_5440178103369301989. BlockInfo not found in volumeMap.
081111 060847 21884 INFO dfs.DataNode$PacketResponder: Received block blk_459617868688881053 of size 67108864 from /10.251.31.5
081111 071424 22974 INFO dfs.DataNode$DataXceiver: Receiving block blk_-6842677617314248983 src: /10.251.110.8:51719 dest: /10.251.110.8:50010
081111 074808 32 INFO dfs.FSNamesystem: BLOCK* NameSystem.addStoredBlock: blockMap updated: 10.251.91.84:50010 is added to blk_-3676633648901794076 size 25127602
081110 210601 19 INFO dfs.FSDataset: Deleting block blk_-533950123986209605 file /mnt/hadoop/dfs/data/current/subdir49/blk_-533950123986209605
081111 110441 26 INFO dfs.FSNamesystem: BLOCK* NameSystem.delete: blk_458997904230522871 is added to invalidSet of 10.251.70.37:50010
081109 234553 4220 INFO dfs.DataNode$PacketResponder: PacketResponder 0 for block blk_-7600754796296830837 terminating
081110 224923 16619 INFO dfs.DataNode$PacketResponder: Received block blk_8739838276650020750 of size 67108864 from /10.251.123.1
081110 113931 10491 INFO dfs.DataNode$PacketResponder: Received block blk_-917925261308910676 of size 67108864 from /10.251.90.134
081110 214744 15496 INFO dfs.DataNode$DataXceiver: Receiving block blk_2684920382027773504 src: /10.251.43.192:36032 dest: /10.251.43.192:50010
081111 053430 31 INFO dfs.FSNamesystem: BLOCK* NameSystem.addStoredBlock: blockMap updated: 10.251.106.37:50010 is added to blk_6748357365577717405 size 67108864
081110 210552 19 INFO dfs.FSDataset: Deleting block blk_-501900389261482431 file /mnt/hadoop/dfs/data/current/subdir54/blk_-501900389261482431
081111 085921 27 INFO dfs.FSNamesystem: BLOCK* NameSystem.delete: blk_2024957867175891669 is added to invalidSet of 10.251.30.134:50010
081111 093611 25764 INFO dfs.DataNode$DataXceiver: Receiving block blk_-5454605428211433963 src: /10.251.65.237:57284 dest: /10.251.65.237:50010
081111 065404 19 INFO dfs.FSDataset: Deleting block blk_-3440085494952095213 file /mnt/hadoop/dfs/data/current/subdir31/blk_-3440085494952095213
081111 110428 26 INFO dfs.FSNamesystem: BLOCK* NameSystem.delete: blk_2839493485735317222 is added to invalidSet of 10.251.203.166:50010
081111 053818 33 INFO dfs.FSNamesystem: BLOCK* NameSystem.addStoredBlock: blockMap updated: 10.251.38.214:50010 is added to blk_7991131424499689968 size 67108864
081111 025203 17947 INFO dfs.DataNode$PacketResponder: PacketResponder 2 for block blk_616387325368824855 terminating
081109 234247 4129 INFO dfs.DataNode$DataXceiver: Receiving block blk_940332537846618328 src: /10.251.71.193:60502 dest: /10.251.71.193:50010
081110 013310 5573 INFO dfs.DataNode$PacketResponder: PacketResponder 1 for block blk_2436785702869380669 terminating
081110 103727 19 INFO dfs.FSDataset: Deleting block blk_6910855807344227541 file /mnt/hadoop/dfs/data/current/subdir22/blk_6910855807344227541
081111 080506 31 INFO dfs.FSNamesystem: BLOCK* NameSystem.addStoredBlock: blockMap updated: 10.251.74.134:50010 is added to blk_-6350052615512757480 size 67108864
081109 221256 3380 WARN dfs.DataNode$DataXceiver: 10.251.126.83:50010:Got exception while serving blk_8403216798418324335 to /10.251.111.130:
081111 095752 26120 INFO dfs.DataNode$DataXceiver: Receiving block blk_3617274212256521232 src: /10.251.197.161:54601 dest: /10.251.197.161:50010
081110 013533 5647 INFO dfs.DataNode$DataXceiver: Receiving block blk_-4838895837077162772 src: /10.251.65.203:35195 dest: /10.251.65.203:50010
081110 144526 12618 INFO dfs.DataNode$PacketResponder: PacketResponder 1 for block blk_-7145013996275814171 terminating
081110 222219 15910 INFO dfs.DataNode$PacketResponder: Received block blk_-2358343430578842930 of size 67108864 from /10.250.10.223
081111 075631 28 INFO dfs.FSNamesystem: BLOCK* NameSystem.delete: blk_-1653840725245842805 is added to invalidSet of 10.251.70.112:50010
081111 101045 26435 INFO dfs.DataNode$PacketResponder: Received block blk_6423613570195677161 of size 67108864 from /10.251.90.134
081111 102406 26716 INFO dfs.DataNode$PacketResponder: PacketResponder 0 for block blk_-4640771891206286362 terminating
081110 210436 18 INFO dfs.FSDataset: Deleting block blk_-7389943565751816335 file /mnt/hadoop/dfs/data/current/subdir57/blk_-7389943565751816335
081111 080623 23782 INFO dfs.DataNode$PacketResponder: Received block blk_8663571830398761432 of size 67108864 from /10.250.11.53
081111 045706 20532 INFO dfs.DataNode$PacketResponder: Received block blk_-7339090820765332540 of size 67108864 from /10.250.14.38
081110 225437 16641 INFO dfs.DataNode$PacketResponder: PacketResponder 1 for block blk_6333206415375026343 terminating
081110 144155 12651 INFO dfs.DataNode$DataXceiver: Receiving block blk_6396150634158585629 src: /10.251.31.5:36606 dest: /10.251.31.5:50010
081110 103617 19 INFO dfs.FSDataset: Deleting block blk_-150447904549506272 file /mnt/hadoop/dfs/data/current/subdir52/blk_-150447904549506272
081111 075951 19 INFO dfs.FSDataset: Deleting block blk_9211895996122022108 file /mnt/hadoop/dfs/data/current/subdir1/blk_9211895996122022108
081110 220649 32 INFO dfs.FSNamesystem: BLOCK* NameSystem.delete: blk_6271557621969616394 is added to invalidSet of 10.251.37.240:50010
081110 150936 13189 INFO dfs.DataNode$PacketResponder: Received block blk_3839822478977738940 of size 67108864 from /10.250.10.6
081111 024208 30 INFO dfs.FSNamesystem: BLOCK* NameSystem.addStoredBlock: blockMap updated: 10.251.203.149:50010 is added to blk_7153277279025387895 size 67108864
081110 103520 19 INFO dfs.FSDataset: Deleting block blk_91512177750520488 file /mnt/hadoop/dfs/data/current/subdir58/blk_91512177750520488
081110 105353 19 INFO dfs.FSDataset: Deleting block blk_3608376740322928583 file /mnt/hadoop/dfs/data/current/subdir3/blk_3608376740322928583
081110 093346 8854 WARN dfs.DataNode$DataXceiver: 10.250.11.85:50010:Got exception while serving blk_8337383073498958318 to /10.250.11.85:
081111 060844 21631 INFO dfs.DataNode$DataXceiver: Receiving block blk_-7000114055240028332 src: /10.251.31.242:48672 dest: /10.251.31.242:50010
081110 214144 15426 INFO dfs.DataNode$DataXceiver: Receiving block blk_6536266153574466516 src: /10.251.107.19:57220 dest: /10.251.107.19:50010
081110 105658 9242 INFO dfs.DataNode$PacketResponder: Received block blk_-6512770029528995169 of size 67108864 from /10.251.75.163
081110 210412 19 INFO dfs.FSDataset: Deleting block blk_-5037727733656175616 file /mnt/hadoop/dfs/data/current/subdir58/blk_-5037727733656175616
081110 103604 18 INFO dfs.FSDataset: Deleting block blk_5486383645103296350 file /mnt/hadoop/dfs/data/current/subdir18/blk_5486383645103296350
081111 065214 26 INFO dfs.FSNamesystem: BLOCK* NameSystem.delete: blk_-7221058003355258317 is added to invalidSet of 10.251.31.85:50010
081110 222232 16049 INFO dfs.DataNode$PacketResponder: Received block blk_-6267635999687858806 of size 67108864 from /10.251.194.213
081110 081832 8086 INFO dfs.DataNode$DataXceiver: 10.251.107.242:50010 Served block blk_8694256562057715561 to /10.251.195.70
081111 085257 24915 INFO dfs.DataNode$DataXceiver: Receiving block blk_9132341058447931874 src: /10.251.215.16:35718 dest: /10.251.215.16:50010
081110 214952 33 INFO dfs.FSNamesystem: BLOCK* NameSystem.addStoredBlock: blockMap updated: 10.251.35.1:50010 is added to blk_7221561123820463090 size 67108864
081111 090652 24806 INFO dfs.DataNode$DataXceiver: Receiving block blk_-5521186032022228341 src: /10.251.31.160:54210 dest: /10.251.31.160:50010
081110 103047 34 INFO dfs.FSNamesystem: BLOCK* NameSystem.delete: blk_1984806980854216486 is added to invalidSet of 10.251.202.181:50010
081111 094409 25831 INFO dfs.DataNode$PacketResponder: PacketResponder 2 for block blk_8805399457566497247 terminating
081111 104112 30 INFO dfs.FSNamesystem: BLOCK* NameSystem.addStoredBlock: blockMap updated: 10.251.37.240:50010 is added to blk_-5279345049266890716 size 67108864
081111 065506 29 INFO dfs.FSNamesystem: BLOCK* NameSystem.addStoredBlock: blockMap updated: 10.251.123.33:50010 is added to blk_-1301174029034844180 size 67108864
081111 090127 24773 INFO dfs.DataNode$PacketResponder: PacketResponder 1 for block blk_-4421248904116660792 terminating
081111 064319 21961 INFO dfs.DataNode$PacketResponder: Received block blk_-7489043970584980210 of size 67108864 from /10.251.203.4
081110 012102 27 INFO dfs.FSNamesystem: BLOCK* NameSystem.addStoredBlock: blockMap updated: 10.250.10.213:50010 is added to blk_-482873651835594394 size 67108864
081109 234023 4047 INFO dfs.DataNode$DataXceiver: Receiving block blk_2750181939603844613 src: /10.251.194.129:55865 dest: /10.251.194.129:50010
081110 103727 19 INFO dfs.FSDataset: Deleting block blk_7411960517505896288 file /mnt/hadoop/dfs/data/current/subdir50/blk_7411960517505896288
081111 090752 24949 INFO dfs.DataNode$PacketResponder: PacketResponder 1 for block blk_2867110210095901245 terminating
081110 195039 14288 WARN dfs.DataNode$DataXceiver: 10.251.194.129:50010:Got exception while serving blk_-6879275378145267393 to /10.250.10.213:
081111 033113 18966 INFO dfs.DataNode$DataXceiver: Receiving block blk_-9088348860224395094 src: /10.251.27.63:45352 dest: /10.251.27.63:50010
081110 161839 13363 INFO dfs.DataNode$DataXceiver: 10.251.122.65:50010 Served block blk_-9101033088173499960 to /10.251.122.65
081111 094719 25886 INFO dfs.DataNode$PacketResponder: Received block blk_5171389114605818470 of size 67108864 from /10.251.75.228
081111 023030 27 INFO dfs.FSNamesystem: BLOCK* NameSystem.delete: blk_-2111042337828307417 is added to invalidSet of 10.251.66.63:50010
081109 210104 32 INFO dfs.FSNamesystem: BLOCK* NameSystem.addStoredBlock: blockMap updated: 10.251.106.10:50010 is added to blk_-4690340055395514424 size 67108864
081111 035424 19232 INFO dfs.DataNode$PacketResponder: Received block blk_-5828658656009929167 of size 67108864 from /10.251.214.175
081110 231018 16793 INFO dfs.DataNode$DataXceiver: Receiving block blk_-1616051525490403633 src: /10.251.65.203:35897 dest: /10.251.65.203:50010
081110 151540 13251 INFO dfs.DataNode$DataXceiver: Receiving block blk_3389891863786216582 src: /10.251.214.18:42810 dest: /10.251.214.18:50010
081110 010855 5019 INFO dfs.DataNode$DataXceiver: Receiving block blk_-7245547197706611764 src: /10.250.15.67:55799 dest: /10.250.15.67:50010
081111 044332 29 INFO dfs.FSNamesystem: BLOCK* NameSystem.delete: blk_-8607831383731368096 is added to invalidSet of 10.251.203.179:50010
081110 210124 28 INFO dfs.FSNamesystem: BLOCK* NameSystem.delete: blk_-7088218182974110437 is added to invalidSet of 10.251.27.63:50010
081111 070830 22637 INFO dfs.DataNode$PacketResponder: Received block blk_-5427526639333905166 of size 3541389 from /10.251.66.102
081111 075903 19 INFO dfs.FSDataset: Deleting block blk_-192999267073882114 file /mnt/hadoop/dfs/data/current/subdir54/blk_-192999267073882114
081111 083838 24636 INFO dfs.DataNode$DataXceiver: Receiving block blk_6860502138778729510 src: /10.251.214.67:57360 dest: /10.251.214.67:50010
081110 114941 10483 INFO dfs.DataNode$DataXceiver: Receiving block blk_693803054579391616 src: /10.251.75.79:50102 dest: /10.251.75.79:50010
081110 103043 34 INFO dfs.FSNamesystem: BLOCK* NameSystem.delete: blk_-2620164751153735225 is added to invalidSet of 10.251.110.160:50010
081111 110445 26 INFO dfs.FSNamesystem: BLOCK* NameSystem.delete: blk_655120269924802199 is added to invalidSet of 10.251.71.97:50010
081110 110026 9507 INFO dfs.DataNode$DataXceiver: Receiving block blk_-8828852542840252681 src: /10.250.11.53:37980 dest: /10.250.11.53:50010
081111 105822 27187 INFO dfs.DataNode$DataXceiver: Receiving block blk_5142005571553920087 src: /10.251.107.196:39105 dest: /10.251.107.196:50010
081110 210427 19 INFO dfs.FSDataset: Deleting block blk_-4382792755007162749 file /mnt/hadoop/dfs/data/current/subdir49/blk_-4382792755007162749
081110 144050 12255 INFO dfs.DataNode$PacketResponder: Received block blk_-4275890320311320875 of size 67108864 from /10.251.121.224
081110 230827 16857 INFO dfs.DataNode$PacketResponder: Received block blk_8447192480944185599 of size 67108864 from /10.251.67.4
081110 112103 10056 INFO dfs.DataNode$PacketResponder: PacketResponder 0 for block blk_6709491636816874020 terminating
081111 073324 26 INFO dfs.FSNamesystem: BLOCK* NameSystem.allocateBlock: /user/root/rand6/_temporary/_task_200811101024_0013_m_001414_0/part-01414. blk_8325752418615195520
081110 122635 11197 INFO dfs.DataNode$PacketResponder: Received block blk_1178488677913154458 of size 67108864 from /10.251.39.64
081111 045420 20220 INFO dfs.DataNode$PacketResponder: PacketResponder 0 for block blk_8428680627914573307 terminating
081111 074916 23570 INFO dfs.DataNode$PacketResponder: PacketResponder 1 for block blk_4954148682367424650 terminating
081111 024110 17974 INFO dfs.DataNode$PacketResponder: Received block blk_-770155926710032851 of size 67108864 from /10.251.123.1
081111 072554 32 INFO dfs.FSNamesystem: BLOCK* NameSystem.addStoredBlock: blockMap updated: 10.251.43.115:50010 is added to blk_-5094255023873673697 size 3533960
081111 094258 25853 INFO dfs.DataNode$DataXceiver: Receiving block blk_-3728084170447064132 src: /10.251.107.196:47761 dest: /10.251.107.196:50010
081110 015528 6219 INFO dfs.DataNode$DataXceiver: Receiving block blk_1765506300161212385 src: /10.251.27.63:48766 dest: /10.251.27.63:50010
081111 062801 22205 INFO dfs.DataNode$PacketResponder: PacketResponder 2 for block blk_5221095128091391633 terminating
081111 050201 19 INFO dfs.FSDataset: Deleting block blk_-7728590502682425635 file /mnt/hadoop/dfs/data/current/subdir48/blk_-7728590502682425635
081111 094824 25920 INFO dfs.DataNode$PacketResponder: PacketResponder 0 for block blk_2060707554058416048 terminating
081111 071836 22945 INFO dfs.DataNode$DataXceiver: Receiving block blk_-1601323927363289294 src: /10.251.30.6:58484 dest: /10.251.30.6:50010
081110 002341 4856 INFO dfs.DataNode$PacketResponder: PacketResponder 1 for block blk_-7836436408573531487 terminating
081110 214844 15404 INFO dfs.DataNode$DataXceiver: Receiving block blk_4555689050442489796 src: /10.251.43.210:52832 dest: /10.251.43.210:50010
081111 105005 26 INFO dfs.FSNamesystem: BLOCK* NameSystem.addStoredBlock: blockMap updated: 10.251.26.131:50010 is added to blk_6643336202162208277 size 67108864
081111 110202 27340 INFO dfs.DataNode$DataXceiver: Receiving block blk_6320919914034188390 src: /10.251.111.228:34446 dest: /10.251.111.228:50010
081111 034531 18690 INFO dfs.DataNode$DataXceiver: Receiving block blk_-9070315833729392741 src: /10.251.110.68:41168 dest: /10.251.110.68:50010
081110 212344 14854 INFO dfs.DataNode$DataXceiver: Receiving block blk_4460373948645532373 src: /10.251.122.65:42429 dest: /10.251.122.65:50010
081111 044305 35 INFO dfs.FSNamesystem: BLOCK* NameSystem.delete: blk_-589928074292978961 is added to invalidSet of 10.251.203.4:50010
081111 055305 26 INFO dfs.FSNamesystem: BLOCK* NameSystem.addStoredBlock: blockMap updated: 10.251.123.1:50010 is added to blk_6563088260345573304 size 67108864
081111 100406 31 INFO dfs.FSNamesystem: BLOCK* NameSystem.allocateBlock: /user/root/randtxt9/_temporary/_task_200811101024_0016_m_000069_0/part-00069. blk_-6585624382722053511
081110 210523 18 INFO dfs.FSDataset: Deleting block blk_-2036492138614918326 file /mnt/hadoop/dfs/data/current/subdir52/blk_-2036492138614918326
081111 023228 18 INFO dfs.FSDataset: Deleting block blk_-1401404360354546780 file /mnt/hadoop/dfs/data/current/subdir57/blk_-1401404360354546780
081111 084229 24832 INFO dfs.DataNode$PacketResponder: PacketResponder 2 for block blk_2557131174878632536 terminating
081111 044730 18 INFO dfs.FSDataset: Deleting block blk_-1021232360944099173 file /mnt/hadoop/dfs/data/current/subdir34/blk_-1021232360944099173
081110 231107 26 INFO dfs.FSNamesystem: BLOCK* NameSystem.addStoredBlock: blockMap updated: 10.251.65.237:50010 is added to blk_-4843772954904137720 size 67108864
081111 044525 19 INFO dfs.FSDataset: Deleting block blk_-9104749316132628895 file /mnt/hadoop/dfs/data/current/subdir22/blk_-9104749316132628895
081110 082032 8383 INFO dfs.DataNode$DataXceiver: 10.251.67.225:50010 Served block blk_-3740301798936830979 to /10.251.67.225
081110 174727 13818 INFO dfs.DataNode$DataXceiver: 10.251.31.180:50010 Served block blk_-5849889186428636637 to /10.251.31.180
081110 015228 5954 INFO dfs.DataNode$PacketResponder: PacketResponder 1 for block blk_7940642736412722151 terminating
081111 024045 29 INFO dfs.FSNamesystem: BLOCK* NameSystem.addStoredBlock: blockMap updated: 10.250.15.198:50010 is added to blk_-5540174802741809083 size 67108864
081109 205601 915 INFO dfs.DataNode$PacketResponder: Received block blk_3492053299355456617 of size 67108864 from /10.251.214.32
081111 074320 23339 INFO dfs.DataNode$PacketResponder: Received block blk_1373661102672436828 of size 67108864 from /10.251.75.49
081111 110444 26 INFO dfs.FSNamesystem: BLOCK* NameSystem.delete: blk_-735005591539760138 is added to invalidSet of 10.251.123.99:50010
081111 095846 26123 INFO dfs.DataNode$PacketResponder: PacketResponder 1 for block blk_3078249484796211059 terminating
081111 032727 18772 INFO dfs.DataNode$PacketResponder: Received block blk_4363378008976041579 of size 67108864 from /10.251.26.8
081110 064439 7250 INFO dfs.DataNode$PacketResponder: PacketResponder 0 for block blk_8474376244091261322 terminating
081111 061135 21609 INFO dfs.DataNode$PacketResponder: Received block blk_8455692590149873589 of size 67108864 from /10.251.90.81
081109 213408 2387 INFO dfs.DataNode$PacketResponder: PacketResponder 2 for block blk_-7102565913188410852 terminating
081111 110521 19 INFO dfs.FSDataset: Deleting block blk_1288230805628520671 file /mnt/hadoop/dfs/data/current/subdir55/blk_1288230805628520671
081111 091513 25456 INFO dfs.DataNode$PacketResponder: PacketResponder 1 for block blk_-4502701975880131893 terminating
081110 103142 30 INFO dfs.FSNamesystem: BLOCK* NameSystem.delete: blk_6883339929733228878 is added to invalidSet of 10.251.126.22:50010
081110 213224 15096 INFO dfs.DataNode$PacketResponder: PacketResponder 0 for block blk_5252979827716656938 terminating
081110 222309 19 INFO dfs.FSDataset: Deleting block blk_-333106928049680951 file /mnt/hadoop/dfs/data/current/subdir10/blk_-333106928049680951
081110 213515 15164 INFO dfs.DataNode$DataXceiver: Receiving block blk_8232942793101260021 src: /10.251.199.245:49143 dest: /10.251.199.245:50010
081111 025853 34 INFO dfs.FSNamesystem: BLOCK* NameSystem.allocateBlock: /user/root/rand4/_temporary/_task_200811101024_0009_m_000707_0/part-00707. blk_-6995843173133352044
081110 210151 28 INFO dfs.FSNamesystem: BLOCK* NameSystem.delete: blk_5193386802829389084 is added to invalidSet of 10.250.6.223:50010
081111 023039 27 INFO dfs.FSNamesystem: BLOCK* NameSystem.delete: blk_6970175235041019715 is added to invalidSet of 10.251.123.99:50010
081111 044652 19 INFO dfs.FSDataset: Deleting block blk_-5527727696832737323 file /mnt/hadoop/dfs/data/current/subdir23/blk_-5527727696832737323
081111 024003 17486 INFO dfs.DataNode$PacketResponder: Received block blk_-5711930599329328642 of size 67108864 from /10.250.19.16
081110 103139 30 INFO dfs.FSNamesystem: BLOCK* NameSystem.delete: blk_4696685475280145405 is added to invalidSet of 10.251.214.175:50010
081111 064721 22596 INFO dfs.DataNode$DataXceiver: Receiving block blk_4112892442308074339 src: /10.251.123.99:55157 dest: /10.251.123.99:50010
081111 065212 26 INFO dfs.FSNamesystem: BLOCK* NameSystem.delete: blk_-8143047138660311366 is added to invalidSet of 10.251.30.6:50010
081111 062158 22171 INFO dfs.DataNode$PacketResponder: Received block blk_45998252612815256 of size 67108864 from /10.251.39.242
081111 083431 24348 INFO dfs.DataNode$PacketResponder: PacketResponder 0 for block blk_-2261920124190555730 terminating
081111 110435 26 INFO dfs.FSNamesystem: BLOCK* NameSystem.delete: blk_-2587622367663394620 is added to invalidSet of 10.251.107.98:50010
081109 233655 4052 INFO dfs.DataNode$DataXceiver: Receiving block blk_-792883200034177471 src: /10.251.125.237:53451 dest: /10.251.125.237:50010
081111 110441 26 INFO dfs.FSNamesystem: BLOCK* NameSystem.delete: blk_-5438224929600050566 is added to invalidSet of 10.251.126.255:50010
081110 132222 11891 WARN dfs.DataNode$DataXceiver: 10.250.10.223:50010:Got exception while serving blk_-2968635408289437176 to /10.251.123.33:
081109 204229 32 INFO dfs.FSNamesystem: BLOCK* NameSystem.addStoredBlock: blockMap updated: 10.250.9.207:50010 is added to blk_-7818643211542970972 size 67108864
081111 103924 35 INFO dfs.FSNamesystem: BLOCK* NameSystem.addStoredBlock: blockMap updated: 10.251.197.161:50010 is added to blk_3457705235992504598 size 67108864
081111 074757 23725 INFO dfs.DataNode$DataXceiver: Receiving block blk_1631351458126989521 src: /10.250.6.191:37140 dest: /10.250.6.191:50010
081110 103149 30 INFO dfs.FSNamesystem: BLOCK* NameSystem.delete: blk_2848808005838320682 is added to invalidSet of 10.251.199.19:50010
081110 212812 14838 INFO dfs.DataNode$DataXceiver: Receiving block blk_8952826873280947003 src: /10.251.73.220:37464 dest: /10.251.73.220:50010
081109 210656 1334 INFO dfs.DataNode$PacketResponder: PacketResponder 1 for block blk_-2094397855762091248 terminating
081110 070944 7635 INFO dfs.DataNode$DataXceiver: 10.250.10.144:50010 Served block blk_7639491755469429303 to /10.250.10.144
081111 090907 25292 INFO dfs.DataNode$DataXceiver: Receiving block blk_-5467811458680856312 src: /10.250.19.227:39594 dest: /10.250.19.227:50010
081111 085540 31 INFO dfs.FSNamesystem: BLOCK* NameSystem.addStoredBlock: blockMap updated: 10.251.30.179:50010 is added to blk_237518474906625739 size 4848842
081110 151741 13338 INFO dfs.DataNode$PacketResponder: PacketResponder 2 for block blk_-1405091231961881778 terminating
081111 070611 23000 INFO dfs.DataNode$PacketResponder: Received block blk_7321443227124366141 of size 67108864 from /10.251.31.5
081111 081035 24301 INFO dfs.DataNode$PacketResponder: PacketResponder 0 for block blk_7805346930677313641 terminating
081111 074919 34 INFO dfs.FSNamesystem: BLOCK* NameSystem.addStoredBlock: blockMap updated: 10.251.71.68:50010 is added to blk_-8509754785287022620 size 67108864
081110 013557 5714 INFO dfs.DataNode$DataXceiver: Receiving block blk_-934834280018830006 src: /10.251.71.193:36701 dest: /10.251.71.193:50010
081111 044653 19 INFO dfs.FSDataset: Deleting block blk_7687373270013935944 file /mnt/hadoop/dfs/data/current/subdir51/blk_7687373270013935944
081111 084357 24563 INFO dfs.DataNode$PacketResponder: PacketResponder 2 for block blk_-8039935383196015326 terminating
081110 103101 30 INFO dfs.FSNamesystem: BLOCK* NameSystem.delete: blk_-3173654138709649673 is added to invalidSet of 10.251.67.113:50010
081110 002948 28 INFO dfs.FSNamesystem: BLOCK* NameSystem.allocateBlock: /user/root/sortrand/_temporary/_task_200811092030_0002_r_000204_0/part-00204. blk_8598554449292137296
081111 063653 22390 INFO dfs.DataNode$PacketResponder: PacketResponder 2 for block blk_219170045356752700 terminating
081111 093906 32 INFO dfs.FSNamesystem: BLOCK* NameSystem.addStoredBlock: blockMap updated: 10.251.110.160:50010 is added to blk_6835163900866889251 size 67108864
081111 085927 27 INFO dfs.FSNamesystem: BLOCK* NameSystem.delete: blk_-5337860754473454049 is added to invalidSet of 10.251.214.32:50010
081110 220917 19 INFO dfs.FSDataset: Deleting block blk_-1157152813080880349 file /mnt/hadoop/dfs/data/current/blk_-1157152813080880349
081110 015934 6015 INFO dfs.DataNode$PacketResponder: Received block blk_8459794255321443372 of size 67108864 from /10.251.195.52
081111 054955 21591 INFO dfs.DataNode$DataXceiver: Receiving block blk_-2692392502351537566 src: /10.251.107.196:38430 dest: /10.251.107.196:50010
081111 053942 21435 INFO dfs.DataNode$PacketResponder: Received block blk_7332163581705926373 of size 67108864 from /10.251.71.193
081110 210114 28 INFO dfs.FSNamesystem: BLOCK* NameSystem.delete: blk_-5760488995252167695 is added to invalidSet of 10.250.6.214:50010
081111 041123 19753 INFO dfs.DataNode$DataXceiver: Receiving block blk_-865732859401420116 src: /10.251.71.193:39284 dest: /10.251.71.193:50010
081110 022906 6419 INFO dfs.DataNode$DataXceiver: 10.250.10.176:50010 Served block blk_-7616398108065057283 to /10.250.10.176
081111 063641 27 INFO dfs.FSNamesystem: BLOCK* NameSystem.allocateBlock: /user/root/randtxt5/_temporary/_task_200811101024_0012_m_001893_0/part-01893. blk_-2433215204394166062
081111 033353 18494 INFO dfs.DataNode$PacketResponder: PacketResponder 1 for block blk_-1513865159738037213 terminating
081110 105039 9413 INFO dfs.DataNode$DataXceiver: Receiving block blk_856733413502376661 src: /10.251.107.98:44947 dest: /10.251.107.98:50010
081110 223301 15924 INFO dfs.DataNode$PacketResponder: Received block blk_3527785733683347473 of size 67108864 from /10.250.7.96
081111 064814 22594 INFO dfs.DataNode$PacketResponder: PacketResponder 1 for block blk_6880118555509169357 terminating
081111 104313 27136 INFO dfs.DataNode$PacketResponder: Received block blk_-5813329324422455960 of size 67108864 from /10.251.66.192
081111 110557 19 INFO dfs.FSDataset: Deleting block blk_-2575750613757087278 file /mnt/hadoop/dfs/data/current/subdir33/blk_-2575750613757087278
081110 210439 19 INFO dfs.FSDataset: Deleting block blk_-4866922340043193900 file /mnt/hadoop/dfs/data/current/subdir37/blk_-4866922340043193900
081110 230009 16801 INFO dfs.DataNode$PacketResponder: Received block blk_3249225710598176116 of size 67108864 from /10.251.110.68
081110 220832 15869 INFO dfs.DataNode$PacketResponder: PacketResponder 1 for block blk_-6924433845430414368 terminating
081110 220033 15947 INFO dfs.DataNode$DataXceiver: Receiving block blk_-1126640740795207046 src: /10.251.71.97:33972 dest: /10.251.71.97:50010
081111 110552 19 INFO dfs.FSDataset: Deleting block blk_8805040066264938093 file /mnt/hadoop/dfs/data/current/subdir40/blk_8805040066264938093
081109 220827 3288 WARN dfs.DataNode$DataXceiver: 10.251.42.207:50010:Got exception while serving blk_7145723513555360286 to /10.251.65.237:
081110 072542 7875 INFO dfs.DataNode$DataXceiver: 10.251.26.177:50010 Served block blk_1966873061671204185 to /10.250.7.32
081110 210947 14496 INFO dfs.DataNode$DataXceiver: Receiving block blk_6953167929565363501 src: /10.251.43.21:37959 dest: /10.251.43.21:50010
081110 103530 19 INFO dfs.FSDataset: Deleting block blk_-2182349884310940896 file /mnt/hadoop/dfs/data/current/subdir37/blk_-2182349884310940896
081111 044625 19 INFO dfs.FSDataset: Deleting block blk_-3541947873026716249 file /mnt/hadoop/dfs/data/current/subdir54/blk_-3541947873026716249
081110 220831 18 INFO dfs.FSDataset: Deleting block blk_-2901313405764461009 file /mnt/hadoop/dfs/data/current/subdir54/blk_-2901313405764461009
081111 075848 19 INFO dfs.FSDataset: Deleting block blk_2345219251060594159 file /mnt/hadoop/dfs/data/current/subdir35/blk_2345219251060594159
081111 094453 34 INFO dfs.FSNamesystem: BLOCK* NameSystem.addStoredBlock: blockMap updated: 10.251.29.239:50010 is added to blk_1342198664338303799 size 67108864
081110 210114 28 INFO dfs.FSNamesystem: BLOCK* NameSystem.delete: blk_5532332312831492120 is added to invalidSet of 10.251.107.98:50010
081110 215520 15662 INFO dfs.DataNode$DataXceiver: Receiving block blk_7378355392269293129 src: /10.251.67.211:35650 dest: /10.251.67.211:50010
081111 080506 28 INFO dfs.FSNamesystem: BLOCK* NameSystem.allocateBlock: /user/root/rand7/_temporary/_task_200811101024_0014_m_000080_0/part-00080. blk_-6118921894658144161
081111 034901 19354 INFO dfs.DataNode$PacketResponder: PacketResponder 2 for block blk_6166110180778968241 terminating
081111 052030 28 INFO dfs.FSNamesystem: BLOCK* NameSystem.addStoredBlock: blockMap updated: 10.251.30.179:50010 is added to blk_-43631699550152960 size 67108864
081111 034005 31 INFO dfs.FSNamesystem: BLOCK* NameSystem.allocateBlock: /user/root/randtxt4/_temporary/_task_200811101024_0010_m_000077_0/part-00077. blk_4301705833037239856
081109 222926 3585 WARN dfs.DataNode$DataXceiver: 10.251.215.70:50010:Got exception while serving blk_-3636527846375650787 to /10.251.203.246:
081110 122622 11203 INFO dfs.DataNode$PacketResponder: PacketResponder 1 for block blk_-3254806574300428317 terminating
081111 093853 25623 INFO dfs.DataNode$PacketResponder: PacketResponder 0 for block blk_4684370668009493933 terminating
081110 012327 5466 INFO dfs.DataNode$PacketResponder: PacketResponder 2 for block blk_3823790744785968321 terminating
081110 211304 30 INFO dfs.FSNamesystem: BLOCK* NameSystem.addStoredBlock: blockMap updated: 10.251.67.4:50010 is added to blk_-1575748799132829626 size 67108864
081110 110142 9543 INFO dfs.DataNode$PacketResponder: Received block blk_-8736182200737543941 of size 67108864 from /10.250.11.53
081110 015103 5960 INFO dfs.DataNode$PacketResponder: Received block blk_1549180391237328784 of size 67108864 from /10.251.38.214
081110 103054 30 INFO dfs.FSNamesystem: BLOCK* NameSystem.delete: blk_2046418081168782341 is added to invalidSet of 10.251.30.6:50010
081110 122539 11256 INFO dfs.DataNode$PacketResponder: PacketResponder 1 for block blk_8946929688873065676 terminating
081111 065213 26 INFO dfs.FSNamesystem: BLOCK* NameSystem.delete: blk_6364749510857140001 is added to invalidSet of 10.251.126.255:50010
081110 013214 31 INFO dfs.FSNamesystem: BLOCK* NameSystem.addStoredBlock: blockMap updated: 10.251.70.112:50010 is added to blk_4660355240845356258 size 67108864
081111 084535 24768 INFO dfs.DataNode$DataXceiver: Receiving block blk_7675489026275709306 src: /10.250.7.96:38501 dest: /10.250.7.96:50010
081109 211756 1757 INFO dfs.DataNode$PacketResponder: PacketResponder 2 for block blk_-7938380483240703140 terminating
081111 060729 30 INFO dfs.FSNamesystem: BLOCK* NameSystem.allocateBlock: /user/root/randtxt5/_temporary/_task_200811101024_0012_m_000199_0/part-00199. blk_377877822813234382
081110 130759 11665 WARN dfs.DataNode$DataXceiver: 10.251.43.147:50010:Got exception while serving blk_-7432900593660763318 to /10.251.198.196:
081111 074509 23773 INFO dfs.DataNode$PacketResponder: Received block blk_6527822912409847480 of size 67108864 from /10.251.91.229
081111 090138 19 INFO dfs.FSDataset: Deleting block blk_-5706717454945981501 file /mnt/hadoop/dfs/data/current/subdir32/blk_-5706717454945981501
081110 233349 16944 INFO dfs.DataNode$DataXceiver: 10.251.202.209:50010 Served block blk_1097784470141944804 to /10.251.91.159
081111 045340 26 INFO dfs.FSNamesystem: BLOCK* NameSystem.addStoredBlock: blockMap updated: 10.251.70.112:50010 is added to blk_3775386952481575106 size 67108864
081110 103722 19 INFO dfs.FSDataset: Deleting block blk_4569483316451218440 file /mnt/hadoop/dfs/data/current/subdir31/blk_4569483316451218440
081110 210523 19 INFO dfs.FSDataset: Deleting block blk_-6240812191713627921 file /mnt/hadoop/dfs/data/current/subdir50/blk_-6240812191713627921
081110 221112 15681 INFO dfs.DataNode$DataXceiver: Receiving block blk_1888018782604972313 src: /10.251.215.70:40760 dest: /10.251.215.70:50010
081111 082418 24663 INFO dfs.DataNode$DataXceiver: Receiving block blk_7355474959465340153 src: /10.250.7.146:55816 dest: /10.250.7.146:50010
081111 044004 29 INFO dfs.FSNamesystem: BLOCK* NameSystem.allocateBlock: /user/root/randtxt4/_temporary/_task_200811101024_0010_m_001954_0/part-01954. blk_9065376769211008764
081110 000537 4695 INFO dfs.DataNode$DataXceiver: Receiving block blk_-8847343270697559623 src: /10.250.10.100:47136 dest: /10.250.10.100:50010
081110 145543 12804 INFO dfs.DataNode$PacketResponder: PacketResponder 2 for block blk_-3640726547721622062 terminating
081110 001304 28 INFO dfs.FSNamesystem: BLOCK* NameSystem.addStoredBlock: blockMap updated: 10.251.106.50:50010 is added to blk_-7184984841248242404 size 67108864
081109 205957 30 INFO dfs.FSNamesystem: BLOCK* NameSystem.allocateBlock: /user/root/rand/_temporary/_task_200811092030_0001_m_000912_0/part-00912. blk_-3720716751505667491
081111 101327 32 INFO dfs.FSNamesystem: BLOCK* NameSystem.addStoredBlock: blockMap updated: 10.251.126.255:50010 is added to blk_-8002716419591872891 size 67108864
081111 074010 23488 INFO dfs.DataNode$PacketResponder: Received block blk_5187576937473366487 of size 67108864 from /10.250.9.207
081111 072715 22974 INFO dfs.DataNode$PacketResponder: Received block blk_-5208988165219252656 of size 3552175 from /10.251.107.227
081111 110514 19 INFO dfs.FSDataset: Deleting block blk_-4832197132487338365 file /mnt/hadoop/dfs/data/current/subdir52/blk_-4832197132487338365
081110 110329 9676 INFO dfs.DataNode$DataXceiver: Receiving block blk_2797768037467284698 src: /10.251.67.225:46417 dest: /10.251.67.225:50010
081111 050417 35 INFO dfs.FSNamesystem: BLOCK* NameSystem.allocateBlock: /user/root/rand5/_temporary/_task_200811101024_0011_m_000789_0/part-00789. blk_-3335608644815892408
081111 075741 19 INFO dfs.FSDataset: Deleting block blk_-7951745458505738900 file /mnt/hadoop/dfs/data/current/subdir21/blk_-7951745458505738900
081111 023507 19 INFO dfs.FSDataset: Deleting block blk_-605343751348723786 file /mnt/hadoop/dfs/data/current/subdir43/blk_-605343751348723786
081110 124444 11408 WARN dfs.DataNode$DataXceiver: 10.251.107.227:50010:Got exception while serving blk_1616048996053004493 to /10.250.7.32:
081110 014403 5996 INFO dfs.DataNode$PacketResponder: Received block blk_7304855330352525404 of size 67108864 from /10.251.123.20
081110 213837 26 INFO dfs.FSNamesystem: BLOCK* NameSystem.addStoredBlock: blockMap updated: 10.251.111.80:50010 is added to blk_5943971666135620775 size 67108864
081110 210558 19 INFO dfs.FSDataset: Deleting block blk_9117055027716464772 file /mnt/hadoop/dfs/data/current/subdir29/blk_9117055027716464772
081110 210521 19 INFO dfs.FSDataset: Deleting block blk_-1602725092125198240 file /mnt/hadoop/dfs/data/current/subdir3/blk_-1602725092125198240
081110 002524 4908 INFO dfs.DataNode$PacketResponder: PacketResponder 2 for block blk_-3782705677996342004 terminating
081111 074216 28 INFO dfs.FSNamesystem: BLOCK* NameSystem.addStoredBlock: blockMap updated: 10.251.126.255:50010 is added to blk_1591820730057522036 size 67108864
081109 212035 1845 INFO dfs.DataNode$DataXceiver: Receiving block blk_-1487423721267061928 src: /10.251.70.5:45530 dest: /10.251.70.5:50010
081111 041657 19453 INFO dfs.DataNode$DataXceiver: Receiving block blk_-1524648987995506589 src: /10.251.126.255:37832 dest: /10.251.126.255:50010
081110 224902 16595 INFO dfs.DataNode$PacketResponder: PacketResponder 1 for block blk_-45570235681931659 terminating
081110 000802 29 INFO dfs.FSNamesystem: BLOCK* NameSystem.allocateBlock: /user/root/sortrand/_temporary/_task_200811092030_0002_r_000079_0/part-00079. blk_81096539307755214
081111 044807 19 INFO dfs.FSDataset: Deleting block blk_3335640920238079020 file /mnt/hadoop/dfs/data/current/subdir13/blk_3335640920238079020
081109 232446 3881 INFO dfs.DataNode$PacketResponder: Received block blk_8404284056026724757 of size 67108864 from /10.251.123.99
081110 112020 31 INFO dfs.FSNamesystem: BLOCK* NameSystem.addStoredBlock: blockMap updated: 10.251.89.155:50010 is added to blk_-438905916003216335 size 67108864
081110 121345 11086 INFO dfs.DataNode$DataXceiver: Receiving block blk_8438226299984692279 src: /10.251.107.242:34528 dest: /10.251.107.242:50010
081111 052417 21086 INFO dfs.DataNode$DataXceiver: Receiving block blk_-6512190256693999794 src: /10.251.127.47:36776 dest: /10.251.127.47:50010
081110 110425 9513 INFO dfs.DataNode$DataXceiver: Receiving block blk_8791437984208239280 src: /10.251.202.134:59070 dest: /10.251.202.134:50010
081111 110444 26 INFO dfs.FSNamesystem: BLOCK* NameSystem.delete: blk_48972298396134546 is added to invalidSet of 10.250.7.244:50010
081111 024719 17898 INFO dfs.DataNode$PacketResponder: PacketResponder 0 for block blk_8355229189697248669 terminating
081111 023259 18 INFO dfs.FSDataset: Deleting block blk_7173624119005041334 file /mnt/hadoop/dfs/data/current/subdir57/blk_7173624119005041334
081111 044351 29 INFO dfs.FSNamesystem: BLOCK* NameSystem.delete: blk_-1721787701898682142 is added to invalidSet of 10.251.214.18:50010
081110 013013 33 INFO dfs.FSNamesystem: BLOCK* NameSystem.addStoredBlock: blockMap updated: 10.251.110.196:50010 is added to blk_-6090930850175891650 size 67108864
081110 212951 32 INFO dfs.FSNamesystem: BLOCK* NameSystem.allocateBlock: /user/root/rand3/_temporary/_task_200811101024_0005_m_001051_0/part-01051. blk_8569584718663401860
081111 065715 35 INFO dfs.FSNamesystem: BLOCK* NameSystem.addStoredBlock: blockMap updated: 10.251.125.237:50010 is added to blk_6904931656461603590 size 67108864
081111 065619 22509 INFO dfs.DataNode$DataXceiver: Receiving block blk_3734214141465745020 src: /10.251.39.64:38524 dest: /10.251.39.64:50010
081111 075630 28 INFO dfs.FSNamesystem: BLOCK* NameSystem.delete: blk_-8704136815051912715 is added to invalidSet of 10.251.202.181:50010
081111 003303 17314 WARN dfs.DataNode$DataXceiver: 10.250.14.38:50010:Got exception while serving blk_641037339100787554 to /10.250.10.176:
081110 150536 13066 INFO dfs.DataNode$PacketResponder: Received block blk_79520229032778152 of size 67108864 from /10.251.31.242
081110 111905 26 INFO dfs.FSNamesystem: BLOCK* NameSystem.addStoredBlock: blockMap updated: 10.251.70.5:50010 is added to blk_5046820901986209293 size 67108864
081111 044342 29 INFO dfs.FSNamesystem: BLOCK* NameSystem.delete: blk_-3742569648665813528 is added to invalidSet of 10.251.111.80:50010
081109 213531 2449 INFO dfs.DataNode$DataXceiver: Receiving block blk_-8728155839970933730 src: /10.251.75.49:37719 dest: /10.251.75.49:50010
081111 050856 28 INFO dfs.FSNamesystem: BLOCK* NameSystem.addStoredBlock: blockMap updated: 10.251.31.85:50010 is added to blk_-7178441275066240032 size 67108864
081111 090208 19 INFO dfs.FSDataset: Deleting block blk_1084908647464280088 file /mnt/hadoop/dfs/data/current/subdir56/blk_1084908647464280088
081111 081401 24110 INFO dfs.DataNode$PacketResponder: PacketResponder 2 for block blk_-6378123684944296077 terminating
081111 041524 19515 INFO dfs.DataNode$DataXceiver: Receiving block blk_6733387389101765206 src: /10.251.195.70:40912 dest: /10.251.195.70:50010
081110 092144 8631 INFO dfs.DataNode$DataXceiver: 10.251.125.174:50010 Served block blk_582554898837713789 to /10.251.214.112
081111 095155 25959 INFO dfs.DataNode$DataXceiver: Receiving block blk_1032395198018318882 src: /10.251.42.16:56228 dest: /10.251.42.16:50010
081111 035734 19318 INFO dfs.DataNode$DataXceiver: Receiving block blk_-1428661789015584849 src: /10.251.126.22:54867 dest: /10.251.126.22:50010
081110 015456 29 INFO dfs.FSNamesystem: BLOCK* NameSystem.addStoredBlock: blockMap updated: 10.251.123.195:50010 is added to blk_1660570823372711165 size 67108864
081110 220654 32 INFO dfs.FSNamesystem: BLOCK* NameSystem.delete: blk_4116293545964038721 is added to invalidSet of 10.251.123.132:50010
081111 083433 24840 INFO dfs.DataNode$PacketResponder: Received block blk_-376212781058275080 of size 3551779 from /10.251.43.192
081111 080016 23398 INFO dfs.DataNode$DataXceiver: Receiving block blk_-1835077096901016526 src: /10.251.203.166:55840 dest: /10.251.203.166:50010
081110 213723 14712 INFO dfs.DataNode$PacketResponder: PacketResponder 0 for block blk_-5982846804247996462 terminating
081110 115204 10532 INFO dfs.DataNode$DataXceiver: Receiving block blk_-5817111870238139318 src: /10.251.30.6:38180 dest: /10.251.30.6:50010
081111 103214 30 INFO dfs.FSNamesystem: BLOCK* NameSystem.addStoredBlock: blockMap updated: 10.251.70.5:50010 is added to blk_-6126487923240259830 size 67108864
081110 072503 7969 INFO dfs.DataNode$DataXceiver: 10.250.7.96:50010 Served block blk_6344742697828742482 to /10.251.110.196
081110 144714 29 INFO dfs.FSNamesystem: BLOCK* NameSystem.allocateBlock: /user/root/sortrand2/_temporary/_task_200811101024_0003_r_000210_0/part-00210. blk_-3871910519724239561
081111 065221 26 INFO dfs.FSNamesystem: BLOCK* NameSystem.delete: blk_-5089584403211964639 is added to invalidSet of 10.251.203.246:50010
081111 025956 32 INFO dfs.FSNamesystem: BLOCK* NameSystem.allocateBlock: /user/root/rand4/_temporary/_task_200811101024_0009_m_000556_0/part-00556. blk_3363499881352876729
081111 061421 21335 INFO dfs.DataNode$PacketResponder: PacketResponder 1 for block blk_4731310665075814797 terminating
081111 062020 21946 INFO dfs.DataNode$PacketResponder: PacketResponder 2 for block blk_-1120294194743197343 terminating
081109 223532 13 INFO dfs.DataBlockScanner: Verification succeeded for blk_-2746403005109568294
081110 220701 19 INFO dfs.FSNamesystem: BLOCK* ask 10.251.194.102:50010 to replicate blk_2840381344531092349 to datanode(s) 10.251.90.134:50010 10.251.43.115:50010
081111 085928 27 INFO dfs.FSNamesystem: BLOCK* NameSystem.delete: blk_8820344638210570852 is added to invalidSet of 10.251.65.237:50010
081110 111330 35 INFO dfs.FSNamesystem: BLOCK* NameSystem.allocateBlock: /user/root/rand/_temporary/_task_200811101024_0001_m_001549_0/part-01549. blk_6400639257546065810
081110 184733 14307 INFO dfs.DataNode$DataXceiver: 10.250.11.194:50010 Served block blk_-8443946048144773516 to /10.251.75.163
081110 103747 19 INFO dfs.FSDataset: Deleting block blk_7540428597109967786 file /mnt/hadoop/dfs/data/current/subdir0/blk_7540428597109967786
081110 230400 16574 INFO dfs.DataNode$PacketResponder: PacketResponder 1 for block blk_-8066316068784252963 terminating
081110 151018 12958 INFO dfs.DataNode$DataXceiver: Receiving block blk_-6322585784370558189 src: /10.251.90.81:35844 dest: /10.251.90.81:50010
081111 065419 19 INFO dfs.FSDataset: Deleting block blk_-4296129069988915922 file /mnt/hadoop/dfs/data/current/subdir25/blk_-4296129069988915922
081110 072604 7764 INFO dfs.DataNode$DataXceiver: 10.250.9.207:50010 Served block blk_4606385646738118754 to /10.250.9.207
081110 110958 9801 INFO dfs.DataNode$DataXceiver: Receiving block blk_3369161209702571306 src: /10.251.126.5:44774 dest: /10.251.126.5:50010
081111 093850 35 INFO dfs.FSNamesystem: BLOCK* NameSystem.addStoredBlock: blockMap updated: 10.250.9.207:50010 is added to blk_4651926967944568235 size 67108864
081111 042000 34 INFO dfs.FSNamesystem: BLOCK* NameSystem.allocateBlock: /user/root/randtxt4/_temporary/_task_200811101024_0010_m_001396_0/part-01396. blk_2115812308045442842
081111 110530 19 INFO dfs.FSDataset: Deleting block blk_-2981825166110407113 file /mnt/hadoop/dfs/data/current/subdir56/blk_-2981825166110407113
081111 075619 28 INFO dfs.FSNamesystem: BLOCK* NameSystem.delete: blk_-2349500032535162334 is added to invalidSet of 10.251.107.242:50010
081111 011434 17476 WARN dfs.DataNode$DataXceiver: 10.251.66.192:50010:Got exception while serving blk_5827078769918760820 to /10.251.42.16:
081111 103913 30 INFO dfs.FSNamesystem: BLOCK* NameSystem.addStoredBlock: blockMap updated: 10.251.30.101:50010 is added to blk_-5512000355330817483 size 67108864
081110 183121 14168 INFO dfs.DataNode$DataXceiver: 10.250.11.53:50010 Served block blk_9129166271266310341 to /10.250.11.53
081111 081748 24086 INFO dfs.DataNode$DataXceiver: Receiving block blk_-2478232544735253069 src: /10.251.74.79:45746 dest: /10.251.74.79:50010
081110 103633 19 INFO dfs.FSDataset: Deleting block blk_1835522268777915368 file /mnt/hadoop/dfs/data/current/subdir50/blk_1835522268777915368
081111 091308 25135 INFO dfs.DataNode$PacketResponder: PacketResponder 0 for block blk_2352556282743759927 terminating
081110 063802 7278 INFO dfs.DataNode$PacketResponder: Received block blk_-9038540033609117037 of size 67108864 from /10.251.194.129
081111 045759 20559 INFO dfs.DataNode$PacketResponder: Received block blk_4629069683504451410 of size 67108864 from /10.251.203.129
081110 103530 19 INFO dfs.FSDataset: Deleting block blk_-2712879657620330348 file /mnt/hadoop/dfs/data/current/subdir20/blk_-2712879657620330348
081111 025401 30 INFO dfs.FSNamesystem: BLOCK* NameSystem.allocateBlock: /user/root/rand4/_temporary/_task_200811101024_0009_m_000549_0/part-00549. blk_-8472585151117279880
081110 210609 19 INFO dfs.FSDataset: Deleting block blk_-1332589940608846937 file /mnt/hadoop/dfs/data/current/subdir61/blk_-1332589940608846937
081111 063212 33 INFO dfs.FSNamesystem: BLOCK* NameSystem.allocateBlock: /user/root/randtxt5/_temporary/_task_200811101024_0012_m_001238_0/part-01238. blk_1109769834105232699
081111 085907 27 INFO dfs.FSNamesystem: BLOCK* NameSystem.delete: blk_3141141108812175911 is added to invalidSet of 10.251.42.9:50010
081109 234726 35 INFO dfs.FSNamesystem: BLOCK* NameSystem.allocateBlock: /user/root/sortrand/_temporary/_task_200811092030_0002_r_000103_0/part-00103. blk_6088523320136167834
081110 223529 16360 INFO dfs.DataNode$DataXceiver: Receiving block blk_516278503768430491 src: /10.251.127.47:36070 dest: /10.251.127.47:50010
081110 210119 28 INFO dfs.FSNamesystem: BLOCK* NameSystem.delete: blk_1891621287519072551 is added to invalidSet of 10.251.202.181:50010
081111 044331 29 INFO dfs.FSNamesystem: BLOCK* NameSystem.delete: blk_-1700607695162306396 is added to invalidSet of 10.251.38.53:50010
081110 103534 18 INFO dfs.FSDataset: Deleting block blk_-6236777112048312559 file /mnt/hadoop/dfs/data/current/subdir39/blk_-6236777112048312559
081111 033343 18691 INFO dfs.DataNode$PacketResponder: Received block blk_-400403032665207636 of size 67108864 from /10.251.197.161
081110 020614 6273 INFO dfs.DataNode$DataXceiver: Receiving block blk_-46093572998937758 src: /10.251.195.33:58947 dest: /10.251.195.33:50010
081110 150610 27 INFO dfs.FSNamesystem: BLOCK* NameSystem.allocateBlock: /user/root/sortrand2/_temporary/_task_200811101024_0003_r_000262_0/part-00262. blk_-1025851881416390040
081109 233711 3981 INFO dfs.DataNode$PacketResponder: PacketResponder 0 for block blk_8286100011812093332 terminating
081110 123254 10979 INFO dfs.DataNode$PacketResponder: Received block blk_4135833191580180023 of size 67108864 from /10.251.106.37
081110 121259 11025 INFO dfs.DataNode$PacketResponder: Received block blk_8533218662677000222 of size 67108864 from /10.250.14.38
081110 220643 32 INFO dfs.FSNamesystem: BLOCK* NameSystem.delete: blk_6718075201589550524 is added to invalidSet of 10.251.42.207:50010
081111 085910 27 INFO dfs.FSNamesystem: BLOCK* NameSystem.delete: blk_-7052931278454585130 is added to invalidSet of 10.251.106.214:50010
081111 091012 25243 INFO dfs.DataNode$PacketResponder: Received block blk_4508113144575003204 of size 67108864 from /10.251.75.228
081111 023027 27 INFO dfs.FSNamesystem: BLOCK* NameSystem.delete: blk_-3751669113042123131 is added to invalidSet of 10.251.122.65:50010
081111 091327 32 INFO dfs.FSNamesystem: BLOCK* NameSystem.allocateBlock: /user/root/rand8/_temporary/_task_200811101024_0015_m_000680_0/part-00680. blk_-3457192959989617949
081110 010526 4769 INFO dfs.DataNode$PacketResponder: PacketResponder 1 for block blk_8150047286411391602 terminating
081110 214312 33 INFO dfs.FSNamesystem: BLOCK* NameSystem.addStoredBlock: blockMap updated: 10.251.71.97:50010 is added to blk_-6840886360099537644 size 67108864
081110 151823 13366 INFO dfs.DataNode$PacketResponder: Received block blk_-3140083041730001319 of size 67108864 from /10.251.74.134
081111 065211 26 INFO dfs.FSNamesystem: BLOCK* NameSystem.delete: blk_8198486795504019131 is added to invalidSet of 10.250.11.85:50010
081111 044336 29 INFO dfs.FSNamesystem: BLOCK* NameSystem.delete: blk_-1330276962546196603 is added to invalidSet of 10.251.110.8:50010
081109 233912 4263 INFO dfs.DataNode$PacketResponder: PacketResponder 0 for block blk_5965261919840467457 terminating
081111 023019 27 INFO dfs.FSNamesystem: BLOCK* NameSystem.delete: blk_1644051016063015895 is added to invalidSet of 10.251.122.79:50010
081111 031323 18493 INFO dfs.DataNode$DataXceiver: Receiving block blk_-7982175962350265602 src: /10.251.203.166:38469 dest: /10.251.203.166:50010
081110 104120 9200 INFO dfs.DataNode$PacketResponder: Received block blk_-3734253576594717561 of size 67108864 from /10.251.91.229
081110 210526 19 INFO dfs.FSDataset: Deleting block blk_1355089093306344768 file /mnt/hadoop/dfs/data/current/subdir21/blk_1355089093306344768
081111 044314 35 INFO dfs.FSNamesystem: BLOCK* NameSystem.delete: blk_-3975721178843567754 is added to invalidSet of 10.251.110.68:50010
081111 103850 26967 INFO dfs.DataNode$PacketResponder: PacketResponder 1 for block blk_8834700094301310212 terminating
081110 062409 13 INFO dfs.DataBlockScanner: Verification succeeded for blk_-6495416228773023412
081111 082702 24445 INFO dfs.DataNode$PacketResponder: PacketResponder 0 for block blk_-1027061891715168548 terminating
081110 225928 16698 INFO dfs.DataNode$PacketResponder: PacketResponder 1 for block blk_-7430489671116689002 terminating
081110 221158 16004 INFO dfs.DataNode$DataXceiver: Receiving block blk_-3402431221505156462 src: /10.250.11.53:51868 dest: /10.250.11.53:50010
081111 024754 17572 INFO dfs.DataNode$DataXceiver: Receiving block blk_8034260161311892621 src: /10.250.17.177:52701 dest: /10.250.17.177:50010
081111 044748 19 INFO dfs.FSDataset: Deleting block blk_6021585537487317418 file /mnt/hadoop/dfs/data/current/subdir39/blk_6021585537487317418
081111 035922 19430 INFO dfs.DataNode$DataXceiver: Receiving block blk_7185161739968823774 src: /10.251.66.3:53638 dest: /10.251.66.3:50010
081111 054306 21479 INFO dfs.DataNode$DataXceiver: Receiving block blk_3544427251515433363 src: /10.251.107.242:47980 dest: /10.251.107.242:50010
081111 075636 28 INFO dfs.FSNamesystem: BLOCK* NameSystem.delete: blk_-1831572960675704053 is added to invalidSet of 10.251.67.113:50010
081111 090744 28 INFO dfs.FSNamesystem: BLOCK* NameSystem.allocateBlock: /user/root/rand8/_temporary/_task_200811101024_0015_m_000153_0/part-00153. blk_7796317319042251687
081111 104224 26387 INFO dfs.DataNode$PacketResponder: PacketResponder 0 for block blk_5051404946222005576 terminating
081110 220636 32 INFO dfs.FSNamesystem: BLOCK* NameSystem.delete: blk_-8101283606143080390 is added to invalidSet of 10.251.91.32:50010
081110 112640 9987 INFO dfs.DataNode$PacketResponder: Received block blk_300666183982089132 of size 67108864 from /10.251.31.85
081110 213154 14939 INFO dfs.DataNode$DataXceiver: Receiving block blk_-5847870189015106994 src: /10.251.125.237:45901 dest: /10.251.125.237:50010
081111 050249 33 INFO dfs.FSNamesystem: BLOCK* NameSystem.allocateBlock: /user/root/rand5/_temporary/_task_200811101024_0011_m_000535_0/part-00535. blk_7967633693612185253
081111 101231 26377 INFO dfs.DataNode$PacketResponder: PacketResponder 0 for block blk_1186792599337168189 terminating
081110 220930 19 INFO dfs.FSDataset: Deleting block blk_4453939354707890073 file /mnt/hadoop/dfs/data/current/subdir32/blk_4453939354707890073
081110 104813 9298 INFO dfs.DataNode$PacketResponder: PacketResponder 1 for block blk_-5425864862884099906 terminating
081111 042618 19632 INFO dfs.DataNode$PacketResponder: Received block blk_-7856690692589715504 of size 67108864 from /10.251.123.132
081110 011107 27 INFO dfs.FSNamesystem: BLOCK* NameSystem.addStoredBlock: blockMap updated: 10.251.74.79:50010 is added to blk_-7098476389676866552 size 67108864
081110 103628 19 INFO dfs.FSDataset: Deleting block blk_1950196143360611458 file /mnt/hadoop/dfs/data/current/subdir22/blk_1950196143360611458
081110 223152 16112 INFO dfs.DataNode$DataXceiver: Receiving block blk_8887693139099841836 src: /10.251.43.210:52899 dest: /10.251.43.210:50010
081110 012647 27 INFO dfs.FSNamesystem: BLOCK* NameSystem.addStoredBlock: blockMap updated: 10.251.111.228:50010 is added to blk_2121640542374493870 size 67108864
081111 044343 29 INFO dfs.FSNamesystem: BLOCK* NameSystem.delete: blk_-2882247961874423560 is added to invalidSet of 10.251.111.228:50010
081110 012617 5270 INFO dfs.DataNode$PacketResponder: Received block blk_-8762890076147219004 of size 67108864 from /10.251.71.16
081109 233933 4116 INFO dfs.DataNode$PacketResponder: PacketResponder 1 for block blk_-17304039255773292 terminating
081111 023310 19 INFO dfs.FSDataset: Deleting block blk_-81414251439139733 file /mnt/hadoop/dfs/data/current/subdir61/blk_-81414251439139733
081110 210605 19 INFO dfs.FSDataset: Deleting block blk_5938409170872426828 file /mnt/hadoop/dfs/data/current/subdir40/blk_5938409170872426828
081111 083421 24792 INFO dfs.DataNode$PacketResponder: PacketResponder 2 for block blk_8449729896346295690 terminating
081110 230928 16771 INFO dfs.DataNode$PacketResponder: Received block blk_4620944793175615264 of size 67108864 from /10.251.67.211
081110 134536 12112 WARN dfs.DataNode$DataXceiver: 10.251.42.191:50010:Got exception while serving blk_-6656399953983328167 to /10.251.42.191:
081110 202002 14577 INFO dfs.DataNode$DataXceiver: 10.250.11.53:50010 Served block blk_-3016792425375140900 to /10.250.11.53
081110 212926 35 INFO dfs.FSNamesystem: BLOCK* NameSystem.addStoredBlock: blockMap updated: 10.250.15.240:50010 is added to blk_-9185507867013964962 size 67108864
081110 151859 12990 INFO dfs.DataNode$PacketResponder: PacketResponder 0 for block blk_8386253556924012573 terminating
081111 065222 26 INFO dfs.FSNamesystem: BLOCK* NameSystem.delete: blk_557601522395831244 is added to invalidSet of 10.251.107.50:50010
081111 074108 23365 INFO dfs.DataNode$DataXceiver: Receiving block blk_5822198800120097960 src: /10.251.195.52:57836 dest: /10.251.195.52:50010
081110 111039 26 INFO dfs.FSNamesystem: BLOCK* NameSystem.addStoredBlock: blockMap updated: 10.250.13.240:50010 is added to blk_-957334287241205069 size 67108864
081111 091939 25209 INFO dfs.DataNode$PacketResponder: PacketResponder 1 for block blk_4211582756653815270 terminating
081110 210124 28 INFO dfs.FSNamesystem: BLOCK* NameSystem.delete: blk_6095516989969690898 is added to invalidSet of 10.250.10.144:50010
081111 081823 24048 INFO dfs.DataNode$PacketResponder: PacketResponder 2 for block blk_6859750929229754115 terminating
081110 010757 4949 INFO dfs.DataNode$PacketResponder: Received block blk_-7038551857981758986 of size 67108864 from /10.251.203.179
081111 100152 18 INFO dfs.FSDataset: Deleting block blk_2342802793805914273 file /mnt/hadoop/dfs/data/current/subdir54/blk_2342802793805914273
081111 071441 23015 INFO dfs.DataNode$PacketResponder: Received block blk_-233657914466382088 of size 67108864 from /10.251.31.85
081111 081330 23946 INFO dfs.DataNode$DataXceiver: Receiving block blk_4244621539001343517 src: /10.251.214.225:45533 dest: /10.251.214.225:50010
081111 041217 19486 INFO dfs.DataNode$PacketResponder: PacketResponder 2 for block blk_3859360217807584074 terminating
081111 071227 23057 INFO dfs.DataNode$DataXceiver: Receiving block blk_8381051403728475699 src: /10.251.31.242:33405 dest: /10.251.31.242:50010
081110 153618 13178 INFO dfs.DataNode$PacketResponder: Received block blk_-118385587749827090 of size 67108864 from /10.251.66.63
081110 014736 26 INFO dfs.FSNamesystem: BLOCK* NameSystem.addStoredBlock: blockMap updated: 10.250.11.194:50010 is added to blk_4033685361399077879 size 67108864
081111 041559 19870 INFO dfs.DataNode$PacketResponder: PacketResponder 2 for block blk_3321901105780901208 terminating
081110 104639 35 INFO dfs.FSNamesystem: BLOCK* NameSystem.allocateBlock: /user/root/rand/_temporary/_task_200811101024_0001_m_000493_0/part-00493. blk_184410073334038416
081109 203902 272 INFO dfs.DataNode$PacketResponder: PacketResponder 1 for block blk_-4468766313622173914 terminating
081110 224737 16481 INFO dfs.DataNode$DataXceiver: Receiving block blk_-8381804363625847656 src: /10.250.15.101:45134 dest: /10.250.15.101:50010
081110 211011 14701 INFO dfs.DataNode$PacketResponder: Received block blk_2060507709538677559 of size 67108864 from /10.251.107.196
081110 103100 30 INFO dfs.FSNamesystem: BLOCK* NameSystem.delete: blk_-8593166231078141310 is added to invalidSet of 10.251.74.79:50010
081110 195900 14117 INFO dfs.DataNode$DataXceiver: 10.251.90.64:50010 Served block blk_4218446369637861378 to /10.251.90.64
081109 204733 588 INFO dfs.DataNode$DataXceiver: Receiving block blk_6020581958434707871 src: /10.251.201.204:46802 dest: /10.251.201.204:50010
081111 044303 35 INFO dfs.FSNamesystem: BLOCK* NameSystem.delete: blk_-2817799635423836636 is added to invalidSet of 10.251.122.65:50010
081109 212106 1873 INFO dfs.DataNode$DataXceiver: Receiving block blk_6692997572801762503 src: /10.251.194.102:43762 dest: /10.251.194.102:50010
081110 103657 18 INFO dfs.FSDataset: Deleting block blk_2196655365064999766 file /mnt/hadoop/dfs/data/current/subdir47/blk_2196655365064999766
081110 091633 8747 INFO dfs.DataNode$DataXceiver: 10.251.202.209:50010 Served block blk_80725643224150595 to /10.251.90.81
081111 102845 26496 INFO dfs.DataNode$PacketResponder: Received block blk_5657666541394092477 of size 67108864 from /10.251.31.160
081109 212253 28 INFO dfs.FSNamesystem: BLOCK* NameSystem.addStoredBlock: blockMap updated: 10.251.214.225:50010 is added to blk_-6282327771576472147 size 67108864
081110 011059 5272 INFO dfs.DataNode$PacketResponder: Received block blk_6969853470813452500 of size 67108864 from /10.251.127.191
081110 123740 33 INFO dfs.FSNamesystem: BLOCK* NameSystem.addStoredBlock: blockMap updated: 10.251.75.79:50010 is added to blk_-7275151355273428035 size 28476425
081110 113624 34 INFO dfs.FSNamesystem: BLOCK* NameSystem.delete: blk_-2137728313647650436 is added to invalidSet of 10.251.39.242:50010
081111 085426 25074 INFO dfs.DataNode$PacketResponder: PacketResponder 0 for block blk_9026328871340877930 terminating
081110 010925 26 INFO dfs.FSNamesystem: BLOCK* NameSystem.allocateBlock: /user/root/randtxt/_temporary/_task_200811092030_0003_m_000139_0/part-00139. blk_232189775377661619
081111 084140 24695 INFO dfs.DataNode$PacketResponder: Received block blk_-948454813815655271 of size 67108864 from /10.251.70.112
081110 145529 12867 INFO dfs.DataNode$PacketResponder: PacketResponder 2 for block blk_9085101098528746389 terminating
081111 110556 19 INFO dfs.FSDataset: Deleting block blk_-423864405118412168 file /mnt/hadoop/dfs/data/current/subdir13/blk_-423864405118412168
081111 035305 19464 INFO dfs.DataNode$DataXceiver: Receiving block blk_3478452940301725577 src: /10.251.106.37:39985 dest: /10.251.106.37:50010
081111 102325 26249 INFO dfs.DataNode$DataXceiver: Receiving block blk_8226535233808267343 src: /10.251.198.196:53070 dest: /10.251.198.196:50010
081111 044341 29 INFO dfs.FSNamesystem: BLOCK* NameSystem.delete: blk_-4142286760851499760 is added to invalidSet of 10.251.122.65:50010
081111 025114 27 INFO dfs.FSNamesystem: BLOCK* NameSystem.addStoredBlock: blockMap updated: 10.250.18.114:50010 is added to blk_13946447503007073 size 67108864
081111 040940 29 INFO dfs.FSNamesystem: BLOCK* NameSystem.addStoredBlock: blockMap updated: 10.251.127.47:50010 is added to blk_-8215744271465796405 size 67108864
081111 081145 18538 INFO dfs.DataNode$PacketResponder: Received block blk_-6052946791845030506 of size 67108864 from /10.251.123.33
081110 042626 13 INFO dfs.DataBlockScanner: Verification succeeded for blk_-2579829333807303266
081111 053859 21441 INFO dfs.DataNode$DataXceiver: Receiving block blk_977131503469641108 src: /10.251.75.79:33901 dest: /10.251.75.79:50010
081110 204333 13 INFO dfs.DataBlockScanner: Verification succeeded for blk_2454676791122572001
081110 011036 5266 INFO dfs.DataNode$DataXceiver: Receiving block blk_2617608403117414568 src: /10.251.30.179:47148 dest: /10.251.30.179:50010
081111 033336 33 INFO dfs.FSNamesystem: BLOCK* NameSystem.allocateBlock: /user/root/rand4/_temporary/_task_200811101024_0009_m_001980_0/part-01980. blk_4173823786002082008
081111 084738 27 INFO dfs.FSNamesystem: BLOCK* NameSystem.addStoredBlock: blockMap updated: 10.250.15.198:50010 is added to blk_-2846876272147291267 size 67108864
081111 073734 31 INFO dfs.FSNamesystem: BLOCK* NameSystem.addStoredBlock: blockMap updated: 10.251.89.155:50010 is added to blk_1128947612415237968 size 67108864
081110 210755 14616 INFO dfs.DataNode$DataXceiver: Receiving block blk_-8139681171159323389 src: /10.251.199.19:53315 dest: /10.251.199.19:50010
081111 044345 29 INFO dfs.FSNamesystem: BLOCK* NameSystem.delete: blk_-2432393949501030911 is added to invalidSet of 10.251.30.134:50010
081111 065207 26 INFO dfs.FSNamesystem: BLOCK* NameSystem.delete: blk_7610481955521689069 is added to invalidSet of 10.251.107.50:50010
081110 014846 5893 INFO dfs.DataNode$PacketResponder: PacketResponder 0 for block blk_-8825814812523836847 terminating
081111 100717 31 INFO dfs.FSNamesystem: BLOCK* NameSystem.allocateBlock: /user/root/randtxt9/_temporary/_task_200811101024_0016_m_000313_0/part-00313. blk_-742412239422901474
081110 145149 30 INFO dfs.FSNamesystem: BLOCK* NameSystem.addStoredBlock: blockMap updated: 10.251.107.98:50010 is added to blk_2916703503744868979 size 67108864
081111 023010 27 INFO dfs.FSNamesystem: BLOCK* NameSystem.delete: blk_3535132016060207722 is added to invalidSet of 10.251.39.179:50010
081110 150014 27 INFO dfs.FSNamesystem: BLOCK* NameSystem.addStoredBlock: blockMap updated: 10.250.10.213:50010 is added to blk_-7492128450570651204 size 67108864
081110 013942 5788 INFO dfs.DataNode$DataXceiver: Receiving block blk_6225853064096977096 src: /10.250.6.214:56682 dest: /10.250.6.214:50010
081110 105441 28 INFO dfs.FSNamesystem: BLOCK* NameSystem.allocateBlock: /user/root/rand/_temporary/_task_200811101024_0001_m_000848_0/part-00848. blk_-6921080208388152392
081110 212329 14784 INFO dfs.DataNode$DataXceiver: Receiving block blk_8473858691873523269 src: /10.250.11.53:60609 dest: /10.250.11.53:50010
081110 130803 11628 INFO dfs.DataNode$DataXceiver: 10.251.214.67:50010 Served block blk_-1725381865433936324 to /10.251.214.67
081111 082942 24574 INFO dfs.DataNode$DataXceiver: Receiving block blk_-6776330819536459101 src: /10.250.15.101:55803 dest: /10.250.15.101:50010
081111 034141 19155 INFO dfs.DataNode$PacketResponder: Received block blk_7377090944735441358 of size 67108864 from /10.251.91.15
081110 210143 28 INFO dfs.FSNamesystem: BLOCK* NameSystem.delete: blk_7826982459275624658 is added to invalidSet of 10.250.7.146:50010
081110 211619 35 INFO dfs.FSNamesystem: BLOCK* NameSystem.allocateBlock: /user/root/rand3/_temporary/_task_200811101024_0005_m_000515_0/part-00515. blk_-5489427007418208692
081111 002051 17295 INFO dfs.DataNode$DataXceiver: 10.251.110.8:50010 Served block blk_4987036164302200913 to /10.251.71.68
081110 210325 19 INFO dfs.FSDataset: Deleting block blk_-8444516143096045209 file /mnt/hadoop/dfs/data/current/subdir24/blk_-8444516143096045209
081110 210505 19 INFO dfs.FSDataset: Deleting block blk_7756952444741847347 file /mnt/hadoop/dfs/data/current/subdir38/blk_7756952444741847347
081110 061616 7229 INFO dfs.DataNode$DataXceiver: 10.251.110.196:50010 Served block blk_1954552554538562573 to /10.251.110.196
081111 075637 28 INFO dfs.FSNamesystem: BLOCK* NameSystem.delete: blk_-2499982167444341606 is added to invalidSet of 10.251.74.227:50010
081110 015659 6160 INFO dfs.DataNode$DataXceiver: Receiving block blk_3625623727320076259 src: /10.251.195.33:39813 dest: /10.251.195.33:50010
081111 025817 18084 INFO dfs.DataNode$PacketResponder: Received block blk_-33976393667277707 of size 67108864 from /10.251.109.209
081110 075733 13 INFO dfs.DataBlockScanner: Verification succeeded for blk_1744432644546189397
081110 144700 12390 INFO dfs.DataNode$PacketResponder: PacketResponder 0 for block blk_-7319140461983732901 terminating
081109 213218 2286 INFO dfs.DataNode$DataXceiver: Receiving block blk_1109071345515528746 src: /10.250.10.213:51900 dest: /10.250.10.213:50010
081110 104625 9349 INFO dfs.DataNode$DataXceiver: Receiving block blk_334254430214946709 src: /10.251.39.242:43217 dest: /10.251.39.242:50010
081109 205017 724 INFO dfs.DataNode$PacketResponder: Received block blk_-4782664375049409966 of size 67108864 from /10.250.15.101
081111 070700 29 INFO dfs.FSNamesystem: BLOCK* NameSystem.allocateBlock: /user/root/rand6/_temporary/_task_200811101024_0013_m_000060_0/part-00060. blk_-4210336277901872319
081111 044303 35 INFO dfs.FSNamesystem: BLOCK* NameSystem.delete: blk_1238367276972502574 is added to invalidSet of 10.251.90.239:50010
081110 103130 30 INFO dfs.FSNamesystem: BLOCK* NameSystem.delete: blk_-8190984833988390657 is added to invalidSet of 10.251.193.175:50010
081109 210943 1436 INFO dfs.DataNode$PacketResponder: PacketResponder 1 for block blk_4044151034542205870 terminating
081110 120434 10595 INFO dfs.DataNode$DataXceiver: Receiving block blk_-2631930129654753993 src: /10.251.201.204:48621 dest: /10.251.201.204:50010
081111 075628 28 INFO dfs.FSNamesystem: BLOCK* NameSystem.delete: blk_-3288802684368311546 is added to invalidSet of 10.251.109.236:50010
081110 150211 13097 INFO dfs.DataNode$DataXceiver: Receiving block blk_-2170642653698973259 src: /10.251.125.174:52556 dest: /10.251.125.174:50010
081110 225424 26 INFO dfs.FSNamesystem: BLOCK* NameSystem.allocateBlock: /user/root/randtxt3/_temporary/_task_200811101024_0007_m_001442_0/part-01442. blk_1250122213630631824
081110 152023 13157 INFO dfs.DataNode$PacketResponder: Received block blk_-5580032703558941916 of size 67108864 from /10.251.74.227
081110 114223 10249 INFO dfs.DataNode$DataXceiver: Receiving block blk_2329794227746230787 src: /10.251.199.19:55296 dest: /10.251.199.19:50010
081111 065452 19 INFO dfs.FSDataset: Deleting block blk_2425541820108259423 file /mnt/hadoop/dfs/data/current/subdir20/blk_2425541820108259423
081111 090102 19 INFO dfs.FSDataset: Deleting block blk_-4247128986475724000 file /mnt/hadoop/dfs/data/current/subdir63/blk_-4247128986475724000
081110 233152 13 INFO dfs.DataBlockScanner: Verification succeeded for blk_6368743399530585903
081111 065217 26 INFO dfs.FSNamesystem: BLOCK* NameSystem.delete: blk_8474244004111355149 is added to invalidSet of 10.251.26.177:50010
081109 205740 33 INFO dfs.FSNamesystem: BLOCK* NameSystem.addStoredBlock: blockMap updated: 10.251.123.99:50010 is added to blk_265928931807737161 size 67108864
081111 071344 22967 INFO dfs.DataNode$PacketResponder: PacketResponder 0 for block blk_-5389609597101646845 terminating
081110 113306 32 INFO dfs.FSNamesystem: BLOCK* NameSystem.addStoredBlock: blockMap updated: 10.251.42.246:50010 is added to blk_-5292062115466336989 size 67108864
081110 152512 13134 INFO dfs.DataNode$PacketResponder: PacketResponder 2 for block blk_-7677758895877501239 terminating
081111 095414 25734 INFO dfs.DataNode$DataXceiver: Receiving block blk_-2990032370397369699 src: /10.251.198.196:52539 dest: /10.251.198.196:50010
081110 020449 6240 INFO dfs.DataNode$PacketResponder: PacketResponder 0 for block blk_4400781021641777402 terminating
081110 103042 34 INFO dfs.FSNamesystem: BLOCK* NameSystem.delete: blk_969583718720410930 is added to invalidSet of 10.251.198.196:50010
081111 102055 26586 INFO dfs.DataNode$PacketResponder: Received block blk_7158641624282045520 of size 67108864 from /10.251.91.84
081110 122147 33 INFO dfs.FSNamesystem: BLOCK* NameSystem.addStoredBlock: blockMap updated: 10.250.5.161:50010 is added to blk_-6526212428936776156 size 67108864
081110 224810 16739 INFO dfs.DataNode$PacketResponder: Received block blk_-1521979962794468047 of size 67108864 from /10.251.25.237
081110 103526 19 INFO dfs.FSDataset: Deleting block blk_-3608030295484274759 file /mnt/hadoop/dfs/data/current/subdir3/blk_-3608030295484274759
081110 225506 30 INFO dfs.FSNamesystem: BLOCK* NameSystem.addStoredBlock: blockMap updated: 10.251.125.193:50010 is added to blk_657889682384739410 size 67108864
081111 035842 32 INFO dfs.FSNamesystem: BLOCK* NameSystem.allocateBlock: /user/root/randtxt4/_temporary/_task_200811101024_0010_m_000703_0/part-00703. blk_3469455354731837480
081110 014936 5777 INFO dfs.DataNode$PacketResponder: Received block blk_-1383820246468738330 of size 67108864 from /10.251.203.149
081111 071850 23062 INFO dfs.DataNode$DataXceiver: Receiving block blk_6722112801850888543 src: /10.251.110.8:33265 dest: /10.251.110.8:50010
081110 213602 15419 INFO dfs.DataNode$PacketResponder: Received block blk_-3745001906507188113 of size 67108864 from /10.251.27.63
081111 042620 19883 INFO dfs.DataNode$PacketResponder: PacketResponder 0 for block blk_5210509102991576671 terminating
081111 110445 26 INFO dfs.FSNamesystem: BLOCK* NameSystem.delete: blk_5881061110925328983 is added to invalidSet of 10.251.70.211:50010
081110 011004 13 INFO dfs.DataBlockScanner: Verification succeeded for blk_-3282256698951529384
081110 225813 16775 INFO dfs.DataNode$DataXceiver: Receiving block blk_4751451837313783855 src: /10.251.91.15:59563 dest: /10.251.91.15:50010
081110 103303 8892 INFO dfs.DataNode$DataXceiver: Receiving block blk_-46084411667768242 src: /10.251.107.242:55022 dest: /10.251.107.242:50010
081111 052300 29 INFO dfs.FSNamesystem: BLOCK* NameSystem.addStoredBlock: blockMap updated: 10.251.194.213:50010 is added to blk_-4328674900801494682 size 67108864
081110 103506 19 INFO dfs.FSDataset: Deleting block blk_-6548103079578358652 file /mnt/hadoop/dfs/data/current/subdir19/blk_-6548103079578358652
081111 044321 35 INFO dfs.FSNamesystem: BLOCK* NameSystem.delete: blk_-6001028312585441007 is added to invalidSet of 10.251.198.196:50010
081111 102514 26610 INFO dfs.DataNode$PacketResponder: Received block blk_8339811461124602486 of size 67108864 from /10.251.30.101
081111 075625 28 INFO dfs.FSNamesystem: BLOCK* NameSystem.delete: blk_-397217806874281228 is added to invalidSet of 10.251.111.228:50010
081110 211245 14822 INFO dfs.DataNode$PacketResponder: Received block blk_-386899289098598962 of size 67108864 from /10.251.31.5
081110 210153 28 INFO dfs.FSNamesystem: BLOCK* NameSystem.delete: blk_-2404001641486865272 is added to invalidSet of 10.251.90.81:50010
081111 091304 25396 INFO dfs.DataNode$PacketResponder: Received block blk_-5008163677701757374 of size 3538273 from /10.250.14.196
081111 044343 29 INFO dfs.FSNamesystem: BLOCK* NameSystem.delete: blk_5475744959399005341 is added to invalidSet of 10.251.75.49:50010
081109 233350 3946 INFO dfs.DataNode$PacketResponder: PacketResponder 0 for block blk_-385377087387353305 terminating
081110 103238 18 INFO dfs.FSDataset: Deleting block blk_-8638539150544494865 file /mnt/hadoop/dfs/data/current/subdir43/blk_-8638539150544494865
081111 035212 19119 INFO dfs.DataNode$PacketResponder: PacketResponder 2 for block blk_-2235237060010565130 terminating
081110 210123 28 INFO dfs.FSNamesystem: BLOCK* NameSystem.delete: blk_-3502470476191635170 is added to invalidSet of 10.251.111.80:50010
081111 065223 26 INFO dfs.FSNamesystem: BLOCK* NameSystem.delete: blk_8218963071485718750 is added to invalidSet of 10.251.107.242:50010
081111 110445 26 INFO dfs.FSNamesystem: BLOCK* NameSystem.delete: blk_6824986731948753633 is added to invalidSet of 10.251.39.64:50010
081110 212551 14950 INFO dfs.DataNode$PacketResponder: PacketResponder 1 for block blk_-6595528364624174926 terminating
081111 073025 23000 INFO dfs.DataNode$PacketResponder: Received block blk_-2878413400718600624 of size 67108864 from /10.251.90.239
081111 102443 26862 INFO dfs.DataNode$PacketResponder: PacketResponder 1 for block blk_6367407601330149696 terminating
081111 033819 34 INFO dfs.FSNamesystem: BLOCK* NameSystem.delete: blk_-8241452731920504636 is added to invalidSet of 10.251.70.112:50010
081109 211259 26 INFO dfs.FSNamesystem: BLOCK* NameSystem.addStoredBlock: blockMap updated: 10.250.17.225:50010 is added to blk_-6156061663874083659 size 67108864
081111 044322 35 INFO dfs.FSNamesystem: BLOCK* NameSystem.delete: blk_-7985048804354692377 is added to invalidSet of 10.251.42.84:50010
081110 210134 28 INFO dfs.FSNamesystem: BLOCK* NameSystem.delete: blk_-4394895436677720375 is added to invalidSet of 10.250.10.176:50010
081110 121626 10917 INFO dfs.DataNode$DataXceiver: Receiving block blk_8395304696510720663 src: /10.251.71.146:49798 dest: /10.251.71.146:50010
081111 040634 19509 INFO dfs.DataNode$DataXceiver: Receiving block blk_-4426029798507330296 src: /10.251.111.209:40680 dest: /10.251.111.209:50010
081111 110436 26 INFO dfs.FSNamesystem: BLOCK* NameSystem.delete: blk_-3879904957228157514 is added to invalidSet of 10.250.15.198:50010
081111 082354 24150 INFO dfs.DataNode$PacketResponder: PacketResponder 0 for block blk_6138628774817531557 terminating
081110 010907 5201 INFO dfs.DataNode$DataXceiver: Receiving block blk_3890110403591666232 src: /10.251.123.132:38897 dest: /10.251.123.132:50010
081110 071401 7622 INFO dfs.DataNode$DataXceiver: 10.251.70.37:50010 Served block blk_-6089206130974827360 to /10.251.197.226
081110 212011 14603 INFO dfs.DataNode$DataXceiver: Receiving block blk_987648149319262325 src: /10.251.91.159:38657 dest: /10.251.91.159:50010
081111 065427 19 INFO dfs.FSDataset: Deleting block blk_591586532081049496 file /mnt/hadoop/dfs/data/current/subdir12/blk_591586532081049496
081111 105650 26811 INFO dfs.DataNode$PacketResponder: PacketResponder 1 for block blk_-1543842556418325166 terminating
081111 080955 33 INFO dfs.FSNamesystem: BLOCK* NameSystem.addStoredBlock: blockMap updated: 10.251.38.197:50010 is added to blk_6610573351222764614 size 67108864
081111 095629 25927 INFO dfs.DataNode$PacketResponder: Received block blk_8434765888895143783 of size 67108864 from /10.251.70.211
081110 145117 12714 INFO dfs.DataNode$PacketResponder: Received block blk_1070531018874822017 of size 67108864 from /10.251.42.191
081111 075810 19 INFO dfs.FSDataset: Deleting block blk_-5362076263617074540 file /mnt/hadoop/dfs/data/current/subdir55/blk_-5362076263617074540
081110 103627 19 INFO dfs.FSDataset: Deleting block blk_-1978862457726408246 file /mnt/hadoop/dfs/data/current/subdir41/blk_-1978862457726408246
081111 085910 27 INFO dfs.FSNamesystem: BLOCK* NameSystem.delete: blk_4845390170365259483 is added to invalidSet of 10.251.214.225:50010
081111 105800 28 INFO dfs.FSNamesystem: BLOCK* NameSystem.addStoredBlock: blockMap updated: 10.251.30.179:50010 is added to blk_-5776964166264392901 size 67108864
081110 120528 10490 INFO dfs.DataNode$PacketResponder: Received block blk_-259205223266289212 of size 67108864 from /10.251.71.146
081110 115154 35 INFO dfs.FSNamesystem: BLOCK* NameSystem.addStoredBlock: blockMap updated: 10.251.126.22:50010 is added to blk_7355155084376066136 size 67108864
081111 100830 26333 INFO dfs.DataNode$PacketResponder: PacketResponder 1 for block blk_-3449709932688995353 terminating
081111 041955 19655 INFO dfs.DataNode$PacketResponder: PacketResponder 2 for block blk_6672386921484309835 terminating
081109 215100 2851 WARN dfs.DataNode$DataXceiver: 10.251.199.245:50010:Got exception while serving blk_-682154539955351059 to /10.251.31.242:
081110 103504 19 INFO dfs.FSDataset: Deleting block blk_-7433191500853566524 file /mnt/hadoop/dfs/data/current/subdir59/blk_-7433191500853566524
081110 142445 13 INFO dfs.DataBlockScanner: Verification succeeded for blk_-3553823535796906905
081111 075947 19 INFO dfs.FSDataset: Deleting block blk_8225780438257134045 file /mnt/hadoop/dfs/data/current/subdir5/blk_8225780438257134045
081111 043005 20033 INFO dfs.DataNode$PacketResponder: PacketResponder 0 for block blk_-6400874634260151557 terminating
081111 072304 22856 INFO dfs.DataNode$PacketResponder: Received block blk_-8770061856141468910 of size 67108864 from /10.251.123.99
081110 152129 13079 INFO dfs.DataNode$PacketResponder: PacketResponder 1 for block blk_-5119267902035007095 terminating
081110 175910 13627 INFO dfs.DataNode$DataXceiver: 10.251.123.99:50010 Served block blk_1859658289044101323 to /10.251.29.239
081110 015748 34 INFO dfs.FSNamesystem: BLOCK* NameSystem.addStoredBlock: blockMap updated: 10.251.105.189:50010 is added to blk_-3414425905700398460 size 67108864
081111 054641 21484 INFO dfs.DataNode$DataXceiver: Receiving block blk_3085895743016597792 src: /10.251.199.225:36958 dest: /10.251.199.225:50010
081110 210147 28 INFO dfs.FSNamesystem: BLOCK* NameSystem.delete: blk_1402790244999183233 is added to invalidSet of 10.250.7.244:50010
081109 210117 1107 INFO dfs.DataNode$PacketResponder: Received block blk_5444767412614892134 of size 67108864 from /10.251.75.163
081111 054509 34 INFO dfs.FSNamesystem: BLOCK* NameSystem.allocateBlock: /user/root/rand5/_temporary/_task_200811101024_0011_m_001949_0/part-01949. blk_4448092337646012056
081111 042142 35 INFO dfs.FSNamesystem: BLOCK* NameSystem.addStoredBlock: blockMap updated: 10.251.193.175:50010 is added to blk_-7252343215282610837 size 67108864
081110 221013 28 INFO dfs.FSNamesystem: BLOCK* NameSystem.addStoredBlock: blockMap updated: 10.251.106.50:50010 is added to blk_3158747154431443026 size 67108864
081110 224249 16442 INFO dfs.DataNode$PacketResponder: PacketResponder 1 for block blk_-1837067344161437275 terminating
081110 010708 4882 INFO dfs.DataNode$DataXceiver: Receiving block blk_5013619525738607117 src: /10.250.7.244:47643 dest: /10.250.7.244:50010
081110 014455 5794 INFO dfs.DataNode$DataXceiver: Receiving block blk_-1530392063958537216 src: /10.251.110.68:41211 dest: /10.251.110.68:50010
081111 083550 24637 INFO dfs.DataNode$PacketResponder: Received block blk_-2210516210851778265 of size 67108864 from /10.251.203.149
081110 212244 14944 INFO dfs.DataNode$PacketResponder: Received block blk_7907864969348898820 of size 67108864 from /10.251.74.227
081110 150759 13150 INFO dfs.DataNode$PacketResponder: PacketResponder 0 for block blk_-6571358491464578929 terminating
081111 012838 17621 INFO dfs.DataNode$DataXceiver: 10.251.38.53:50010 Served block blk_7169424358468784801 to /10.251.38.53
081110 003857 4965 INFO dfs.DataNode$PacketResponder: PacketResponder 1 for block blk_-1983222725080508824 terminating
081111 102403 26785 INFO dfs.DataNode$PacketResponder: PacketResponder 1 for block blk_-8657576420077310030 terminating
081111 075621 28 INFO dfs.FSNamesystem: BLOCK* NameSystem.delete: blk_-454996469149792327 is added to invalidSet of 10.251.106.37:50010
081110 103039 34 INFO dfs.FSNamesystem: BLOCK* NameSystem.delete: blk_2749431235458723073 is added to invalidSet of 10.251.70.211:50010
081110 120937 10872 INFO dfs.DataNode$PacketResponder: Received block blk_1407007143735058275 of size 67108864 from /10.250.5.161
081110 030344 6465 INFO dfs.DataNode$DataXceiver: 10.251.43.147:50010 Served block blk_3183782573024832951 to /10.251.111.37
081111 085926 27 INFO dfs.FSNamesystem: BLOCK* NameSystem.delete: blk_-2096265802955924055 is added to invalidSet of 10.251.110.68:50010
081111 090624 25190 INFO dfs.DataNode$DataXceiver: Receiving block blk_-54494034999272536 src: /10.251.91.159:48236 dest: /10.251.91.159:50010
081110 144046 35 INFO dfs.FSNamesystem: BLOCK* NameSystem.addStoredBlock: blockMap updated: 10.251.194.129:50010 is added to blk_-8206670494020537657 size 67108864
081110 220656 32 INFO dfs.FSNamesystem: BLOCK* NameSystem.delete: blk_4770109187640842628 is added to invalidSet of 10.251.25.237:50010
081111 044737 19 INFO dfs.FSDataset: Deleting block blk_5152044165838657334 file /mnt/hadoop/dfs/data/current/subdir5/blk_5152044165838657334
081110 210651 19 INFO dfs.FSDataset: Deleting block blk_4814892186373769096 file /mnt/hadoop/dfs/data/current/subdir48/blk_4814892186373769096
081110 103110 19 INFO dfs.FSDataset: Deleting block blk_-3657761974958214354 file /mnt/hadoop/dfs/data/current/subdir13/blk_-3657761974958214354
081110 001954 31 INFO dfs.FSNamesystem: BLOCK* NameSystem.addStoredBlock: blockMap updated: 10.251.30.6:50010 is added to blk_-6062687043891748549 size 67108864
081110 143841 12517 INFO dfs.DataNode$DataXceiver: Receiving block blk_-9038898592204694546 src: /10.251.215.16:46075 dest: /10.251.215.16:50010
081111 104042 28 INFO dfs.FSNamesystem: BLOCK* NameSystem.addStoredBlock: blockMap updated: 10.251.111.228:50010 is added to blk_928631455810602774 size 67108864
081111 091124 25337 INFO dfs.DataNode$PacketResponder: Received block blk_3411417019540888439 of size 67108864 from /10.251.203.4
081110 001539 4707 INFO dfs.DataNode$DataXceiver: Receiving block blk_355662550331761701 src: /10.251.123.20:40016 dest: /10.251.123.20:50010
081111 025144 17983 INFO dfs.DataNode$PacketResponder: Received block blk_-3241635180368106716 of size 67108864 from /10.250.15.67
081111 064118 22632 INFO dfs.DataNode$PacketResponder: PacketResponder 0 for block blk_6988027373650332031 terminating
081111 102147 26866 INFO dfs.DataNode$DataXceiver: Receiving block blk_-8969649561838495040 src: /10.251.107.19:57281 dest: /10.251.107.19:50010
081110 112443 10087 INFO dfs.DataNode$PacketResponder: Received block blk_-5716655763154416863 of size 67108864 from /10.251.39.144
081111 014614 17849 INFO dfs.DataNode$DataXceiver: 10.251.39.144:50010 Served block blk_-3339536587392742319 to /10.250.7.32
081110 103534 19 INFO dfs.FSDataset: Deleting block blk_-249216215007874679 file /mnt/hadoop/dfs/data/current/subdir22/blk_-249216215007874679
081110 110414 34 INFO dfs.FSNamesystem: BLOCK* NameSystem.addStoredBlock: blockMap updated: 10.251.31.160:50010 is added to blk_-5830178921443380155 size 67108864
081110 013620 32 INFO dfs.FSNamesystem: BLOCK* NameSystem.addStoredBlock: blockMap updated: 10.251.202.134:50010 is added to blk_4739305237831262319 size 67108864
081111 090135 19 INFO dfs.FSDataset: Deleting block blk_690462119915314657 file /mnt/hadoop/dfs/data/current/subdir9/blk_690462119915314657
081110 145115 12662 INFO dfs.DataNode$DataXceiver: Receiving block blk_-6092356512562142275 src: /10.251.214.32:41413 dest: /10.251.214.32:50010
081109 234923 4392 INFO dfs.DataNode$PacketResponder: PacketResponder 2 for block blk_4730319890068464180 terminating
081111 031707 18522 INFO dfs.DataNode$PacketResponder: PacketResponder 1 for block blk_4483975547223481643 terminating
081111 092818 30 INFO dfs.FSNamesystem: BLOCK* NameSystem.addStoredBlock: blockMap updated: 10.250.10.223:50010 is added to blk_8170151705817151028 size 67108864
081111 035357 19237 INFO dfs.DataNode$PacketResponder: PacketResponder 2 for block blk_-8882313273871396651 terminating
081110 114105 10202 INFO dfs.DataNode$PacketResponder: PacketResponder 2 for block blk_-3162595515355333214 terminating
081110 013401 5560 INFO dfs.DataNode$PacketResponder: Received block blk_5866820786232265299 of size 67108864 from /10.250.7.230
081110 111734 9609 INFO dfs.DataNode$PacketResponder: Received block blk_-2585772292374460873 of size 67108864 from /10.251.203.166
081110 122952 35 INFO dfs.FSNamesystem: BLOCK* NameSystem.allocateBlock: /user/root/randtxt2/_temporary/_task_200811101024_0002_m_001669_0/part-01669. blk_-3998662613573899995
081110 113327 10199 INFO dfs.DataNode$PacketResponder: Received block blk_-8292705532252500913 of size 3535976 from /10.251.197.226
081111 065212 26 INFO dfs.FSNamesystem: BLOCK* NameSystem.delete: blk_-2407083696051516829 is added to invalidSet of 10.251.214.225:50010
081111 084708 29 INFO dfs.FSNamesystem: BLOCK* NameSystem.allocateBlock: /user/root/rand7/_temporary/_task_200811101024_0014_m_001825_0/part-01825. blk_-558441174756069292
081111 054111 21415 INFO dfs.DataNode$DataXceiver: Receiving block blk_2119972019709269104 src: /10.250.6.223:47675 dest: /10.250.6.223:50010
081110 210646 30 INFO dfs.FSNamesystem: BLOCK* NameSystem.addStoredBlock: blockMap updated: 10.251.35.1:50010 is added to blk_2075640333939177810 size 67108864
081111 073114 23486 INFO dfs.DataNode$PacketResponder: Received block blk_5825791279672604777 of size 67108864 from /10.251.199.245
081109 205240 799 INFO dfs.DataNode$PacketResponder: Received block blk_5826442425462812609 of size 67108864 from /10.250.5.161
081109 212600 34 INFO dfs.FSNamesystem: BLOCK* NameSystem.addStoredBlock: blockMap updated: 10.251.39.192:50010 is added to blk_8023783394623857105 size 67108864
081110 121015 10827 INFO dfs.DataNode$DataXceiver: Receiving block blk_-334660595350394034 src: /10.251.42.191:34403 dest: /10.251.42.191:50010
081111 061809 26 INFO dfs.FSNamesystem: BLOCK* NameSystem.allocateBlock: /user/root/randtxt5/_temporary/_task_200811101024_0012_m_001204_0/part-01204. blk_-5337732150944262329
081110 011433 26 INFO dfs.FSNamesystem: BLOCK* NameSystem.allocateBlock: /user/root/randtxt/_temporary/_task_200811092030_0003_m_000522_0/part-00522. blk_-1897981538572194659
081111 110545 19 INFO dfs.FSDataset: Deleting block blk_-3773441180572790517 file /mnt/hadoop/dfs/data/current/subdir42/blk_-3773441180572790517
081111 063907 26 INFO dfs.FSNamesystem: BLOCK* NameSystem.addStoredBlock: blockMap updated: 10.251.203.80:50010 is added to blk_-874759133263098262 size 67108864
081110 212731 14852 INFO dfs.DataNode$DataXceiver: Receiving block blk_-4562093882611620284 src: /10.251.38.197:52393 dest: /10.251.38.197:50010
081111 035628 19373 INFO dfs.DataNode$PacketResponder: PacketResponder 1 for block blk_9011935329753861663 terminating
081110 210605 19 INFO dfs.FSDataset: Deleting block blk_525586392922114855 file /mnt/hadoop/dfs/data/current/subdir13/blk_525586392922114855
081110 143749 32 INFO dfs.FSNamesystem: BLOCK* NameSystem.allocateBlock: /user/root/sortrand2/_temporary/_task_200811101024_0003_r_000128_0/part-00128. blk_-5243538928953993945
081111 100428 31 INFO dfs.FSNamesystem: BLOCK* NameSystem.addStoredBlock: blockMap updated: 10.251.199.159:50010 is added to blk_-1232213759120048612 size 67108864
081110 103030 34 INFO dfs.FSNamesystem: BLOCK* NameSystem.delete: blk_2841389199009800539 is added to invalidSet of 10.251.42.16:50010
081110 105104 9383 INFO dfs.DataNode$DataXceiver: Receiving block blk_-3230592780792634308 src: /10.251.37.240:39863 dest: /10.251.37.240:50010
081110 210532 19 INFO dfs.FSDataset: Deleting block blk_-3872075763877277932 file /mnt/hadoop/dfs/data/current/subdir62/blk_-3872075763877277932
081110 220308 15716 INFO dfs.DataNode$PacketResponder: PacketResponder 0 for block blk_7026110467620491593 terminating
081110 111401 9754 INFO dfs.DataNode$PacketResponder: PacketResponder 1 for block blk_-8304647059801000653 terminating
081111 075917 19 INFO dfs.FSDataset: Deleting block blk_7772786112281120954 file /mnt/hadoop/dfs/data/current/subdir27/blk_7772786112281120954
081110 012221 5427 INFO dfs.DataNode$PacketResponder: Received block blk_-476190444077340649 of size 67108864 from /10.250.10.100
081110 070007 7315 WARN dfs.DataNode$DataXceiver: 10.251.31.180:50010:Got exception while serving blk_8408926247604828658 to /10.251.31.180:
081110 210405 14579 INFO dfs.DataNode$PacketResponder: PacketResponder 2 for block blk_7690719342447273607 terminating
081111 023033 27 INFO dfs.FSNamesystem: BLOCK* NameSystem.delete: blk_71233830208391352 is added to invalidSet of 10.251.197.161:50010
081109 211514 1618 INFO dfs.DataNode$PacketResponder: PacketResponder 1 for block blk_6808885242790503871 terminating
081110 210623 14382 INFO dfs.DataNode$PacketResponder: Received block blk_3626085791717073783 of size 67108864 from /10.251.70.112
081111 104711 32 INFO dfs.FSNamesystem: BLOCK* NameSystem.addStoredBlock: blockMap updated: 10.251.38.53:50010 is added to blk_-4181594497370132145 size 67108864
081111 045325 20503 INFO dfs.DataNode$DataXceiver: Receiving block blk_-1544483287716552342 src: /10.251.197.226:44079 dest: /10.251.197.226:50010
081111 044308 35 INFO dfs.FSNamesystem: BLOCK* NameSystem.delete: blk_7347089950355970513 is added to invalidSet of 10.251.193.224:50010
081111 050840 31 INFO dfs.FSNamesystem: BLOCK* NameSystem.addStoredBlock: blockMap updated: 10.251.215.70:50010 is added to blk_175116785067194159 size 67108864
081110 184702 14131 INFO dfs.DataNode$DataXceiver: 10.250.6.223:50010 Served block blk_7361575667711600016 to /10.250.13.240
081111 075132 23977 INFO dfs.DataNode$PacketResponder: Received block blk_-2271927168678013107 of size 62582242 from /10.251.90.81
081110 222904 15910 INFO dfs.DataNode$DataXceiver: Receiving block blk_624235250658284831 src: /10.251.26.131:33665 dest: /10.251.26.131:50010
081111 045355 33 INFO dfs.FSNamesystem: BLOCK* NameSystem.addStoredBlock: blockMap updated: 10.251.194.245:50010 is added to blk_1163808316192423021 size 67108864
081109 214000 2620 WARN dfs.DataNode$DataXceiver: 10.251.66.192:50010:Got exception while serving blk_7799779949564614227 to /10.250.14.224:
081110 105012 9229 INFO dfs.DataNode$PacketResponder: PacketResponder 2 for block blk_-6821323940094657603 terminating
081110 210117 28 INFO dfs.FSNamesystem: BLOCK* NameSystem.delete: blk_-4114671526468940541 is added to invalidSet of 10.251.70.5:50010
081111 085324 24547 INFO dfs.DataNode$PacketResponder: PacketResponder 0 for block blk_-4741714288882705623 terminating
081110 103521 19 INFO dfs.FSDataset: Deleting block blk_-4404559764667441025 file /mnt/hadoop/dfs/data/current/subdir22/blk_-4404559764667441025
081111 053301 21028 INFO dfs.DataNode$PacketResponder: PacketResponder 1 for block blk_4479102279018165840 terminating
081109 234103 32 INFO dfs.FSNamesystem: BLOCK* NameSystem.allocateBlock: /user/root/sortrand/_temporary/_task_200811092030_0002_r_000154_0/part-00154. blk_7641440551482539841
081110 211638 14988 INFO dfs.DataNode$PacketResponder: PacketResponder 1 for block blk_1437820165295792737 terminating
081111 060048 31 INFO dfs.FSNamesystem: BLOCK* NameSystem.addStoredBlock: blockMap updated: 10.250.13.188:50010 is added to blk_5659925768444746271 size 67108864
081110 151748 31 INFO dfs.FSNamesystem: BLOCK* NameSystem.addStoredBlock: blockMap updated: 10.250.17.225:50010 is added to blk_-5118516317103738994 size 67108864
081111 075727 19 INFO dfs.FSDataset: Deleting block blk_-8442822956223058787 file /mnt/hadoop/dfs/data/current/blk_-8442822956223058787
081109 213355 28 INFO dfs.FSNamesystem: BLOCK* NameSystem.addStoredBlock: blockMap updated: 10.250.14.196:50010 is added to blk_1563203023277051961 size 67108864
081111 023212 19 INFO dfs.FSDataset: Deleting block blk_-2748179068428656625 file /mnt/hadoop/dfs/data/current/subdir26/blk_-2748179068428656625
081111 044304 35 INFO dfs.FSNamesystem: BLOCK* NameSystem.delete: blk_5694025904054016812 is added to invalidSet of 10.251.39.209:50010
081110 230043 34 INFO dfs.FSNamesystem: BLOCK* NameSystem.addStoredBlock: blockMap updated: 10.250.6.191:50010 is added to blk_-182345837336943498 size 67108864
081111 075917 19 INFO dfs.FSDataset: Deleting block blk_2802854885144586913 file /mnt/hadoop/dfs/data/current/subdir28/blk_2802854885144586913
081111 063333 22363 INFO dfs.DataNode$PacketResponder: Received block blk_-7343923244873461234 of size 67108864 from /10.250.14.38
081110 171917 13846 INFO dfs.DataNode$DataXceiver: 10.251.66.3:50010 Served block blk_-3993086510875549122 to /10.251.66.3
081110 210512 19 INFO dfs.FSDataset: Deleting block blk_-1435893733991899789 file /mnt/hadoop/dfs/data/current/subdir23/blk_-1435893733991899789
081110 191321 14167 INFO dfs.DataNode$DataXceiver: 10.251.66.192:50010 Served block blk_-7171816355347189983 to /10.251.66.192
081110 222635 16292 INFO dfs.DataNode$PacketResponder: PacketResponder 2 for block blk_-7325756647491063377 terminating
081110 220912 19 INFO dfs.FSDataset: Deleting block blk_-3294219038743872276 file /mnt/hadoop/dfs/data/current/subdir50/blk_-3294219038743872276
081111 062319 22118 INFO dfs.DataNode$PacketResponder: Received block blk_5001506185559895123 of size 28503217 from /10.251.111.37
081111 041404 19587 INFO dfs.DataNode$PacketResponder: Received block blk_-8911519985679888752 of size 67108864 from /10.251.73.220
081111 103342 26756 INFO dfs.DataNode$PacketResponder: Received block blk_-3051808388658549705 of size 67108864 from /10.251.67.4
081111 060255 21720 INFO dfs.DataNode$PacketResponder: PacketResponder 1 for block blk_3218356964560312501 terminating
081110 055353 13 INFO dfs.DataBlockScanner: Verification succeeded for blk_-6885838829641166036
081110 080947 8166 INFO dfs.DataNode$DataXceiver: 10.251.123.20:50010 Served block blk_420259779575823800 to /10.251.123.20
081110 220803 19 INFO dfs.FSDataset: Deleting block blk_-7962658557593093446 file /mnt/hadoop/dfs/data/current/subdir25/blk_-7962658557593093446
081110 103710 19 INFO dfs.FSDataset: Deleting block blk_1502103841419577689 file /mnt/hadoop/dfs/data/current/subdir26/blk_1502103841419577689
081111 094236 25369 INFO dfs.DataNode$PacketResponder: Received block blk_7235688202384525395 of size 67108864 from /10.251.71.146
081110 103426 19 INFO dfs.FSDataset: Deleting block blk_-1736055948879291719 file /mnt/hadoop/dfs/data/current/subdir54/blk_-1736055948879291719
081110 142759 12248 INFO dfs.DataNode$PacketResponder: Received block blk_-6961138901700275705 of size 67108864 from /10.251.111.80
081111 093844 25155 INFO dfs.DataNode$DataXceiver: Receiving block blk_-8115003669493315204 src: /10.250.10.100:52379 dest: /10.250.10.100:50010
081110 110553 26 INFO dfs.FSNamesystem: BLOCK* NameSystem.allocateBlock: /user/root/rand/_temporary/_task_200811101024_0001_m_001094_0/part-01094. blk_2093471509648139226
081111 105119 27399 INFO dfs.DataNode$PacketResponder: PacketResponder 0 for block blk_-8541827260838193430 terminating
081110 015314 28 INFO dfs.FSNamesystem: BLOCK* NameSystem.addStoredBlock: blockMap updated: 10.251.70.211:50010 is added to blk_3873218161121238945 size 67108864
081110 120845 10703 INFO dfs.DataNode$PacketResponder: PacketResponder 0 for block blk_-4117148585279278966 terminating
081111 110525 19 INFO dfs.FSDataset: Deleting block blk_-331562442051993062 file /mnt/hadoop/dfs/data/current/subdir53/blk_-331562442051993062
081110 010704 30 INFO dfs.FSNamesystem: BLOCK* NameSystem.addStoredBlock: blockMap updated: 10.251.123.33:50010 is added to blk_8472089980016578763 size 67108864
081110 151543 12940 INFO dfs.DataNode$DataXceiver: Receiving block blk_-7770740170298452340 src: /10.251.202.181:46023 dest: /10.251.202.181:50010
081111 044343 29 INFO dfs.FSNamesystem: BLOCK* NameSystem.delete: blk_3406764460674757632 is added to invalidSet of 10.251.90.64:50010
081109 234429 4168 INFO dfs.DataNode$PacketResponder: PacketResponder 2 for block blk_6081745486898865526 terminating
081111 091034 25039 INFO dfs.DataNode$DataXceiver: Receiving block blk_2797579255086844780 src: /10.251.202.134:39105 dest: /10.251.202.134:50010
081110 220631 31 INFO dfs.FSNamesystem: BLOCK* NameSystem.delete: blk_8847546506178744227 is added to invalidSet of 10.250.19.16:50010
081111 030110 18331 INFO dfs.DataNode$PacketResponder: PacketResponder 1 for block blk_-3598189666577867503 terminating
081110 183958 13 INFO dfs.DataBlockScanner: Verification succeeded for blk_9096198789797500462
081111 023930 17541 INFO dfs.DataNode$PacketResponder: PacketResponder 2 for block blk_-1662465656274821557 terminating
081110 213410 28 INFO dfs.FSNamesystem: BLOCK* NameSystem.addStoredBlock: blockMap updated: 10.251.195.33:50010 is added to blk_5743600658934805564 size 67108864
081110 151109 34 INFO dfs.FSNamesystem: BLOCK* NameSystem.addStoredBlock: blockMap updated: 10.251.90.64:50010 is added to blk_7162857722390858446 size 67108864
081110 013132 5569 INFO dfs.DataNode$DataXceiver: Receiving block blk_-5075391929401395439 src: /10.250.17.177:52553 dest: /10.250.17.177:50010
081111 074311 23475 INFO dfs.DataNode$DataXceiver: Receiving block blk_-1414280350476330085 src: /10.251.194.213:47242 dest: /10.251.194.213:50010
081111 032906 28 INFO dfs.FSNamesystem: BLOCK* NameSystem.addStoredBlock: blockMap updated: 10.251.199.245:50010 is added to blk_8571110639754269068 size 67108864
081110 143657 12387 INFO dfs.DataNode$PacketResponder: PacketResponder 1 for block blk_-538376574555916217 terminating
081111 044633 19 INFO dfs.FSDataset: Deleting block blk_-2602027804862141561 file /mnt/hadoop/dfs/data/current/blk_-2602027804862141561
081110 082514 8348 WARN dfs.DataNode$DataXceiver: 10.251.194.102:50010:Got exception while serving blk_-4121600102706781741 to /10.251.39.192:
081111 065352 19 INFO dfs.FSDataset: Deleting block blk_-4381317410085830319 file /mnt/hadoop/dfs/data/current/subdir33/blk_-4381317410085830319
081109 234132 4122 INFO dfs.DataNode$PacketResponder: Received block blk_6311583591203889093 of size 67108864 from /10.251.25.237
081111 052546 20983 INFO dfs.DataNode$DataXceiver: Receiving block blk_-5857641082771544176 src: /10.251.195.52:52509 dest: /10.251.195.52:50010
081111 094406 26177 INFO dfs.DataNode$PacketResponder: PacketResponder 1 for block blk_7755961359575795892 terminating
081111 023023 27 INFO dfs.FSNamesystem: BLOCK* NameSystem.delete: blk_-6371537699537865411 is added to invalidSet of 10.251.42.191:50010
081111 051734 35 INFO dfs.FSNamesystem: BLOCK* NameSystem.addStoredBlock: blockMap updated: 10.251.123.1:50010 is added to blk_3704890642925389511 size 67108864
081110 143307 12290 INFO dfs.DataNode$PacketResponder: PacketResponder 1 for block blk_-2410337820481542524 terminating
081111 110601 19 INFO dfs.FSDataset: Deleting block blk_6494919150258946717 file /mnt/hadoop/dfs/data/current/subdir62/blk_6494919150258946717
081110 210451 19 INFO dfs.FSDataset: Deleting block blk_-2602624004800491480 file /mnt/hadoop/dfs/data/current/subdir13/blk_-2602624004800491480
081110 144532 12667 INFO dfs.DataNode$DataXceiver: Receiving block blk_-1794264615258714139 src: /10.251.214.130:43741 dest: /10.251.214.130:50010
081110 103031 34 INFO dfs.FSNamesystem: BLOCK* NameSystem.delete: blk_-8679301670103208025 is added to invalidSet of 10.250.18.114:50010
081111 025531 17986 INFO dfs.DataNode$PacketResponder: PacketResponder 1 for block blk_5677434182217409926 terminating
081111 054741 21446 INFO dfs.DataNode$DataXceiver: 10.251.39.242:50010 Served block blk_-2825351351457839825 to /10.251.198.33
081111 042047 19852 INFO dfs.DataNode$DataXceiver: Receiving block blk_6266951189287039148 src: /10.251.121.224:45781 dest: /10.251.121.224:50010
081110 001634 4824 INFO dfs.DataNode$PacketResponder: Received block blk_2384406687017025103 of size 67108864 from /10.251.67.4
081110 105857 9566 INFO dfs.DataNode$PacketResponder: Received block blk_-6414872414171656381 of size 67108864 from /10.251.27.63
081111 093119 25471 INFO dfs.DataNode$PacketResponder: PacketResponder 2 for block blk_8140909782943650702 terminating
081111 032302 28 INFO dfs.FSNamesystem: BLOCK* NameSystem.allocateBlock: /user/root/rand4/_temporary/_task_200811101024_0009_m_001491_0/part-01491. blk_-3782786852391055761
081110 210554 19 INFO dfs.FSDataset: Deleting block blk_-986913905293632531 file /mnt/hadoop/dfs/data/current/subdir1/blk_-986913905293632531
081110 121713 10937 INFO dfs.DataNode$PacketResponder: PacketResponder 1 for block blk_5471391931168517884 terminating
081111 032958 18930 INFO dfs.DataNode$PacketResponder: Received block blk_-4930460366457547018 of size 67108864 from /10.251.110.196
081110 122144 10916 INFO dfs.DataNode$PacketResponder: PacketResponder 1 for block blk_-7662092066377448798 terminating
081110 181710 13 INFO dfs.DataBlockScanner: Verification succeeded for blk_6321179442220037471
081109 205058 29 INFO dfs.FSNamesystem: BLOCK* NameSystem.addStoredBlock: blockMap updated: 10.251.91.15:50010 is added to blk_1441931810533479328 size 67108864
081111 101938 31 INFO dfs.FSNamesystem: BLOCK* NameSystem.addStoredBlock: blockMap updated: 10.251.30.6:50010 is added to blk_-2970160039847176064 size 67108864
081111 094810 25835 INFO dfs.DataNode$PacketResponder: Received block blk_-8757062779083764122 of size 67108864 from /10.251.39.144
081109 204011 297 INFO dfs.DataNode$PacketResponder: Received block blk_-5386988219854944958 of size 67108864 from /10.250.10.176
081110 011544 27 INFO dfs.FSNamesystem: BLOCK* NameSystem.addStoredBlock: blockMap updated: 10.251.67.211:50010 is added to blk_-5327865378038374009 size 67108864
081110 135624 12031 WARN dfs.DataNode$DataXceiver: 10.251.71.146:50010:Got exception while serving blk_8329603648485527311 to /10.251.111.228:
081110 011739 5423 INFO dfs.DataNode$PacketResponder: Received block blk_8799214695634876338 of size 67108864 from /10.251.39.144
081111 065216 26 INFO dfs.FSNamesystem: BLOCK* NameSystem.delete: blk_4740891694912200401 is added to invalidSet of 10.251.127.243:50010
081110 110036 33 INFO dfs.FSNamesystem: BLOCK* NameSystem.allocateBlock: /user/root/rand/_temporary/_task_200811101024_0001_m_000817_0/part-00817. blk_7041159109611047028
081109 234523 26 INFO dfs.FSNamesystem: BLOCK* NameSystem.allocateBlock: /user/root/sortrand/_temporary/_task_200811092030_0002_r_000133_0/part-00133. blk_-3794895768065554592
081111 044321 35 INFO dfs.FSNamesystem: BLOCK* NameSystem.delete: blk_-619099694383210080 is added to invalidSet of 10.251.43.147:50010
081111 033449 34 INFO dfs.FSNamesystem: BLOCK* NameSystem.allocateBlock: /user/root/rand4/_temporary/_task_200811101024_0009_m_001973_0/part-01973. blk_-7768546061777366032
081111 042709 1862 INFO dfs.DataNode$DataXceiver: Receiving block blk_-2353573040128832152 src: /10.251.215.192:59314 dest: /10.251.215.192:50010
081110 212642 14954 INFO dfs.DataNode$PacketResponder: PacketResponder 0 for block blk_4671053325940872353 terminating
081110 013054 5548 INFO dfs.DataNode$DataXceiver: Receiving block blk_7681971044680917356 src: /10.250.7.244:35452 dest: /10.250.7.244:50010
081111 081516 24277 INFO dfs.DataNode$DataXceiver: Receiving block blk_-542848044307558427 src: /10.251.215.50:58142 dest: /10.251.215.50:50010
081110 120618 35 INFO dfs.FSNamesystem: BLOCK* NameSystem.allocateBlock: /user/root/randtxt2/_temporary/_task_200811101024_0002_m_000926_0/part-00926. blk_-8112918994578324885
081111 075639 28 INFO dfs.FSNamesystem: BLOCK* NameSystem.delete: blk_-8434170983107831726 is added to invalidSet of 10.251.199.19:50010
081110 144337 12679 INFO dfs.DataNode$PacketResponder: PacketResponder 1 for block blk_5498897342022225684 terminating
081110 013226 5522 INFO dfs.DataNode$PacketResponder: PacketResponder 2 for block blk_-6157816669457011514 terminating
081110 113421 10087 INFO dfs.DataNode$DataXceiver: Receiving block blk_-5447756328873639153 src: /10.251.107.98:55679 dest: /10.251.107.98:50010
081110 104821 33 INFO dfs.FSNamesystem: BLOCK* NameSystem.addStoredBlock: blockMap updated: 10.250.6.4:50010 is added to blk_7463091239742564934 size 67108864
081110 012915 26 INFO dfs.FSNamesystem: BLOCK* NameSystem.addStoredBlock: blockMap updated: 10.251.203.246:50010 is added to blk_8086905035111645118 size 67108864
081110 103123 19 INFO dfs.FSDataset: Deleting block blk_374364751400568554 file /mnt/hadoop/dfs/data/current/subdir61/blk_374364751400568554
081111 033940 18051 INFO dfs.DataNode$PacketResponder: Received block blk_-4756442043754871785 of size 67108864 from /10.251.66.192
081111 100302 26694 INFO dfs.DataNode$PacketResponder: PacketResponder 1 for block blk_704065636099390982 terminating
081109 235220 4344 INFO dfs.DataNode$PacketResponder: PacketResponder 1 for block blk_-4513316817204142173 terminating
081111 104209 26958 INFO dfs.DataNode$PacketResponder: Received block blk_2244373514417013904 of size 67108864 from /10.251.111.228
081109 212533 2046 INFO dfs.DataNode$DataXceiver: Receiving block blk_21687489444351305 src: /10.251.89.155:36222 dest: /10.251.89.155:50010
081110 211719 30 INFO dfs.FSNamesystem: BLOCK* NameSystem.addStoredBlock: blockMap updated: 10.251.194.147:50010 is added to blk_-4031883843458618135 size 67108864
081109 235251 4294 INFO dfs.DataNode$PacketResponder: Received block blk_2288232556657288915 of size 67108864 from /10.250.10.223
081111 103621 26824 INFO dfs.DataNode$PacketResponder: Received block blk_7053162917765625015 of size 67108864 from /10.251.123.99
081111 075935 19 INFO dfs.FSDataset: Deleting block blk_8295388894686589694 file /mnt/hadoop/dfs/data/current/subdir16/blk_8295388894686589694
081110 103033 34 INFO dfs.FSNamesystem: BLOCK* NameSystem.delete: blk_-2254555578889753458 is added to invalidSet of 10.251.106.10:50010
081109 232648 3843 INFO dfs.DataNode$PacketResponder: PacketResponder 2 for block blk_7469371768215628804 terminating
081110 000620 4649 INFO dfs.DataNode$DataXceiver: Receiving block blk_-5387742320837920484 src: /10.250.6.191:39577 dest: /10.250.6.191:50010
081110 222246 16250 INFO dfs.DataNode$PacketResponder: Received block blk_1709916922383503879 of size 67108864 from /10.251.75.163
081110 220343 15532 INFO dfs.DataNode$PacketResponder: PacketResponder 2 for block blk_-7498229171085908231 terminating
081110 111350 9756 INFO dfs.DataNode$PacketResponder: Received block blk_-9021652361420270296 of size 67108864 from /10.251.199.159
081110 110631 9738 INFO dfs.DataNode$PacketResponder: Received block blk_-3005684049879736559 of size 67108864 from /10.250.10.176
081110 070535 7563 INFO dfs.DataNode$DataXceiver: 10.250.17.225:50010 Served block blk_5882056744782759488 to /10.251.122.38
081110 212231 35 INFO dfs.FSNamesystem: BLOCK* NameSystem.addStoredBlock: blockMap updated: 10.251.194.245:50010 is added to blk_8576639311635342233 size 67108864
081110 222035 15907 INFO dfs.DataNode$PacketResponder: PacketResponder 1 for block blk_714509791822405266 terminating
081110 110128 9489 INFO dfs.DataNode$PacketResponder: Received block blk_-16871457532291842 of size 67108864 from /10.250.14.38
081110 123508 11376 INFO dfs.DataNode$PacketResponder: PacketResponder 2 for block blk_4554252140433514084 terminating
081110 103107 30 INFO dfs.FSNamesystem: BLOCK* NameSystem.delete: blk_6746313749034318732 is added to invalidSet of 10.251.38.53:50010
081110 092557 13 INFO dfs.DataBlockScanner: Verification succeeded for blk_-4034006147212212091
081111 065451 19 INFO dfs.FSDataset: Deleting block blk_5192400795187532996 file /mnt/hadoop/dfs/data/current/subdir20/blk_5192400795187532996
081111 044642 19 INFO dfs.FSDataset: Deleting block blk_-3395035196220197899 file /mnt/hadoop/dfs/data/current/blk_-3395035196220197899
081110 224500 16117 INFO dfs.DataNode$PacketResponder: PacketResponder 1 for block blk_-8208639188492291425 terminating
081111 032537 18560 INFO dfs.DataNode$DataXceiver: Receiving block blk_5480633165253525645 src: /10.251.198.196:42787 dest: /10.251.198.196:50010
081111 072554 34 INFO dfs.FSNamesystem: BLOCK* NameSystem.allocateBlock: /user/root/rand6/_temporary/_task_200811101024_0013_m_000966_0/part-00966. blk_-8298245890236985698
081111 043050 20029 INFO dfs.DataNode$PacketResponder: PacketResponder 0 for block blk_-2928428151715933794 terminating
081111 060526 21549 INFO dfs.DataNode$PacketResponder: Received block blk_-7517257303133122781 of size 67108864 from /10.250.10.100
081109 223355 3634 WARN dfs.DataNode$DataXceiver: 10.251.31.85:50010:Got exception while serving blk_-8482155790495872636 to /10.251.214.130:
081110 213808 27 INFO dfs.FSNamesystem: BLOCK* NameSystem.addStoredBlock: blockMap updated: 10.251.74.134:50010 is added to blk_1240465801047873694 size 67108864
081111 085912 27 INFO dfs.FSNamesystem: BLOCK* NameSystem.delete: blk_7473137303297597722 is added to invalidSet of 10.250.14.224:50010
081109 203805 227 INFO dfs.DataNode$PacketResponder: PacketResponder 0 for block blk_1079062196178133512 terminating
081111 091244 25449 INFO dfs.DataNode$PacketResponder: Received block blk_-101883866544455354 of size 67108864 from /10.251.75.79
081110 210315 19 INFO dfs.FSDataset: Deleting block blk_-7371268170215120430 file /mnt/hadoop/dfs/data/current/subdir40/blk_-7371268170215120430
081111 041417 19757 INFO dfs.DataNode$PacketResponder: PacketResponder 1 for block blk_7943088111551190831 terminating
081109 213052 34 INFO dfs.FSNamesystem: BLOCK* NameSystem.addStoredBlock: blockMap updated: 10.251.202.134:50010 is added to blk_-1863058220221628162 size 67108864
081111 044306 35 INFO dfs.FSNamesystem: BLOCK* NameSystem.delete: blk_4229104603456054553 is added to invalidSet of 10.251.71.16:50010
081111 050245 20455 INFO dfs.DataNode$PacketResponder: PacketResponder 2 for block blk_4132681242682029335 terminating
081110 152054 13195 INFO dfs.DataNode$PacketResponder: PacketResponder 2 for block blk_7654189237842827321 terminating
081111 035216 33 INFO dfs.FSNamesystem: BLOCK* NameSystem.addStoredBlock: blockMap updated: 10.251.66.192:50010 is added to blk_8207389892221480803 size 67108864
081111 044348 29 INFO dfs.FSNamesystem: BLOCK* NameSystem.delete: blk_2676228990398017091 is added to invalidSet of 10.251.74.134:50010
081111 110437 26 INFO dfs.FSNamesystem: BLOCK* NameSystem.delete: blk_3172636486758170694 is added to invalidSet of 10.251.194.102:50010
081111 091436 19 INFO dfs.FSNamesystem: BLOCK* ask 10.251.214.175:50010 to replicate blk_-8293697636734166533 to datanode(s) 10.250.10.223:50010
081111 065159 19 INFO dfs.FSDataset: Deleting block blk_-1488852679792461277 file /mnt/hadoop/dfs/data/current/subdir63/blk_-1488852679792461277
081110 103050 34 INFO dfs.FSNamesystem: BLOCK* NameSystem.delete: blk_-6075601927431218005 is added to invalidSet of 10.251.106.37:50010
081111 044715 19 INFO dfs.FSDataset: Deleting block blk_2283547040949438818 file /mnt/hadoop/dfs/data/current/subdir14/blk_2283547040949438818
081111 074938 32 INFO dfs.FSNamesystem: BLOCK* NameSystem.addStoredBlock: blockMap updated: 10.251.89.155:50010 is added to blk_5719063643465442316 size 63216643
081111 044817 19 INFO dfs.FSDataset: Deleting block blk_8226498771388551260 file /mnt/hadoop/dfs/data/current/subdir33/blk_8226498771388551260
081111 033827 19 INFO dfs.FSDataset: Deleting block blk_-5594494831074424446 file /mnt/hadoop/dfs/data/current/subdir43/blk_-5594494831074424446
081111 031929 18538 INFO dfs.DataNode$PacketResponder: PacketResponder 0 for block blk_3376904014948717629 terminating
081110 013009 5583 INFO dfs.DataNode$PacketResponder: Received block blk_5831367026383271035 of size 67108864 from /10.251.74.79
081110 103348 9077 INFO dfs.DataNode$DataXceiver: Receiving block blk_-6992910376373890234 src: /10.251.106.10:54587 dest: /10.251.106.10:50010
081110 105623 9420 INFO dfs.DataNode$DataXceiver: Receiving block blk_-2935301664900807185 src: /10.251.42.84:36644 dest: /10.251.42.84:50010
081109 233429 27 INFO dfs.FSNamesystem: BLOCK* NameSystem.addStoredBlock: blockMap updated: 10.251.106.50:50010 is added to blk_7657047710215297480 size 67108864
081111 043029 19928 INFO dfs.DataNode$DataXceiver: Receiving block blk_-1897883412162824072 src: /10.250.14.196:47622 dest: /10.250.14.196:50010
081109 204932 26 INFO dfs.FSNamesystem: BLOCK* NameSystem.allocateBlock: /user/root/rand/_temporary/_task_200811092030_0001_m_000650_0/part-00650. blk_-6545141145237129774
081109 215247 2972 WARN dfs.DataNode$DataXceiver: 10.251.67.4:50010:Got exception while serving blk_8921247684943884005 to /10.251.214.130:
081111 080119 23955 INFO dfs.DataNode$DataXceiver: Receiving block blk_6408546748151327489 src: /10.250.7.146:39695 dest: /10.250.7.146:50010
081110 015624 6115 INFO dfs.DataNode$PacketResponder: Received block blk_8594053811272507562 of size 67108864 from /10.251.29.239
081110 013246 5650 INFO dfs.DataNode$DataXceiver: Receiving block blk_-2106579941165545313 src: /10.251.111.37:40065 dest: /10.251.111.37:50010
081111 063317 22470 INFO dfs.DataNode$PacketResponder: Received block blk_565215152764320688 of size 67108864 from /10.251.90.81
081110 210633 19 INFO dfs.FSDataset: Deleting block blk_5815520054040467101 file /mnt/hadoop/dfs/data/current/subdir15/blk_5815520054040467101
081111 044656 19 INFO dfs.FSDataset: Deleting block blk_-505108230814551040 file /mnt/hadoop/dfs/data/current/subdir47/blk_-505108230814551040
081111 074549 33 INFO dfs.FSNamesystem: BLOCK* NameSystem.allocateBlock: /user/root/rand6/_temporary/_task_200811101024_0013_m_001632_0/part-01632. blk_8158152791201184685
081111 044349 29 INFO dfs.FSNamesystem: BLOCK* NameSystem.delete: blk_-4468822756239827374 is added to invalidSet of 10.250.19.227:50010
081111 050229 20618 INFO dfs.DataNode$DataXceiver: Receiving block blk_5334678780796456729 src: /10.251.111.228:40891 dest: /10.251.111.228:50010
081111 041344 19959 INFO dfs.DataNode$PacketResponder: PacketResponder 1 for block blk_-1205015145132144619 terminating
081109 215853 3131 INFO dfs.DataNode$DataXceiver: 10.251.126.5:50010 Served block blk_-205887742223240524 to /10.250.6.214
081111 054034 20910 INFO dfs.DataNode$DataXceiver: Receiving block blk_1908292185602047350 src: /10.251.110.196:52576 dest: /10.251.110.196:50010
081110 190713 14275 WARN dfs.DataNode$DataXceiver: 10.251.66.3:50010:Got exception while serving blk_-8213170763464394134 to /10.251.193.224:
081110 103609 19 INFO dfs.FSDataset: Deleting block blk_-6472741099248344098 file /mnt/hadoop/dfs/data/current/subdir12/blk_-6472741099248344098
081111 072447 23188 INFO dfs.DataNode$DataXceiver: Receiving block blk_3358410892216071088 src: /10.251.30.6:39463 dest: /10.251.30.6:50010
081111 110635 19 INFO dfs.FSDataset: Deleting block blk_7466896530829249924 file /mnt/hadoop/dfs/data/current/subdir45/blk_7466896530829249924
081111 025025 17945 INFO dfs.DataNode$PacketResponder: PacketResponder 0 for block blk_8969088457716690088 terminating
081110 210132 28 INFO dfs.FSNamesystem: BLOCK* NameSystem.delete: blk_4761049520119920883 is added to invalidSet of 10.251.74.192:50010
081111 083101 29 INFO dfs.FSNamesystem: BLOCK* NameSystem.addStoredBlock: blockMap updated: 10.250.6.4:50010 is added to blk_6988060584451953088 size 67108864
081111 024001 17771 INFO dfs.DataNode$PacketResponder: PacketResponder 1 for block blk_1077242026119382602 terminating
081111 023257 19 INFO dfs.FSDataset: Deleting block blk_2445169843931455942 file /mnt/hadoop/dfs/data/current/subdir45/blk_2445169843931455942
081111 075633 28 INFO dfs.FSNamesystem: BLOCK* NameSystem.delete: blk_-8830957907796085667 is added to invalidSet of 10.251.111.209:50010
081111 051758 3601 INFO dfs.DataNode$PacketResponder: PacketResponder 0 for block blk_-1580132614541004195 terminating
081111 055324 21673 INFO dfs.DataNode$DataXceiver: Receiving block blk_-7165289983717627345 src: /10.251.193.175:40075 dest: /10.251.193.175:50010
081109 213817 31 INFO dfs.FSNamesystem: BLOCK* NameSystem.delete: blk_-3965425373583856504 is added to invalidSet of 10.251.39.192:50010
081111 073810 22210 INFO dfs.DataNode$PacketResponder: Received block blk_-6499008116346088553 of size 3543549 from /10.251.106.10
081111 065425 19 INFO dfs.FSDataset: Deleting block blk_-6887013792740459416 file /mnt/hadoop/dfs/data/current/subdir5/blk_-6887013792740459416
081110 012409 5567 INFO dfs.DataNode$PacketResponder: PacketResponder 0 for block blk_-4301905675412971941 terminating
081111 091952 25448 INFO dfs.DataNode$DataXceiver: Receiving block blk_-7357433442441787048 src: /10.251.75.228:53937 dest: /10.251.75.228:50010
081111 100143 19 INFO dfs.FSDataset: Deleting block blk_3905420385886954766 file /mnt/hadoop/dfs/data/current/subdir63/blk_3905420385886954766
081110 103256 9041 INFO dfs.DataNode$PacketResponder: PacketResponder 1 for block blk_1723322829983737947 terminating
081111 033304 35 INFO dfs.FSNamesystem: BLOCK* NameSystem.allocateBlock: /user/root/rand4/_temporary/_task_200811101024_0009_m_001834_0/part-01834. blk_-3370996897025153431
081111 023038 27 INFO dfs.FSNamesystem: BLOCK* NameSystem.delete: blk_-7275151355273428035 is added to invalidSet of 10.251.30.101:50010
081110 124117 19 INFO dfs.FSDataset: Deleting block blk_2728196200524769702 file /mnt/hadoop/dfs/data/current/subdir51/blk_2728196200524769702
081110 112000 9862 INFO dfs.DataNode$PacketResponder: Received block blk_2446908700011044008 of size 67108864 from /10.251.198.33
081110 131413 11739 WARN dfs.DataNode$DataXceiver: 10.251.202.209:50010:Got exception while serving blk_7499645788709757579 to /10.251.42.16:
081111 040728 19519 INFO dfs.DataNode$PacketResponder: Received block blk_-7738446427496418070 of size 67108864 from /10.251.74.134
081111 085132 24862 INFO dfs.DataNode$PacketResponder: PacketResponder 2 for block blk_6915393495622008596 terminating
081111 035636 19121 INFO dfs.DataNode$PacketResponder: PacketResponder 2 for block blk_-9059476797138036846 terminating
081111 052833 20679 INFO dfs.DataNode$PacketResponder: PacketResponder 2 for block blk_622063093954982141 terminating
081110 105002 26 INFO dfs.FSNamesystem: BLOCK* NameSystem.allocateBlock: /user/root/rand/_temporary/_task_200811101024_0001_m_000437_0/part-00437. blk_3961405109333781355
081111 051321 20817 INFO dfs.DataNode$DataXceiver: Receiving block blk_-6826326764539475858 src: /10.251.195.70:59171 dest: /10.251.195.70:50010
081111 090306 25229 INFO dfs.DataNode$PacketResponder: PacketResponder 1 for block blk_1274033363424342424 terminating
081111 091716 34 INFO dfs.FSNamesystem: BLOCK* NameSystem.addStoredBlock: blockMap updated: 10.251.215.50:50010 is added to blk_327225415104322493 size 67108864
081111 024309 27 INFO dfs.FSNamesystem: BLOCK* NameSystem.addStoredBlock: blockMap updated: 10.251.67.211:50010 is added to blk_8973180429018617818 size 67108864
081111 085927 27 INFO dfs.FSNamesystem: BLOCK* NameSystem.delete: blk_-2836918874000568688 is added to invalidSet of 10.251.71.146:50010
081111 053502 20753 INFO dfs.DataNode$DataXceiver: Receiving block blk_1783945959300732013 src: /10.251.203.246:51720 dest: /10.251.203.246:50010
081110 112015 33 INFO dfs.FSNamesystem: BLOCK* NameSystem.addStoredBlock: blockMap updated: 10.251.75.79:50010 is added to blk_-5975614008314288038 size 67108864
081111 090746 25211 INFO dfs.DataNode$PacketResponder: PacketResponder 0 for block blk_-1193922023948040953 terminating
081109 234153 4203 INFO dfs.DataNode$PacketResponder: Received block blk_2772925433876312248 of size 67108864 from /10.251.199.159
081109 214844 2781 INFO dfs.DataNode$DataXceiver: 10.250.7.230:50010 Served block blk_-5580142955922147391 to /10.250.13.188
081110 210114 28 INFO dfs.FSNamesystem: BLOCK* NameSystem.delete: blk_-9101290190916691721 is added to invalidSet of 10.251.203.4:50010
081110 214042 15277 INFO dfs.DataNode$PacketResponder: PacketResponder 0 for block blk_-7482451125869291271 terminating
081110 114757 28 INFO dfs.FSNamesystem: BLOCK* NameSystem.addStoredBlock: blockMap updated: 10.251.198.196:50010 is added to blk_-2833060514474650206 size 67108864
081111 044754 19 INFO dfs.FSDataset: Deleting block blk_6984430640699556133 file /mnt/hadoop/dfs/data/current/subdir56/blk_6984430640699556133
081110 090857 13 INFO dfs.DataBlockScanner: Verification succeeded for blk_-6258764850205994856
081110 220312 15710 INFO dfs.DataNode$PacketResponder: PacketResponder 1 for block blk_-3112783981476779592 terminating
081110 123048 11317 INFO dfs.DataNode$DataXceiver: Receiving block blk_-4309760424662067878 src: /10.251.127.243:34065 dest: /10.251.127.243:50010
081110 145852 12971 INFO dfs.DataNode$PacketResponder: PacketResponder 2 for block blk_1481274260368415735 terminating
081111 065213 26 INFO dfs.FSNamesystem: BLOCK* NameSystem.delete: blk_-9090389153279213880 is added to invalidSet of 10.251.126.22:50010
081110 235151 16986 WARN dfs.DataNode$DataXceiver: 10.250.14.196:50010:Got exception while serving blk_-4172029190672513729 to /10.250.14.196:
081110 103503 19 INFO dfs.FSDataset: Deleting block blk_-6819228244025702612 file /mnt/hadoop/dfs/data/current/subdir30/blk_-6819228244025702612
081110 150106 12501 INFO dfs.DataNode$PacketResponder: PacketResponder 1 for block blk_-4453446611663675420 terminating
081110 032105 6383 INFO dfs.DataNode$DataXceiver: 10.250.10.100:50010 Served block blk_3353607197255082511 to /10.251.203.129
081110 051828 7029 INFO dfs.DataNode$DataXceiver: 10.251.43.115:50010 Served block blk_8058413542337253789 to /10.251.43.115
081110 071203 7312 INFO dfs.DataNode$DataXceiver: 10.251.202.134:50010 Served block blk_-6345072394458463575 to /10.251.202.134
081111 023236 19 INFO dfs.FSDataset: Deleting block blk_-4616515533161011977 file /mnt/hadoop/dfs/data/current/subdir39/blk_-4616515533161011977
081110 144127 12453 INFO dfs.DataNode$PacketResponder: PacketResponder 0 for block blk_-3055998887723617513 terminating
081111 032542 31 INFO dfs.FSNamesystem: BLOCK* NameSystem.addStoredBlock: blockMap updated: 10.251.111.37:50010 is added to blk_-3430097850657104915 size 67108864
081110 105304 9517 INFO dfs.DataNode$DataXceiver: Receiving block blk_8406121732242502608 src: /10.251.123.33:53513 dest: /10.251.123.33:50010
081110 103110 30 INFO dfs.FSNamesystem: BLOCK* NameSystem.delete: blk_-836751775568666552 is added to invalidSet of 10.250.17.177:50010
081110 013110 29 INFO dfs.FSNamesystem: BLOCK* NameSystem.addStoredBlock: blockMap updated: 10.251.106.37:50010 is added to blk_-8934417087789571724 size 67108864
081110 135219 12060 WARN dfs.DataNode$DataXceiver: 10.250.13.240:50010:Got exception while serving blk_-2177377790595846634 to /10.250.13.240:
081111 051153 27 INFO dfs.FSNamesystem: BLOCK* NameSystem.addStoredBlock: blockMap updated: 10.251.194.129:50010 is added to blk_9046524890634874111 size 67108864
081110 225957 16735 INFO dfs.DataNode$PacketResponder: PacketResponder 1 for block blk_-8710166539255303643 terminating
081109 234550 30 INFO dfs.FSNamesystem: BLOCK* NameSystem.addStoredBlock: blockMap updated: 10.251.75.79:50010 is added to blk_7479731777246138014 size 67108864
081111 074405 31 INFO dfs.FSNamesystem: BLOCK* NameSystem.addStoredBlock: blockMap updated: 10.250.6.214:50010 is added to blk_7746642292015965335 size 67108864
081111 085443 19374 INFO dfs.DataNode$PacketResponder: PacketResponder 0 for block blk_5944206440074025173 terminating
081110 221820 16118 INFO dfs.DataNode$DataTransfer: 10.251.67.211:50010:Transmitted block blk_-5261346411866119101 to /10.250.7.146:50010
081111 062002 21755 INFO dfs.DataNode$PacketResponder: Received block blk_5912244361368331776 of size 67108864 from /10.251.123.99
081111 023355 19 INFO dfs.FSDataset: Deleting block blk_-4447538881314372499 file /mnt/hadoop/dfs/data/current/subdir32/blk_-4447538881314372499
081111 094538 29 INFO dfs.FSNamesystem: BLOCK* NameSystem.allocateBlock: /user/root/rand8/_temporary/_task_200811101024_0015_m_001689_0/part-01689. blk_5459524916919257211
081109 210418 1279 INFO dfs.DataNode$DataXceiver: Receiving block blk_-65946170790371423 src: /10.251.199.86:37702 dest: /10.251.199.86:50010
081111 030622 18444 INFO dfs.DataNode$PacketResponder: PacketResponder 2 for block blk_7312632536396810764 terminating
081110 222620 30 INFO dfs.FSNamesystem: BLOCK* NameSystem.addStoredBlock: blockMap updated: 10.250.9.207:50010 is added to blk_4613060939005812197 size 67108864
081110 001012 4785 INFO dfs.DataNode$PacketResponder: Received block blk_-7486754241151490784 of size 67108864 from /10.251.31.85
081109 215831 3104 WARN dfs.DataNode$DataXceiver: 10.250.7.32:50010:Got exception while serving blk_3580542476965814373 to /10.251.67.211:
081111 091719 27 INFO dfs.FSNamesystem: BLOCK* NameSystem.allocateBlock: /user/root/rand8/_temporary/_task_200811101024_0015_m_000547_0/part-00547. blk_7132235909314466664
081110 121655 11117 INFO dfs.DataNode$PacketResponder: Received block blk_-7725888522364389853 of size 67108864 from /10.251.110.196
081111 073212 23179 INFO dfs.DataNode$PacketResponder: Received block blk_8705318032121155125 of size 67108864 from /10.251.42.16
081111 024848 28 INFO dfs.FSNamesystem: BLOCK* NameSystem.allocateBlock: /user/root/rand4/_temporary/_task_200811101024_0009_m_000111_0/part-00111. blk_95768686134312375
081109 210210 1246 INFO dfs.DataNode$DataXceiver: Receiving block blk_-5429565217970859246 src: /10.251.197.226:37483 dest: /10.251.197.226:50010
081111 044323 35 INFO dfs.FSNamesystem: BLOCK* NameSystem.delete: blk_-1476578286087561433 is added to invalidSet of 10.251.110.160:50010
081110 213132 33 INFO dfs.FSNamesystem: BLOCK* NameSystem.allocateBlock: /user/root/rand3/_temporary/_task_200811101024_0005_m_000996_0/part-00996. blk_-3729380295942189231
081110 220212 15694 INFO dfs.DataNode$DataXceiver: Receiving block blk_-8397277199734193699 src: /10.251.123.33:44001 dest: /10.251.123.33:50010
081110 103138 30 INFO dfs.FSNamesystem: BLOCK* NameSystem.delete: blk_407217917363263731 is added to invalidSet of 10.250.6.214:50010
081110 220645 32 INFO dfs.FSNamesystem: BLOCK* NameSystem.delete: blk_112982033780662138 is added to invalidSet of 10.251.197.226:50010
081110 214839 28 INFO dfs.FSNamesystem: BLOCK* NameSystem.addStoredBlock: blockMap updated: 10.251.71.68:50010 is added to blk_402829232156286446 size 67108864
081111 075824 23857 INFO dfs.DataNode$PacketResponder: Received block blk_-6445360605808552681 of size 67108864 from /10.251.125.237
081111 081501 24013 INFO dfs.DataNode$DataXceiver: Receiving block blk_5821188205156921163 src: /10.250.5.237:44323 dest: /10.250.5.237:50010
081111 065214 26 INFO dfs.FSNamesystem: BLOCK* NameSystem.delete: blk_1413197455881250671 is added to invalidSet of 10.251.122.38:50010
081111 092107 25380 INFO dfs.DataNode$PacketResponder: PacketResponder 0 for block blk_1403446149062683476 terminating
081110 212714 14845 INFO dfs.DataNode$PacketResponder: Received block blk_-5323304900462463267 of size 67108864 from /10.251.75.49
081109 222322 3523 WARN dfs.DataNode$DataXceiver: 10.251.75.79:50010:Got exception while serving blk_-7346095240141992434 to /10.251.214.67:
081111 075622 28 INFO dfs.FSNamesystem: BLOCK* NameSystem.delete: blk_3025241780879520731 is added to invalidSet of 10.251.125.174:50010
081111 110417 34 INFO dfs.FSNamesystem: BLOCK* NameSystem.delete: blk_-8384695316827584096 is added to invalidSet of 10.251.74.192:50010
081111 100724 26449 INFO dfs.DataNode$PacketResponder: Received block blk_2346846059464357056 of size 67108864 from /10.251.42.246
081111 080807 26 INFO dfs.FSNamesystem: BLOCK* NameSystem.addStoredBlock: blockMap updated: 10.251.75.143:50010 is added to blk_-3481909005851207217 size 67108864
081110 211001 14672 INFO dfs.DataNode$PacketResponder: Received block blk_-4320685816053088732 of size 67108864 from /10.251.107.227
081110 212529 14920 INFO dfs.DataNode$DataXceiver: Receiving block blk_-2088826945014452755 src: /10.251.125.174:38267 dest: /10.251.125.174:50010
081111 070114 31 INFO dfs.FSNamesystem: BLOCK* NameSystem.addStoredBlock: blockMap updated: 10.250.11.100:50010 is added to blk_-3010230709348629352 size 67108864
081110 103846 19 INFO dfs.FSDataset: Deleting block blk_-2221822678673544645 file /mnt/hadoop/dfs/data/current/blk_-2221822678673544645
081110 103537 19 INFO dfs.FSDataset: Deleting block blk_-2481715385212746926 file /mnt/hadoop/dfs/data/current/subdir25/blk_-2481715385212746926
081111 054520 21712 INFO dfs.DataNode$PacketResponder: PacketResponder 2 for block blk_-6255321700997609404 terminating
081110 071210 7525 INFO dfs.DataNode$DataXceiver: 10.250.14.143:50010 Served block blk_-5083109172205485466 to /10.250.14.143
081111 043724 19959 INFO dfs.DataNode$PacketResponder: PacketResponder 0 for block blk_-1885411130243762593 terminating
081109 211418 35 INFO dfs.FSNamesystem: BLOCK* NameSystem.addStoredBlock: blockMap updated: 10.251.65.237:50010 is added to blk_-1910243579841756515 size 67108864
081110 081325 8277 WARN dfs.DataNode$DataXceiver: 10.251.198.33:50010:Got exception while serving blk_-6693325846964922505 to /10.251.66.102:
081110 210616 18 INFO dfs.FSDataset: Deleting block blk_7219276311612607015 file /mnt/hadoop/dfs/data/current/subdir52/blk_7219276311612607015
081110 215755 15123 INFO dfs.DataNode$PacketResponder: Received block blk_9212641598567017993 of size 67108864 from /10.251.42.191
081109 234121 27 INFO dfs.FSNamesystem: BLOCK* NameSystem.allocateBlock: /user/root/sortrand/_temporary/_task_200811092030_0002_r_000291_0/part-00291. blk_3570225843074602453
081111 025111 17718 INFO dfs.DataNode$PacketResponder: PacketResponder 2 for block blk_-7903285531607867463 terminating
081111 070910 22647 INFO dfs.DataNode$PacketResponder: PacketResponder 0 for block blk_-3913279917634705155 terminating
081110 103833 18 INFO dfs.FSDataset: Deleting block blk_5932020886256766030 file /mnt/hadoop/dfs/data/current/subdir15/blk_5932020886256766030
081111 060431 29 INFO dfs.FSNamesystem: BLOCK* NameSystem.allocateBlock: /user/root/randtxt5/_temporary/_task_200811101024_0012_m_000761_0/part-00761. blk_-7338878061772591692
081110 103144 30 INFO dfs.FSNamesystem: BLOCK* NameSystem.delete: blk_8523537443007933859 is added to invalidSet of 10.251.39.192:50010
081111 082704 24235 INFO dfs.DataNode$PacketResponder: PacketResponder 1 for block blk_2852321641336253878 terminating
081110 152600 13162 INFO dfs.DataNode$PacketResponder: Received block blk_9084016975905917152 of size 67108864 from /10.250.5.161
081110 014636 5945 INFO dfs.DataNode$PacketResponder: Received block blk_-6700570302928961406 of size 67108864 from /10.251.65.237
081110 225106 16518 INFO dfs.DataNode$DataXceiver: Receiving block blk_8256111616723581070 src: /10.251.31.160:35997 dest: /10.251.31.160:50010
081111 091502 24606 INFO dfs.DataNode$DataXceiver: Receiving block blk_7798184828153228322 src: /10.251.75.143:39536 dest: /10.251.75.143:50010
081110 210452 19 INFO dfs.FSDataset: Deleting block blk_-4555219372730399618 file /mnt/hadoop/dfs/data/current/subdir4/blk_-4555219372730399618
081110 103727 19 INFO dfs.FSDataset: Deleting block blk_6736242498965096294 file /mnt/hadoop/dfs/data/current/subdir11/blk_6736242498965096294
081111 085912 27 INFO dfs.FSNamesystem: BLOCK* NameSystem.delete: blk_4206288683971819343 is added to invalidSet of 10.251.107.227:50010
081110 115106 10454 INFO dfs.DataNode$PacketResponder: Received block blk_1503937630295835689 of size 67108864 from /10.251.75.79
081110 115820 26 INFO dfs.FSNamesystem: BLOCK* NameSystem.addStoredBlock: blockMap updated: 10.250.6.214:50010 is added to blk_-7791396703507312624 size 67108864
081110 210150 19 INFO dfs.FSDataset: Deleting block blk_-5082888452933314736 file /mnt/hadoop/dfs/data/current/subdir28/blk_-5082888452933314736
081109 235209 28 INFO dfs.FSNamesystem: BLOCK* NameSystem.allocateBlock: /user/root/sortrand/_temporary/_task_200811092030_0002_r_000217_0/part-00217. blk_9147476050264610506
081111 101412 26125 INFO dfs.DataNode$PacketResponder: PacketResponder 2 for block blk_8599230215012861294 terminating
081111 063028 22063 INFO dfs.DataNode$PacketResponder: PacketResponder 0 for block blk_-5693750867805374957 terminating
081110 155259 12749 INFO dfs.DataNode$PacketResponder: PacketResponder 2 for block blk_5146401005713359256 terminating
081111 024135 17821 INFO dfs.DataNode$DataXceiver: Receiving block blk_3521675085418070702 src: /10.251.122.65:33278 dest: /10.251.122.65:50010
081111 003646 16537 INFO dfs.DataNode$DataXceiver: 10.251.106.10:50010 Served block blk_-3553651782153353605 to /10.251.70.112
081110 114205 10309 INFO dfs.DataNode$DataXceiver: Receiving block blk_8319125784536054396 src: /10.251.215.50:35403 dest: /10.251.215.50:50010
081111 022241 17458 INFO dfs.DataNode$DataXceiver: 10.251.127.243:50010 Served block blk_2973631404155756541 to /10.250.15.101
081110 051233 6846 INFO dfs.DataNode$DataXceiver: 10.251.107.98:50010 Served block blk_4989085363108986597 to /10.251.107.98
081111 072430 23027 INFO dfs.DataNode$DataXceiver: Receiving block blk_-1186025078840570061 src: /10.251.42.16:46781 dest: /10.251.42.16:50010
081110 222935 15906 INFO dfs.DataNode$PacketResponder: Received block blk_3704601886734633596 of size 67108864 from /10.250.10.223
081111 052432 20825 INFO dfs.DataNode$DataXceiver: Receiving block blk_4555172542689864155 src: /10.251.110.68:53245 dest: /10.251.110.68:50010
081109 232906 26 INFO dfs.FSNamesystem: BLOCK* NameSystem.addStoredBlock: blockMap updated: 10.251.71.193:50010 is added to blk_-5315547129597219222 size 67108864
081110 093322 8593 INFO dfs.DataNode$DataXceiver: 10.251.111.37:50010 Served block blk_8987861050593881651 to /10.251.111.37
081111 024846 31 INFO dfs.FSNamesystem: BLOCK* NameSystem.addStoredBlock: blockMap updated: 10.251.67.225:50010 is added to blk_-7456863701080273182 size 67108864
081110 103036 34 INFO dfs.FSNamesystem: BLOCK* NameSystem.delete: blk_-7133513699095398827 is added to invalidSet of 10.251.42.207:50010
081111 105600 30 INFO dfs.FSNamesystem: BLOCK* NameSystem.addStoredBlock: blockMap updated: 10.251.199.19:50010 is added to blk_8641456463867527882 size 67108864
081111 055906 21241 INFO dfs.DataNode$PacketResponder: PacketResponder 0 for block blk_7947981539935036871 terminating
081111 044614 19 INFO dfs.FSDataset: Deleting block blk_-6324777965051578741 file /mnt/hadoop/dfs/data/current/subdir8/blk_-6324777965051578741
081111 091951 25380 INFO dfs.DataNode$PacketResponder: Received block blk_8645957730915735762 of size 67108864 from /10.251.203.129
081110 083351 8372 INFO dfs.DataNode$DataXceiver: 10.251.42.207:50010 Served block blk_-3085331552718058818 to /10.251.199.150
081111 032824 18669 INFO dfs.DataNode$DataXceiver: Receiving block blk_-4538471951161692085 src: /10.250.7.244:38947 dest: /10.250.7.244:50010
081110 001152 4506 INFO dfs.DataNode$DataXceiver: Receiving block blk_-3258717697660530609 src: /10.251.202.209:44936 dest: /10.251.202.209:50010
081111 081225 24133 INFO dfs.DataNode$PacketResponder: PacketResponder 1 for block blk_7792252860256409036 terminating
081110 105046 9305 INFO dfs.DataNode$DataXceiver: Receiving block blk_2124565134603255183 src: /10.251.67.4:59315 dest: /10.251.67.4:50010
081111 091306 31 INFO dfs.FSNamesystem: BLOCK* NameSystem.allocateBlock: /user/root/rand8/_temporary/_task_200811101024_0015_m_000151_0/part-00151. blk_-7468208300536515766
081110 001044 4686 INFO dfs.DataNode$DataXceiver: Receiving block blk_6466249028008746628 src: /10.251.111.80:40833 dest: /10.251.111.80:50010
081109 235509 4457 INFO dfs.DataNode$PacketResponder: Received block blk_489691543094410631 of size 67108864 from /10.251.111.209
081111 110522 19 INFO dfs.FSDataset: Deleting block blk_-2511486179633322869 file /mnt/hadoop/dfs/data/current/subdir45/blk_-2511486179633322869
081111 055545 21044 INFO dfs.DataNode$PacketResponder: PacketResponder 0 for block blk_5701813145971882448 terminating
081110 122823 11112 INFO dfs.DataNode$PacketResponder: PacketResponder 0 for block blk_2539449184725907327 terminating
081110 230351 27 INFO dfs.FSNamesystem: BLOCK* NameSystem.addStoredBlock: blockMap updated: 10.250.14.143:50010 is added to blk_-1124234891715180223 size 67108864
081110 210157 28 INFO dfs.FSNamesystem: BLOCK* NameSystem.delete: blk_4788081667550989619 is added to invalidSet of 10.250.13.240:50010
081110 103114 30 INFO dfs.FSNamesystem: BLOCK* NameSystem.delete: blk_1622723147356183001 is added to invalidSet of 10.251.70.37:50010
081110 103144 30 INFO dfs.FSNamesystem: BLOCK* NameSystem.delete: blk_-2920013281948436408 is added to invalidSet of 10.251.106.50:50010
081111 023729 17861 INFO dfs.DataNode$PacketResponder: Received block blk_12682266842185189 of size 67108864 from /10.250.5.161
081111 044450 13 INFO dfs.DataBlockScanner: Verification succeeded for blk_-54009592307972189
081111 110550 19 INFO dfs.FSDataset: Deleting block blk_1245010330935939306 file /mnt/hadoop/dfs/data/current/subdir2/blk_1245010330935939306
081110 123501 35 INFO dfs.FSNamesystem: BLOCK* NameSystem.addStoredBlock: blockMap updated: 10.251.203.149:50010 is added to blk_-3339920213721404415 size 67108864
081110 104636 28 INFO dfs.FSNamesystem: BLOCK* NameSystem.addStoredBlock: blockMap updated: 10.251.121.224:50010 is added to blk_-2474265697423249845 size 67108864
081111 083324 24606 INFO dfs.DataNode$DataXceiver: Receiving block blk_3069066089888578878 src: /10.250.14.196:41381 dest: /10.250.14.196:50010
081111 070640 29 INFO dfs.FSNamesystem: BLOCK* NameSystem.addStoredBlock: blockMap updated: 10.251.111.209:50010 is added to blk_5317919078920339055 size 67108864
081110 124052 26 INFO dfs.FSNamesystem: BLOCK* NameSystem.delete: blk_-9199555903979963943 is added to invalidSet of 10.251.91.84:50010
081110 210526 19 INFO dfs.FSDataset: Deleting block blk_-1970814188926750666 file /mnt/hadoop/dfs/data/current/subdir46/blk_-1970814188926750666
081110 002515 32 INFO dfs.FSNamesystem: BLOCK* NameSystem.addStoredBlock: blockMap updated: 10.251.203.166:50010 is added to blk_6902412821457629355 size 67108864
081110 014312 5959 INFO dfs.DataNode$DataXceiver: Receiving block blk_-6873469368707581846 src: /10.251.75.79:53275 dest: /10.251.75.79:50010
081110 103324 19 INFO dfs.FSDataset: Deleting block blk_-8371574955782275189 file /mnt/hadoop/dfs/data/current/subdir8/blk_-8371574955782275189
081111 055330 26 INFO dfs.FSNamesystem: BLOCK* NameSystem.addStoredBlock: blockMap updated: 10.251.75.143:50010 is added to blk_-1389176716911446050 size 67108864
081111 075915 19 INFO dfs.FSDataset: Deleting block blk_-1704214073225093240 file /mnt/hadoop/dfs/data/current/subdir63/blk_-1704214073225093240
081111 092918 32 INFO dfs.FSNamesystem: BLOCK* NameSystem.addStoredBlock: blockMap updated: 10.251.126.83:50010 is added to blk_5771255077076811982 size 67108864
081110 220652 32 INFO dfs.FSNamesystem: BLOCK* NameSystem.delete: blk_6459541819771507835 is added to invalidSet of 10.251.214.67:50010
081111 093906 25842 INFO dfs.DataNode$DataXceiver: Receiving block blk_6367315039863293304 src: /10.251.71.16:43102 dest: /10.251.71.16:50010
081110 000131 4572 INFO dfs.DataNode$PacketResponder: PacketResponder 1 for block blk_-4006186276795852710 terminating
081110 072153 7831 INFO dfs.DataNode$DataXceiver: 10.250.18.114:50010 Served block blk_-2459730050892407975 to /10.250.18.114
081110 103447 9100 INFO dfs.DataNode$PacketResponder: PacketResponder 0 for block blk_-429815043017853360 terminating
081111 024822 17983 INFO dfs.DataNode$PacketResponder: PacketResponder 1 for block blk_-3670217461247853982 terminating
081110 015211 26 INFO dfs.FSNamesystem: BLOCK* NameSystem.addStoredBlock: blockMap updated: 10.251.75.79:50010 is added to blk_-5203659678562543845 size 67108864
081111 001428 17070 INFO dfs.DataNode$DataXceiver: 10.251.123.132:50010 Served block blk_-8786998722919941985 to /10.251.123.132
081111 095504 26290 INFO dfs.DataNode$PacketResponder: Received block blk_-8732304609656584168 of size 3553570 from /10.250.6.214
081109 232741 3857 INFO dfs.DataNode$DataXceiver: Receiving block blk_7096042997165993348 src: /10.250.15.240:43663 dest: /10.250.15.240:50010
081111 044736 19 INFO dfs.FSDataset: Deleting block blk_6851367593610382429 file /mnt/hadoop/dfs/data/current/subdir42/blk_6851367593610382429
081110 210601 19 INFO dfs.FSDataset: Deleting block blk_5322725895444650509 file /mnt/hadoop/dfs/data/current/subdir20/blk_5322725895444650509
081109 210758 28 INFO dfs.FSNamesystem: BLOCK* NameSystem.addStoredBlock: blockMap updated: 10.251.110.8:50010 is added to blk_6161676156631069314 size 67108864
081110 110758 35 INFO dfs.FSNamesystem: BLOCK* NameSystem.addStoredBlock: blockMap updated: 10.251.202.134:50010 is added to blk_-5217409170812891430 size 67108864
081111 065526 19 INFO dfs.FSDataset: Deleting block blk_7793463074322991711 file /mnt/hadoop/dfs/data/current/subdir30/blk_7793463074322991711
081111 045320 28 INFO dfs.FSNamesystem: BLOCK* NameSystem.addStoredBlock: blockMap updated: 10.251.106.37:50010 is added to blk_-1618761648630767239 size 67108864
081111 034536 18884 INFO dfs.DataNode$PacketResponder: Received block blk_7289531303210503334 of size 67108864 from /10.251.90.64
081111 082258 23739 INFO dfs.DataNode$PacketResponder: Received block blk_2040926102004498527 of size 67108864 from /10.251.203.179
081111 095328 26 INFO dfs.FSNamesystem: BLOCK* NameSystem.allocateBlock: /user/root/rand8/_temporary/_task_200811101024_0015_m_001633_0/part-01633. blk_655633378676515539
081110 210152 28 INFO dfs.FSNamesystem: BLOCK* NameSystem.delete: blk_6624279303942324741 is added to invalidSet of 10.250.14.224:50010
081111 044345 29 INFO dfs.FSNamesystem: BLOCK* NameSystem.delete: blk_5499338040489936754 is added to invalidSet of 10.250.6.214:50010
081111 060321 21143 INFO dfs.DataNode$PacketResponder: Received block blk_-2708406370561480527 of size 67108864 from /10.251.126.255
081110 103551 19 INFO dfs.FSDataset: Deleting block blk_795189869523711655 file /mnt/hadoop/dfs/data/current/subdir25/blk_795189869523711655
081111 085152 24653 INFO dfs.DataNode$PacketResponder: Received block blk_5333689591380286512 of size 67108864 from /10.250.10.144
081110 230549 16906 INFO dfs.DataNode$PacketResponder: Received block blk_5484946438299489739 of size 28499205 from /10.251.39.209
081110 013801 31 INFO dfs.FSNamesystem: BLOCK* NameSystem.addStoredBlock: blockMap updated: 10.251.111.228:50010 is added to blk_7871524015589738710 size 67108864
081110 145541 12913 INFO dfs.DataNode$DataXceiver: Receiving block blk_-2151830149725603276 src: /10.251.71.193:53689 dest: /10.251.71.193:50010
081111 085919 27 INFO dfs.FSNamesystem: BLOCK* NameSystem.delete: blk_206071427378708804 is added to invalidSet of 10.250.19.227:50010
081110 103309 19 INFO dfs.FSDataset: Deleting block blk_-9165721443059590087 file /mnt/hadoop/dfs/data/current/subdir60/blk_-9165721443059590087
081111 091625 35 INFO dfs.FSNamesystem: BLOCK* NameSystem.allocateBlock: /user/root/rand8/_temporary/_task_200811101024_0015_m_000433_0/part-00433. blk_-4525380732129565484
081111 104654 27073 INFO dfs.DataNode$PacketResponder: PacketResponder 2 for block blk_-6499678377682363762 terminating
081111 103823 26941 INFO dfs.DataNode$PacketResponder: Received block blk_6313695902615843671 of size 3541018 from /10.251.37.240
081110 114440 35 INFO dfs.FSNamesystem: BLOCK* NameSystem.addStoredBlock: blockMap updated: 10.251.90.134:50010 is added to blk_-2834180031589446637 size 67108864
081110 123143 29 INFO dfs.FSNamesystem: BLOCK* NameSystem.addStoredBlock: blockMap updated: 10.250.15.101:50010 is added to blk_4266669760674174950 size 67108864
081111 074003 23411 INFO dfs.DataNode$PacketResponder: Received block blk_-5411619372111149657 of size 67108864 from /10.251.125.237
081110 173222 13723 WARN dfs.DataNode$DataXceiver: 10.251.66.63:50010:Got exception while serving blk_-3885841007271836067 to /10.251.91.229:
081111 062114 30 INFO dfs.FSNamesystem: BLOCK* NameSystem.addStoredBlock: blockMap updated: 10.251.75.79:50010 is added to blk_-6505863719356564201 size 67108864
081109 233137 3922 INFO dfs.DataNode$PacketResponder: Received block blk_-7706365769885115042 of size 67108864 from /10.251.75.163
081109 235834 4441 INFO dfs.DataNode$PacketResponder: Received block blk_-1468309772071290285 of size 67108864 from /10.251.110.68
081109 203715 188 INFO dfs.DataNode$PacketResponder: PacketResponder 2 for block blk_1609421853139927098 terminating
081110 071934 7789 INFO dfs.DataNode$DataXceiver: 10.250.10.176:50010 Served block blk_739395676425050237 to /10.250.10.176
081111 042257 19639 INFO dfs.DataNode$PacketResponder: Received block blk_1170958878905843740 of size 67108864 from /10.250.14.224
081111 045845 31 INFO dfs.FSNamesystem: BLOCK* NameSystem.addStoredBlock: blockMap updated: 10.251.31.160:50010 is added to blk_-5487368046515731266 size 67108864
081110 215800 15812 INFO dfs.DataNode$PacketResponder: Received block blk_-6402785077858462987 of size 67108864 from /10.251.38.197
081111 065749 22459 INFO dfs.DataNode$PacketResponder: PacketResponder 0 for block blk_8985095335846292121 terminating
081110 014816 5930 INFO dfs.DataNode$PacketResponder: Received block blk_7798363305997175547 of size 67108864 from /10.251.66.102
081111 061127 21677 INFO dfs.DataNode$DataXceiver: Receiving block blk_-8353629653377133931 src: /10.251.123.1:36836 dest: /10.251.123.1:50010
081111 104552 27086 INFO dfs.DataNode$PacketResponder: PacketResponder 0 for block blk_-3497768886568065890 terminating
081110 215844 15620 INFO dfs.DataNode$DataXceiver: Receiving block blk_8321182769620644361 src: /10.251.203.166:35828 dest: /10.251.203.166:50010
081111 051932 30 INFO dfs.FSNamesystem: BLOCK* NameSystem.allocateBlock: /user/root/rand5/_temporary/_task_200811101024_0011_m_001166_0/part-01166. blk_-8198485568644705744
081110 001335 4867 INFO dfs.DataNode$DataXceiver: Receiving block blk_8657505985213150319 src: /10.251.198.33:40216 dest: /10.251.198.33:50010
081110 145934 12941 INFO dfs.DataNode$PacketResponder: PacketResponder 1 for block blk_-7430979833089088916 terminating
081111 044640 19 INFO dfs.FSDataset: Deleting block blk_-3064386395498998412 file /mnt/hadoop/dfs/data/current/subdir63/blk_-3064386395498998412
081111 044713 19 INFO dfs.FSDataset: Deleting block blk_2117555492869359581 file /mnt/hadoop/dfs/data/current/subdir56/blk_2117555492869359581
081110 151510 13148 INFO dfs.DataNode$DataXceiver: Receiving block blk_-8622506321037808153 src: /10.251.38.214:54464 dest: /10.251.38.214:50010
081111 063913 22333 INFO dfs.DataNode$DataXceiver: Receiving block blk_-2934015204776324558 src: /10.250.10.223:37775 dest: /10.250.10.223:50010
081110 145138 12709 INFO dfs.DataNode$PacketResponder: PacketResponder 2 for block blk_-6345173454155253656 terminating
081110 103646 19 INFO dfs.FSDataset: Deleting block blk_2804717353118675245 file /mnt/hadoop/dfs/data/current/subdir31/blk_2804717353118675245
081111 044816 19 INFO dfs.FSDataset: Deleting block blk_3144473574188210717 file /mnt/hadoop/dfs/data/current/subdir59/blk_3144473574188210717
081110 112837 10114 INFO dfs.DataNode$PacketResponder: Received block blk_4687353606613184053 of size 67108864 from /10.251.199.159
081110 214257 15337 INFO dfs.DataNode$PacketResponder: Received block blk_4049964281230669485 of size 67108864 from /10.250.19.227
081111 053521 20962 INFO dfs.DataNode$DataXceiver: Receiving block blk_-6011179265589196011 src: /10.251.74.227:60654 dest: /10.251.74.227:50010
081111 074759 23502 INFO dfs.DataNode$DataXceiver: Receiving block blk_8754222870909931479 src: /10.251.203.80:38387 dest: /10.251.203.80:50010
081110 122028 11073 INFO dfs.DataNode$DataXceiver: Receiving block blk_-1526625596686579643 src: /10.251.199.86:45597 dest: /10.251.199.86:50010
081110 210540 19 INFO dfs.FSDataset: Deleting block blk_562048146157508406 file /mnt/hadoop/dfs/data/current/subdir1/blk_562048146157508406
081110 112031 9874 INFO dfs.DataNode$PacketResponder: PacketResponder 1 for block blk_6721969260685973857 terminating
081111 032226 18330 INFO dfs.DataNode$DataXceiver: Receiving block blk_-4718630773936822602 src: /10.251.107.242:39627 dest: /10.251.107.242:50010
081109 213319 2315 INFO dfs.DataNode$PacketResponder: PacketResponder 1 for block blk_5614599553821842401 terminating
081110 210605 19 INFO dfs.FSDataset: Deleting block blk_5535163802478379504 file /mnt/hadoop/dfs/data/current/subdir13/blk_5535163802478379504
081110 015526 5822 INFO dfs.DataNode$PacketResponder: PacketResponder 1 for block blk_5811148074625730796 terminating
081110 122424 11147 INFO dfs.DataNode$DataXceiver: Receiving block blk_7378502874434106736 src: /10.251.42.9:41067 dest: /10.251.42.9:50010
081109 212301 1938 INFO dfs.DataNode$PacketResponder: Received block blk_-5339448951064720304 of size 67108864 from /10.250.7.244
081110 212423 33 INFO dfs.FSNamesystem: BLOCK* NameSystem.addStoredBlock: blockMap updated: 10.250.14.224:50010 is added to blk_-7838009032489486299 size 67108864
081111 060104 21027 INFO dfs.DataNode$PacketResponder: PacketResponder 0 for block blk_-6470860381179227826 terminating
081111 061729 34 INFO dfs.FSNamesystem: BLOCK* NameSystem.addStoredBlock: blockMap updated: 10.251.75.79:50010 is added to blk_-4733996103261615488 size 67108864
081111 075808 19 INFO dfs.FSDataset: Deleting block blk_-2370873763650825173 file /mnt/hadoop/dfs/data/current/blk_-2370873763650825173
081110 060335 13 INFO dfs.DataBlockScanner: Verification succeeded for blk_8681295510142139190
081111 063909 27 INFO dfs.FSNamesystem: BLOCK* NameSystem.addStoredBlock: blockMap updated: 10.251.91.229:50010 is added to blk_5958928716508256625 size 67108864
081110 210158 28 INFO dfs.FSNamesystem: BLOCK* NameSystem.delete: blk_-1852015435406441342 is added to invalidSet of 10.250.5.237:50010
081109 232628 3864 INFO dfs.DataNode$DataXceiver: Receiving block blk_-4364305151672113910 src: /10.251.42.84:57516 dest: /10.251.42.84:50010
081110 121236 10872 INFO dfs.DataNode$PacketResponder: Received block blk_-552942131986047401 of size 67108864 from /10.250.7.146
081111 070018 22741 INFO dfs.DataNode$PacketResponder: Received block blk_-4050556350111860341 of size 67108864 from /10.251.215.70
081110 015609 6118 INFO dfs.DataNode$PacketResponder: Received block blk_-1253049861385210016 of size 67108864 from /10.251.126.22
081110 103038 34 INFO dfs.FSNamesystem: BLOCK* NameSystem.delete: blk_7530151840345636142 is added to invalidSet of 10.251.39.192:50010
081111 063911 35 INFO dfs.FSNamesystem: BLOCK* NameSystem.addStoredBlock: blockMap updated: 10.250.13.240:50010 is added to blk_6207936433167574275 size 67108864
081111 032235 19028 INFO dfs.DataNode$PacketResponder: Received block blk_538836770876669069 of size 67108864 from /10.251.198.33
081110 220646 32 INFO dfs.FSNamesystem: BLOCK* NameSystem.delete: blk_-4774534469506837182 is added to invalidSet of 10.251.214.67:50010
081111 063740 22508 INFO dfs.DataNode$PacketResponder: Received block blk_2667853278032449055 of size 67108864 from /10.251.75.79
081110 210607 19 INFO dfs.FSDataset: Deleting block blk_2216662659415230229 file /mnt/hadoop/dfs/data/current/subdir60/blk_2216662659415230229
081110 144400 13 INFO dfs.DataBlockScanner: Verification succeeded for blk_-7174358034615572041
081110 211236 14711 INFO dfs.DataNode$PacketResponder: PacketResponder 0 for block blk_-3068626357068530517 terminating
081111 032402 18471 INFO dfs.DataNode$DataXceiver: Receiving block blk_7771770932440005026 src: /10.251.126.83:46541 dest: /10.251.126.83:50010
081109 214356 2766 WARN dfs.DataNode$DataXceiver: 10.251.215.16:50010:Got exception while serving blk_-4583875608071331457 to /10.251.70.5:
081110 103038 34 INFO dfs.FSNamesystem: BLOCK* NameSystem.delete: blk_-8165895942222024636 is added to invalidSet of 10.251.194.147:50010
081111 044656 19 INFO dfs.FSDataset: Deleting block blk_-2071316332264628669 file /mnt/hadoop/dfs/data/current/subdir28/blk_-2071316332264628669
081111 090137 19 INFO dfs.FSDataset: Deleting block blk_-3205566550042662104 file /mnt/hadoop/dfs/data/current/subdir24/blk_-3205566550042662104
081110 214729 35 INFO dfs.FSNamesystem: BLOCK* NameSystem.addStoredBlock: blockMap updated: 10.251.109.209:50010 is added to blk_-2101192006151076980 size 67108864
081110 113449 10341 INFO dfs.DataNode$DataXceiver: Receiving block blk_-7911048364127768207 src: /10.251.25.237:48056 dest: /10.251.25.237:50010
081111 044955 20214 INFO dfs.DataNode$DataXceiver: Receiving block blk_-8363478338088281322 src: /10.251.106.214:53601 dest: /10.251.106.214:50010
081111 110600 18 INFO dfs.FSDataset: Deleting block blk_-3586029288741787884 file /mnt/hadoop/dfs/data/current/subdir58/blk_-3586029288741787884
081110 210117 28 INFO dfs.FSNamesystem: BLOCK* NameSystem.delete: blk_-3577068013332460385 is added to invalidSet of 10.251.73.188:50010
081109 211246 1588 INFO dfs.DataNode$DataXceiver: Receiving block blk_3973135876075191409 src: /10.251.194.213:44144 dest: /10.251.194.213:50010
081111 100503 26357 INFO dfs.DataNode$PacketResponder: Received block blk_8666300175150143281 of size 67108864 from /10.250.7.230
081110 002212 4833 INFO dfs.DataNode$DataXceiver: Receiving block blk_5285518227539119865 src: /10.251.202.181:50667 dest: /10.251.202.181:50010
081110 161853 13608 INFO dfs.DataNode$DataXceiver: 10.251.215.50:50010 Served block blk_6187035294426772188 to /10.251.215.50
081111 103744 26915 INFO dfs.DataNode$PacketResponder: Received block blk_2480347349753432092 of size 67108864 from /10.251.39.179
081111 050257 20319 INFO dfs.DataNode$PacketResponder: Received block blk_-8429631863423586732 of size 67108864 from /10.251.91.84
081111 043735 33 INFO dfs.FSNamesystem: BLOCK* NameSystem.addStoredBlock: blockMap updated: 10.251.110.8:50010 is added to blk_2493648498930299650 size 67108864
081110 145141 29 INFO dfs.FSNamesystem: BLOCK* NameSystem.addStoredBlock: blockMap updated: 10.250.7.146:50010 is added to blk_-7297499773798127036 size 67108864
081111 025728 18273 INFO dfs.DataNode$PacketResponder: Received block blk_-5642287267071561856 of size 67108864 from /10.251.43.192
081110 144640 12590 INFO dfs.DataNode$DataXceiver: Receiving block blk_-4626067372698408913 src: /10.251.107.242:49666 dest: /10.251.107.242:50010
081110 124720 11431 WARN dfs.DataNode$DataXceiver: 10.251.110.8:50010:Got exception while serving blk_-4152908616032687733 to /10.251.67.225:
081110 103350 9202 INFO dfs.DataNode$PacketResponder: PacketResponder 0 for block blk_-1105631594930262824 terminating
081111 065745 22664 INFO dfs.DataNode$PacketResponder: PacketResponder 2 for block blk_-7299385810531937812 terminating
081110 150112 13086 INFO dfs.DataNode$DataXceiver: Receiving block blk_486001923435765733 src: /10.251.30.85:50074 dest: /10.251.30.85:50010
081110 024520 13 INFO dfs.DataBlockScanner: Verification succeeded for blk_-2411914729540785196
081111 093322 29 INFO dfs.FSNamesystem: BLOCK* NameSystem.allocateBlock: /user/root/rand8/_temporary/_task_200811101024_0015_m_000840_0/part-00840. blk_2277504533426660538
081110 212746 33 INFO dfs.FSNamesystem: BLOCK* NameSystem.addStoredBlock: blockMap updated: 10.251.123.33:50010 is added to blk_7247104367936587616 size 67108864
081111 043233 33 INFO dfs.FSNamesystem: BLOCK* NameSystem.allocateBlock: /user/root/randtxt4/_temporary/_task_200811101024_0010_m_001679_0/part-01679. blk_-3119328744478283697
081111 043846 20021 INFO dfs.DataNode$PacketResponder: PacketResponder 1 for block blk_-883235003535343052 terminating
081111 023333 19 INFO dfs.FSDataset: Deleting block blk_3975046350527965834 file /mnt/hadoop/dfs/data/current/subdir18/blk_3975046350527965834
081109 205859 29 INFO dfs.FSNamesystem: BLOCK* NameSystem.allocateBlock: /user/root/rand/_temporary/_task_200811092030_0001_m_000996_0/part-00996. blk_4027506932035393946
081111 025737 18269 INFO dfs.DataNode$DataXceiver: Receiving block blk_-1625963541053856063 src: /10.251.31.5:59693 dest: /10.251.31.5:50010
081110 210523 18 INFO dfs.FSDataset: Deleting block blk_4254268019534989638 file /mnt/hadoop/dfs/data/current/subdir55/blk_4254268019534989638
081111 030356 18565 INFO dfs.DataNode$PacketResponder: Received block blk_701321808110972216 of size 67108864 from /10.250.7.32
081111 061237 22019 INFO dfs.DataNode$PacketResponder: PacketResponder 0 for block blk_3385140681949376739 terminating
081110 112807 10023 INFO dfs.DataNode$PacketResponder: PacketResponder 2 for block blk_-7559179018472628325 terminating
081110 212629 14942 INFO dfs.DataNode$PacketResponder: Received block blk_6892422263435177736 of size 67108864 from /10.251.91.159
081110 151122 12802 INFO dfs.DataNode$PacketResponder: PacketResponder 1 for block blk_5789365543711681623 terminating
081109 211725 27 INFO dfs.FSNamesystem: BLOCK* NameSystem.addStoredBlock: blockMap updated: 10.251.73.188:50010 is added to blk_8372407466231843281 size 67108864
081111 044740 19 INFO dfs.FSDataset: Deleting block blk_6717156658233306449 file /mnt/hadoop/dfs/data/current/blk_6717156658233306449
081111 075808 19 INFO dfs.FSDataset: Deleting block blk_-6768996494523132853 file /mnt/hadoop/dfs/data/current/subdir31/blk_-6768996494523132853
081111 073258 23200 INFO dfs.DataNode$PacketResponder: PacketResponder 0 for block blk_-6650828868533082226 terminating
081109 233952 4097 INFO dfs.DataNode$PacketResponder: PacketResponder 2 for block blk_-6543069903472218110 terminating
081111 070252 22281 INFO dfs.DataNode$PacketResponder: Received block blk_5866528848773277977 of size 67108864 from /10.250.14.38
081111 074855 23461 INFO dfs.DataNode$DataXceiver: Receiving block blk_4864286577102622280 src: /10.251.107.98:54729 dest: /10.251.107.98:50010
081109 225941 3732 WARN dfs.DataNode$DataXceiver: 10.251.194.102:50010:Got exception while serving blk_-7815871169545013043 to /10.251.199.245:
081111 071448 23163 INFO dfs.DataNode$PacketResponder: Received block blk_6173738756874266129 of size 67108864 from /10.251.91.229
081111 075817 19 INFO dfs.FSDataset: Deleting block blk_-7977528716559873187 file /mnt/hadoop/dfs/data/current/subdir49/blk_-7977528716559873187
081111 044338 29 INFO dfs.FSNamesystem: BLOCK* NameSystem.delete: blk_-264193886542061171 is added to invalidSet of 10.250.19.16:50010
081111 082852 32 INFO dfs.FSNamesystem: BLOCK* NameSystem.addStoredBlock: blockMap updated: 10.251.203.80:50010 is added to blk_-8917593696991695368 size 67108864
081111 060937 33 INFO dfs.FSNamesystem: BLOCK* NameSystem.addStoredBlock: blockMap updated: 10.251.194.245:50010 is added to blk_4479374094639037999 size 67108864
081111 090141 19 INFO dfs.FSDataset: Deleting block blk_2738647519950388098 file /mnt/hadoop/dfs/data/current/subdir26/blk_2738647519950388098
081111 041413 19605 INFO dfs.DataNode$DataXceiver: Receiving block blk_9067584255854858434 src: /10.251.110.68:34988 dest: /10.251.110.68:50010
081109 232710 34 INFO dfs.FSNamesystem: BLOCK* NameSystem.addStoredBlock: blockMap updated: 10.250.10.144:50010 is added to blk_-3268496457702479987 size 67108864
081111 011727 17624 WARN dfs.DataNode$DataXceiver: 10.251.194.245:50010:Got exception while serving blk_-525858432478158954 to /10.251.203.80:
081111 072316 28 INFO dfs.FSNamesystem: BLOCK* NameSystem.addStoredBlock: blockMap updated: 10.250.15.67:50010 is added to blk_4744039022475419369 size 67108864
081109 205726 1000 INFO dfs.DataNode$DataXceiver: Receiving block blk_4313688145164944845 src: /10.250.19.16:53212 dest: /10.250.19.16:50010
081111 045400 20323 INFO dfs.DataNode$PacketResponder: Received block blk_-2483666640371166618 of size 67108864 from /10.251.71.68
081111 085208 30 INFO dfs.FSNamesystem: BLOCK* NameSystem.addStoredBlock: blockMap updated: 10.251.66.102:50010 is added to blk_-783880239533512357 size 67108864
081111 092212 27 INFO dfs.FSNamesystem: BLOCK* NameSystem.allocateBlock: /user/root/rand8/_temporary/_task_200811101024_0015_m_000828_0/part-00828. blk_7047648886411950185
081110 222518 15986 INFO dfs.DataNode$PacketResponder: PacketResponder 1 for block blk_-7792944617122522963 terminating
081110 000523 32 INFO dfs.FSNamesystem: BLOCK* NameSystem.addStoredBlock: blockMap updated: 10.251.42.246:50010 is added to blk_20629675354327725 size 67108864
081109 222313 3532 WARN dfs.DataNode$DataXceiver: 10.251.123.20:50010:Got exception while serving blk_4886814116013429886 to /10.251.39.192:
081109 221810 3380 WARN dfs.DataNode$DataXceiver: 10.251.65.237:50010:Got exception while serving blk_1308915521822828832 to /10.251.125.193:
081111 085909 27 INFO dfs.FSNamesystem: BLOCK* NameSystem.delete: blk_7652057686109526977 is added to invalidSet of 10.251.107.242:50010
081111 044303 35 INFO dfs.FSNamesystem: BLOCK* NameSystem.delete: blk_-2847000883217307479 is added to invalidSet of 10.250.10.144:50010
081110 144239 30 INFO dfs.FSNamesystem: BLOCK* NameSystem.addStoredBlock: blockMap updated: 10.251.195.33:50010 is added to blk_-9033295723038777523 size 67108864
081110 121626 10831 INFO dfs.DataNode$DataXceiver: Receiving block blk_4792244718393025191 src: /10.250.10.100:47647 dest: /10.250.10.100:50010
081111 023249 19 INFO dfs.FSDataset: Deleting block blk_-3597777177303900883 file /mnt/hadoop/dfs/data/current/subdir22/blk_-3597777177303900883
081111 044811 19 INFO dfs.FSDataset: Deleting block blk_8381222653013399989 file /mnt/hadoop/dfs/data/current/subdir3/blk_8381222653013399989
081111 044721 19 INFO dfs.FSDataset: Deleting block blk_-2393074669239353335 file /mnt/hadoop/dfs/data/current/subdir7/blk_-2393074669239353335
081111 042223 19810 INFO dfs.DataNode$DataXceiver: Receiving block blk_4178564397487581339 src: /10.251.126.255:58531 dest: /10.251.126.255:50010
081111 035556 18718 INFO dfs.DataNode$DataXceiver: Receiving block blk_4069267918664622686 src: /10.250.14.224:49520 dest: /10.250.14.224:50010
081111 110441 26 INFO dfs.FSNamesystem: BLOCK* NameSystem.delete: blk_9096603723293422119 is added to invalidSet of 10.251.215.70:50010
081110 172708 13895 WARN dfs.DataNode$DataXceiver: 10.251.30.101:50010:Got exception while serving blk_-8836885169363825985 to /10.251.30.101:
081111 110533 19 INFO dfs.FSDataset: Deleting block blk_3811823590255010227 file /mnt/hadoop/dfs/data/current/subdir8/blk_3811823590255010227
081110 115947 10597 INFO dfs.DataNode$PacketResponder: Received block blk_-1455716319961876389 of size 67108864 from /10.251.73.220
081110 130746 11611 WARN dfs.DataNode$DataXceiver: 10.251.90.134:50010:Got exception while serving blk_-676034385075120093 to /10.251.66.63:
081110 082253 8298 INFO dfs.DataNode$DataXceiver: 10.251.90.64:50010 Served block blk_5205003614497388419 to /10.251.90.64
081111 031433 26 INFO dfs.FSNamesystem: BLOCK* NameSystem.addStoredBlock: blockMap updated: 10.251.215.70:50010 is added to blk_1864282526071974331 size 67108864
081111 104824 35 INFO dfs.FSNamesystem: BLOCK* NameSystem.addStoredBlock: blockMap updated: 10.251.107.19:50010 is added to blk_6975219515543433815 size 3555129
081110 190035 14056 WARN dfs.DataNode$DataXceiver: 10.251.70.5:50010:Got exception while serving blk_-3412645396991602212 to /10.251.91.32:
081111 094843 25984 INFO dfs.DataNode$PacketResponder: PacketResponder 2 for block blk_596946877010477903 terminating
081110 080443 7952 INFO dfs.DataNode$DataXceiver: 10.251.203.80:50010 Served block blk_-8047783565747385719 to /10.251.203.80
081111 103827 27084 INFO dfs.DataNode$PacketResponder: Received block blk_-8413078106983724478 of size 67108864 from /10.251.90.81
081111 093258 32 INFO dfs.FSNamesystem: BLOCK* NameSystem.addStoredBlock: blockMap updated: 10.251.193.175:50010 is added to blk_-2838927963369102418 size 67108864
081111 051947 27 INFO dfs.FSNamesystem: BLOCK* NameSystem.allocateBlock: /user/root/rand5/_temporary/_task_200811101024_0011_m_001348_0/part-01348. blk_8148141210637866264
081111 084503 24845 INFO dfs.DataNode$PacketResponder: Received block blk_7967997075739676159 of size 3533109 from /10.251.26.8
081111 044711 19 INFO dfs.FSDataset: Deleting block blk_-1899723365626191067 file /mnt/hadoop/dfs/data/current/subdir18/blk_-1899723365626191067
081111 055139 28 INFO dfs.FSNamesystem: BLOCK* NameSystem.addStoredBlock: blockMap updated: 10.250.11.85:50010 is added to blk_2950072465223899518 size 67108864
081110 220640 32 INFO dfs.FSNamesystem: BLOCK* NameSystem.delete: blk_-1096133035954679939 is added to invalidSet of 10.251.109.236:50010
081110 113646 29 INFO dfs.FSNamesystem: BLOCK* NameSystem.allocateBlock: /user/root/randtxt2/_temporary/_task_200811101024_0002_m_000165_0/part-00165. blk_-7486990830986890805
081110 150312 30 INFO dfs.FSNamesystem: BLOCK* NameSystem.allocateBlock: /user/root/sortrand2/_temporary/_task_200811101024_0003_r_000092_0/part-00092. blk_2550809871249910958
081111 102234 26563 INFO dfs.DataNode$PacketResponder: PacketResponder 1 for block blk_2326639313709512426 terminating
081110 071206 7589 WARN dfs.DataNode$DataXceiver: 10.251.70.37:50010:Got exception while serving blk_3091913253098320175 to /10.251.70.37:
081111 100149 19 INFO dfs.FSDataset: Deleting block blk_-8001333623931437211 file /mnt/hadoop/dfs/data/current/subdir51/blk_-8001333623931437211
081111 100142 30 INFO dfs.FSNamesystem: BLOCK* NameSystem.delete: blk_2030823368366029546 is added to invalidSet of 10.251.123.132:50010
081110 061321 7240 INFO dfs.DataNode$DataXceiver: 10.250.7.230:50010 Served block blk_7812909260390895860 to /10.251.74.134
081111 051150 30 INFO dfs.FSNamesystem: BLOCK* NameSystem.addStoredBlock: blockMap updated: 10.251.214.32:50010 is added to blk_4935474356420962308 size 67108864
081109 210204 26 INFO dfs.FSNamesystem: BLOCK* NameSystem.addStoredBlock: blockMap updated: 10.251.75.228:50010 is added to blk_5915552314752084570 size 67108864
081110 222232 29 INFO dfs.FSNamesystem: BLOCK* NameSystem.allocateBlock: /user/root/randtxt3/_temporary/_task_200811101024_0007_m_000726_0/part-00726. blk_4416497266008559812
081110 103040 34 INFO dfs.FSNamesystem: BLOCK* NameSystem.delete: blk_2379661371660653498 is added to invalidSet of 10.251.70.211:50010
081110 103329 8945 INFO dfs.DataNode$PacketResponder: Received block blk_2486391171547155618 of size 67108864 from /10.251.126.227
081111 044740 19 INFO dfs.FSDataset: Deleting block blk_4886948228322319236 file /mnt/hadoop/dfs/data/current/subdir43/blk_4886948228322319236
081111 082641 24313 INFO dfs.DataNode$PacketResponder: Received block blk_2308243032875220221 of size 67108864 from /10.250.14.196
081110 150341 13088 INFO dfs.DataNode$PacketResponder: Received block blk_-1536206133487373773 of size 67108864 from /10.251.202.181
081111 101929 26536 INFO dfs.DataNode$DataXceiver: Receiving block blk_8990947735887279534 src: /10.251.70.5:46447 dest: /10.251.70.5:50010
081111 053614 29 INFO dfs.FSNamesystem: BLOCK* NameSystem.allocateBlock: /user/root/rand5/_temporary/_task_200811101024_0011_m_001821_0/part-01821. blk_8770864133612909668
081111 110431 26 INFO dfs.FSNamesystem: BLOCK* NameSystem.delete: blk_5902152482460801810 is added to invalidSet of 10.251.122.65:50010
081110 001856 4794 INFO dfs.DataNode$PacketResponder: PacketResponder 2 for block blk_-7869127093465623037 terminating
081110 213431 15057 INFO dfs.DataNode$DataXceiver: Receiving block blk_7876400456980664917 src: /10.251.73.220:40178 dest: /10.251.73.220:50010
081111 073127 8450 INFO dfs.DataNode$PacketResponder: PacketResponder 0 for block blk_-2287633480187402690 terminating
081110 215926 34 INFO dfs.FSNamesystem: BLOCK* NameSystem.addStoredBlock: blockMap updated: 10.251.66.192:50010 is added to blk_-2896850377295817664 size 33625915
081111 062333 22337 INFO dfs.DataNode$PacketResponder: Received block blk_7658442832482629009 of size 67108864 from /10.251.67.225
081110 220029 15364 INFO dfs.DataNode$PacketResponder: PacketResponder 0 for block blk_7959140715812383321 terminating
081109 204425 26 INFO dfs.FSNamesystem: BLOCK* NameSystem.allocateBlock: /user/root/rand/_temporary/_task_200811092030_0001_m_000364_0/part-00364. blk_5757776799179532120
081111 054347 21568 INFO dfs.DataNode$PacketResponder: PacketResponder 0 for block blk_2838390367113114685 terminating
081110 170536 13846 INFO dfs.DataNode$DataXceiver: 10.251.71.240:50010 Served block blk_-6273659264973333742 to /10.251.91.15
081110 072138 7792 WARN dfs.DataNode$DataXceiver: 10.251.199.245:50010:Got exception while serving blk_3333208835797599085 to /10.251.105.189:
081110 111439 9875 INFO dfs.DataNode$PacketResponder: Received block blk_4383377595075951353 of size 67108864 from /10.251.122.79
081110 020236 6144 INFO dfs.DataNode$PacketResponder: Received block blk_3161650246916010062 of size 67108864 from /10.251.37.240
081110 143856 12501 INFO dfs.DataNode$PacketResponder: Received block blk_7521093149307769219 of size 67108864 from /10.251.91.15
081109 205939 1068 INFO dfs.DataNode$DataXceiver: Receiving block blk_-5393504535122924152 src: /10.251.199.159:50777 dest: /10.251.199.159:50010
081110 123505 11298 INFO dfs.DataNode$PacketResponder: PacketResponder 1 for block blk_-7350913357749246673 terminating
081110 112552 34 INFO dfs.FSNamesystem: BLOCK* NameSystem.addStoredBlock: blockMap updated: 10.251.42.84:50010 is added to blk_-6551902154719031552 size 67108864
081109 214549 2719 WARN dfs.DataNode$DataXceiver: 10.251.31.180:50010:Got exception while serving blk_4617505502561449490 to /10.251.107.19:
081111 065416 19 INFO dfs.FSDataset: Deleting block blk_-6537440211223143890 file /mnt/hadoop/dfs/data/current/subdir33/blk_-6537440211223143890
081111 030633 18388 INFO dfs.DataNode$DataXceiver: Receiving block blk_8575172015021808706 src: /10.251.122.38:35369 dest: /10.251.122.38:50010
081109 203713 26 INFO dfs.FSNamesystem: BLOCK* NameSystem.allocateBlock: /user/root/rand/_temporary/_task_200811092030_0001_m_000135_0/part-00135. blk_-969190816816063861
081110 150624 13036 INFO dfs.DataNode$PacketResponder: PacketResponder 2 for block blk_4130043585666834485 terminating
081109 223847 3660 WARN dfs.DataNode$DataXceiver: 10.251.66.63:50010:Got exception while serving blk_-4438570940741296738 to /10.251.215.192:
081111 105549 27216 INFO dfs.DataNode$PacketResponder: Received block blk_-1821786998274994559 of size 67108864 from /10.251.215.70
081111 102121 26565 INFO dfs.DataNode$PacketResponder: Received block blk_-679824929631798338 of size 67108864 from /10.251.194.213
081110 103527 19 INFO dfs.FSDataset: Deleting block blk_-5598869475150481128 file /mnt/hadoop/dfs/data/current/subdir33/blk_-5598869475150481128
081110 121224 10842 INFO dfs.DataNode$PacketResponder: Received block blk_5347934975937016089 of size 67108864 from /10.251.195.33
081111 074816 23277 INFO dfs.DataNode$PacketResponder: PacketResponder 2 for block blk_8144514195635991070 terminating
081111 050120 20491 INFO dfs.DataNode$PacketResponder: Received block blk_-908628592802865593 of size 67108864 from /10.251.42.84
081110 121954 10876 INFO dfs.DataNode$PacketResponder: PacketResponder 1 for block blk_-2467874296409443532 terminating
081110 000908 4790 INFO dfs.DataNode$PacketResponder: Received block blk_-2566715655105213376 of size 67108864 from /10.251.215.50
081109 205617 28 INFO dfs.FSNamesystem: BLOCK* NameSystem.addStoredBlock: blockMap updated: 10.250.6.191:50010 is added to blk_-3917606983617104381 size 67108864
081111 045624 20446 INFO dfs.DataNode$PacketResponder: Received block blk_7140027775289008388 of size 67108864 from /10.251.214.225
081109 213029 2249 INFO dfs.DataNode$PacketResponder: PacketResponder 2 for block blk_4147781313131575022 terminating
081110 121049 10915 INFO dfs.DataNode$PacketResponder: Received block blk_4408166800530793422 of size 67108864 from /10.251.38.197
081110 210200 28 INFO dfs.FSNamesystem: BLOCK* NameSystem.delete: blk_-5383820072261918562 is added to invalidSet of 10.251.75.163:50010
081111 104336 27103 INFO dfs.DataNode$DataXceiver: Receiving block blk_1320878855104068278 src: /10.251.105.189:48926 dest: /10.251.105.189:50010
081110 210502 19 INFO dfs.FSDataset: Deleting block blk_-5818939434104254456 file /mnt/hadoop/dfs/data/current/subdir14/blk_-5818939434104254456
081110 191524 14104 INFO dfs.DataNode$DataXceiver: 10.251.125.237:50010 Served block blk_5793551240880837976 to /10.251.122.38
081111 065625 26 INFO dfs.FSNamesystem: BLOCK* NameSystem.addStoredBlock: blockMap updated: 10.250.5.161:50010 is added to blk_-2608360455694921384 size 67108864
081110 210159 28 INFO dfs.FSNamesystem: BLOCK* NameSystem.delete: blk_-732321948003241391 is added to invalidSet of 10.251.110.196:50010
081110 220653 32 INFO dfs.FSNamesystem: BLOCK* NameSystem.delete: blk_5054000213767530825 is added to invalidSet of 10.251.31.5:50010
081111 085906 27 INFO dfs.FSNamesystem: BLOCK* NameSystem.delete: blk_-6779635659969139046 is added to invalidSet of 10.250.10.213:50010
081110 111304 29 INFO dfs.FSNamesystem: BLOCK* NameSystem.allocateBlock: /user/root/rand/_temporary/_task_200811101024_0001_m_001448_0/part-01448. blk_8023763612581190830
081110 151721 13318 INFO dfs.DataNode$DataXceiver: Receiving block blk_1690623136974117766 src: /10.251.43.210:35958 dest: /10.251.43.210:50010
081110 224829 16656 INFO dfs.DataNode$DataXceiver: Receiving block blk_-7752059136400158380 src: /10.251.42.84:44472 dest: /10.251.42.84:50010
081109 211217 1519 INFO dfs.DataNode$PacketResponder: PacketResponder 2 for block blk_-3254229605508146933 terminating
081110 103652 9123 INFO dfs.DataNode$PacketResponder: PacketResponder 0 for block blk_-5541470147772839035 terminating
081111 070502 22941 INFO dfs.DataNode$DataTransfer: 10.251.91.84:50010:Transmitted block blk_-1712982430311741591 to /10.251.123.132:50010
081110 221447 15820 INFO dfs.DataNode$DataXceiver: Receiving block blk_-3989190633427617718 src: /10.250.9.207:36354 dest: /10.250.9.207:50010
081111 052008 20763 INFO dfs.DataNode$PacketResponder: Received block blk_7598706248926678363 of size 67108864 from /10.251.39.242
081111 053039 21592 INFO dfs.DataNode$DataXceiver: Receiving block blk_1784490667714633016 src: /10.250.11.194:50473 dest: /10.250.11.194:50010
081109 222224 3421 INFO dfs.DataNode$DataXceiver: 10.251.42.207:50010 Served block blk_-8785429825176490118 to /10.251.106.37
081111 080355 23864 INFO dfs.DataNode$PacketResponder: PacketResponder 2 for block blk_7824220084726475929 terminating
081111 094135 25952 INFO dfs.DataNode$PacketResponder: PacketResponder 1 for block blk_-1818611354501994127 terminating
081109 204511 504 INFO dfs.DataNode$PacketResponder: Received block blk_-7244076080600145351 of size 67108864 from /10.250.11.100
081111 044343 29 INFO dfs.FSNamesystem: BLOCK* NameSystem.delete: blk_3364558183013610351 is added to invalidSet of 10.251.202.134:50010
081111 063212 22282 INFO dfs.DataNode$PacketResponder: PacketResponder 1 for block blk_1589019904590768829 terminating
081110 104503 29 INFO dfs.FSNamesystem: BLOCK* NameSystem.addStoredBlock: blockMap updated: 10.251.42.207:50010 is added to blk_-2232014782364163210 size 3543635
081110 214346 15299 INFO dfs.DataNode$PacketResponder: Received block blk_4725736986359461178 of size 67108864 from /10.251.110.68
081111 094139 26066 INFO dfs.DataNode$DataXceiver: Receiving block blk_130634536530752332 src: /10.251.195.33:42773 dest: /10.251.195.33:50010
081111 073125 35 INFO dfs.FSNamesystem: BLOCK* NameSystem.addStoredBlock: blockMap updated: 10.251.30.179:50010 is added to blk_-211820843670339203 size 67108864
081111 052502 34 INFO dfs.FSNamesystem: BLOCK* NameSystem.addStoredBlock: blockMap updated: 10.250.6.191:50010 is added to blk_4303521765829628456 size 67108864
081111 084033 24613 INFO dfs.DataNode$PacketResponder: Received block blk_7985166158655555877 of size 67108864 from /10.251.31.85
081109 220137 3185 INFO dfs.DataNode$DataXceiver: 10.251.25.237:50010 Served block blk_-6360737138336362234 to /10.251.25.237
081110 230646 32 INFO dfs.FSNamesystem: BLOCK* NameSystem.addStoredBlock: blockMap updated: 10.251.39.209:50010 is added to blk_3669647875455062742 size 67108864
081111 034220 18939 INFO dfs.DataNode$PacketResponder: Received block blk_9170871650034240127 of size 67108864 from /10.251.91.159
081110 222510 29 INFO dfs.FSNamesystem: BLOCK* NameSystem.addStoredBlock: blockMap updated: 10.251.214.175:50010 is added to blk_1887866383847913990 size 67108864
081110 114003 10297 INFO dfs.DataNode$PacketResponder: Received block blk_-3052339741247334800 of size 67108864 from /10.251.38.197
081110 162801 13569 INFO dfs.DataNode$DataXceiver: 10.251.39.179:50010 Served block blk_-2887536426520733027 to /10.251.39.179
081110 222710 29 INFO dfs.FSNamesystem: BLOCK* NameSystem.allocateBlock: /user/root/randtxt3/_temporary/_task_200811101024_0007_m_000698_0/part-00698. blk_8611831483250655965
081110 210502 19 INFO dfs.FSDataset: Deleting block blk_-4957216784730392012 file /mnt/hadoop/dfs/data/current/subdir0/blk_-4957216784730392012
081110 110959 9741 INFO dfs.DataNode$DataXceiver: Receiving block blk_-3130150640386482257 src: /10.250.7.146:56353 dest: /10.250.7.146:50010
081111 090133 19 INFO dfs.FSDataset: Deleting block blk_2821598713554594096 file /mnt/hadoop/dfs/data/current/subdir48/blk_2821598713554594096
081110 210813 14960 INFO dfs.DataNode$DataXceiver: Receiving block blk_-4132040621575125874 src: /10.250.14.143:45911 dest: /10.250.14.143:50010
081111 051431 20767 INFO dfs.DataNode$DataXceiver: Receiving block blk_-7655664843490933229 src: /10.251.122.38:33586 dest: /10.251.122.38:50010
081111 010838 17266 WARN dfs.DataNode$DataXceiver: 10.251.74.227:50010:Got exception while serving blk_-1502532291683144597 to /10.251.74.227:
081110 210130 28 INFO dfs.FSNamesystem: BLOCK* NameSystem.delete: blk_1997200806388800937 is added to invalidSet of 10.251.43.210:50010
081111 060831 35 INFO dfs.FSNamesystem: BLOCK* NameSystem.addStoredBlock: blockMap updated: 10.251.30.179:50010 is added to blk_308443686740654953 size 67108864
081111 043942 19922 INFO dfs.DataNode$DataXceiver: Receiving block blk_-738399992046052838 src: /10.251.74.227:50899 dest: /10.251.74.227:50010
081111 104100 34 INFO dfs.FSNamesystem: BLOCK* NameSystem.addStoredBlock: blockMap updated: 10.251.75.163:50010 is added to blk_5240122359254622489 size 67108864
081110 015343 5817 INFO dfs.DataNode$PacketResponder: PacketResponder 1 for block blk_-7152109110600918758 terminating
081111 085911 27 INFO dfs.FSNamesystem: BLOCK* NameSystem.delete: blk_8755391027627875697 is added to invalidSet of 10.250.7.32:50010
081110 000205 33 INFO dfs.FSNamesystem: BLOCK* NameSystem.addStoredBlock: blockMap updated: 10.250.11.85:50010 is added to blk_-7834814604000385566 size 67108864
081111 044322 35 INFO dfs.FSNamesystem: BLOCK* NameSystem.delete: blk_5566282653143351018 is added to invalidSet of 10.251.67.211:50010
081110 220825 19 INFO dfs.FSDataset: Deleting block blk_-1799225978798594070 file /mnt/hadoop/dfs/data/current/subdir13/blk_-1799225978798594070
081109 212317 1951 INFO dfs.DataNode$DataXceiver: Receiving block blk_-5348828126228176695 src: /10.251.39.64:35779 dest: /10.251.39.64:50010
081111 043749 19925 INFO dfs.DataNode$PacketResponder: Received block blk_3274971577798985797 of size 28491827 from /10.250.10.100
081111 042803 30 INFO dfs.FSNamesystem: BLOCK* NameSystem.addStoredBlock: blockMap updated: 10.251.123.99:50010 is added to blk_-5032204479399098411 size 67108864
081111 065208 26 INFO dfs.FSNamesystem: BLOCK* NameSystem.delete: blk_-8203445562518474540 is added to invalidSet of 10.251.106.10:50010
081109 214025 2570 INFO dfs.DataNode$DataXceiver: 10.251.27.63:50010 Served block blk_917488893281286892 to /10.251.27.63
081111 075639 28 INFO dfs.FSNamesystem: BLOCK* NameSystem.delete: blk_4476221902101028672 is added to invalidSet of 10.251.26.8:50010
081109 213508 2387 INFO dfs.DataNode$PacketResponder: PacketResponder 0 for block blk_222373778374602985 terminating
081111 053808 21355 INFO dfs.DataNode$PacketResponder: Received block blk_-2170586972973183821 of size 67108864 from /10.251.122.38
081111 023249 19 INFO dfs.FSDataset: Deleting block blk_379913789397590494 file /mnt/hadoop/dfs/data/current/subdir23/blk_379913789397590494
081111 054826 32 INFO dfs.FSNamesystem: BLOCK* NameSystem.addStoredBlock: blockMap updated: 10.250.7.244:50010 is added to blk_-3498692338206223625 size 67108864
081109 232851 3928 INFO dfs.DataNode$PacketResponder: Received block blk_1380560897345620381 of size 67108864 from /10.251.39.144
081111 030508 18320 INFO dfs.DataNode$DataXceiver: Receiving block blk_-4672888053418513384 src: /10.251.123.1:57446 dest: /10.251.123.1:50010
081111 084802 24722 INFO dfs.DataNode$PacketResponder: PacketResponder 2 for block blk_1168440474676897012 terminating
081111 071118 23037 INFO dfs.DataNode$PacketResponder: Received block blk_-7380455559305295063 of size 67108864 from /10.250.14.38
081111 053246 21259 INFO dfs.DataNode$DataXceiver: Receiving block blk_5669886757147484087 src: /10.251.90.64:47151 dest: /10.251.90.64:50010
081111 101716 30 INFO dfs.FSNamesystem: BLOCK* NameSystem.addStoredBlock: blockMap updated: 10.251.198.196:50010 is added to blk_2319697172696214117 size 67108864
081111 025247 18169 INFO dfs.DataNode$DataXceiver: Receiving block blk_9218748131966879407 src: /10.251.123.99:58985 dest: /10.251.123.99:50010
081110 124551 11415 WARN dfs.DataNode$DataXceiver: 10.251.71.68:50010:Got exception while serving blk_-3424627508533161899 to /10.251.71.68:
081111 035018 33 INFO dfs.FSNamesystem: BLOCK* NameSystem.addStoredBlock: blockMap updated: 10.251.198.33:50010 is added to blk_3842430295459114233 size 67108864
081111 110608 19 INFO dfs.FSDataset: Deleting block blk_6628499665706310 file /mnt/hadoop/dfs/data/current/subdir4/blk_6628499665706310
081111 065436 19 INFO dfs.FSDataset: Deleting block blk_1454713590565347600 file /mnt/hadoop/dfs/data/current/subdir28/blk_1454713590565347600
081111 025318 18201 INFO dfs.DataNode$DataXceiver: Receiving block blk_4296127039311710519 src: /10.251.75.49:59660 dest: /10.251.75.49:50010
081110 212251 14784 INFO dfs.DataNode$DataXceiver: Receiving block blk_-6048323772255785154 src: /10.251.66.3:52714 dest: /10.251.66.3:50010
081110 103033 34 INFO dfs.FSNamesystem: BLOCK* NameSystem.delete: blk_7598425671978768334 is added to invalidSet of 10.251.31.5:50010
081109 203803 232 INFO dfs.DataNode$PacketResponder: PacketResponder 1 for block blk_-8157058036207611910 terminating
081111 094757 25693 INFO dfs.DataNode$DataXceiver: Receiving block blk_-2023833050168331864 src: /10.251.123.132:40417 dest: /10.251.123.132:50010
081111 065214 26 INFO dfs.FSNamesystem: BLOCK* NameSystem.delete: blk_5956187937678491161 is added to invalidSet of 10.251.110.8:50010
081110 221334 15743 INFO dfs.DataNode$PacketResponder: Received block blk_-5456077092846036819 of size 67108864 from /10.251.107.242
081110 103042 34 INFO dfs.FSNamesystem: BLOCK* NameSystem.delete: blk_3963698556744744747 is added to invalidSet of 10.251.215.50:50010
081111 045254 20217 INFO dfs.DataNode$PacketResponder: PacketResponder 1 for block blk_-139247026423913719 terminating
081111 063509 33 INFO dfs.FSNamesystem: BLOCK* NameSystem.addStoredBlock: blockMap updated: 10.251.127.47:50010 is added to blk_4136011749784850762 size 67108864
081111 004249 17361 INFO dfs.DataNode$DataXceiver: 10.251.91.229:50010 Served block blk_-6697493476370398261 to /10.250.6.4
081111 044818 19 INFO dfs.FSDataset: Deleting block blk_-1799996074449875339 file /mnt/hadoop/dfs/data/current/blk_-1799996074449875339
081110 123905 11297 INFO dfs.DataNode$DataXceiver: Receiving block blk_8290001706973874725 src: /10.251.125.237:53759 dest: /10.251.125.237:50010
081111 085513 24750 INFO dfs.DataNode$PacketResponder: Received block blk_-8749935486242601006 of size 3545195 from /10.251.107.98
081110 210313 19 INFO dfs.FSDataset: Deleting block blk_-7249726316854604963 file /mnt/hadoop/dfs/data/current/subdir16/blk_-7249726316854604963
081111 062233 21987 INFO dfs.DataNode$PacketResponder: Received block blk_9174833667156726933 of size 67108864 from /10.250.5.161
081111 085912 27 INFO dfs.FSNamesystem: BLOCK* NameSystem.delete: blk_2610673383188512140 is added to invalidSet of 10.251.30.134:50010
081111 075851 19 INFO dfs.FSDataset: Deleting block blk_3919462513032304451 file /mnt/hadoop/dfs/data/current/blk_3919462513032304451
081109 204814 34 INFO dfs.FSNamesystem: BLOCK* NameSystem.addStoredBlock: blockMap updated: 10.251.198.196:50010 is added to blk_3016844125577436852 size 67108864
081110 103115 30 INFO dfs.FSNamesystem: BLOCK* NameSystem.delete: blk_-9219398642545531329 is added to invalidSet of 10.250.19.227:50010
081111 074200 23711 INFO dfs.DataNode$PacketResponder: Received block blk_905630874436310625 of size 67108864 from /10.251.91.84
081109 211301 1568 INFO dfs.DataNode$PacketResponder: PacketResponder 2 for block blk_-8841521502883245647 terminating
081110 221021 35 INFO dfs.FSNamesystem: BLOCK* NameSystem.addStoredBlock: blockMap updated: 10.251.42.246:50010 is added to blk_8823328421761507213 size 67108864
081110 013423 5722 INFO dfs.DataNode$PacketResponder: Received block blk_4497505974996089497 of size 67108864 from /10.251.39.242
081110 214806 15469 INFO dfs.DataNode$PacketResponder: PacketResponder 2 for block blk_-1535070380828234519 terminating
081110 020416 6011 INFO dfs.DataNode$PacketResponder: PacketResponder 1 for block blk_-2893301931744772527 terminating
081111 065224 26 INFO dfs.FSNamesystem: BLOCK* NameSystem.delete: blk_-4533693197602923929 is added to invalidSet of 10.251.74.134:50010
081111 040647 19007 INFO dfs.DataNode$DataXceiver: Receiving block blk_-6813070683759164754 src: /10.251.43.115:60187 dest: /10.251.43.115:50010
081110 220822 19 INFO dfs.FSDataset: Deleting block blk_-6341212453693674900 file /mnt/hadoop/dfs/data/current/subdir27/blk_-6341212453693674900
081110 103613 18 INFO dfs.FSDataset: Deleting block blk_-6656833482299366006 file /mnt/hadoop/dfs/data/current/subdir20/blk_-6656833482299366006
081109 220607 3149 INFO dfs.DataNode$DataXceiver: 10.251.30.134:50010 Served block blk_-6810925524100722920 to /10.251.111.228
081111 072335 27 INFO dfs.FSNamesystem: BLOCK* NameSystem.addStoredBlock: blockMap updated: 10.251.26.177:50010 is added to blk_7280552572019264378 size 67108864
081110 103148 30 INFO dfs.FSNamesystem: BLOCK* NameSystem.delete: blk_7327392127854999670 is added to invalidSet of 10.250.13.188:50010
081110 145103 12539 INFO dfs.DataNode$PacketResponder: PacketResponder 0 for block blk_6117512690094373050 terminating
081110 211030 14438 INFO dfs.DataNode$DataXceiver: Receiving block blk_4906741012355287363 src: /10.250.10.223:53679 dest: /10.250.10.223:50010
081109 205751 997 INFO dfs.DataNode$DataXceiver: Receiving block blk_-2601626611491842571 src: /10.251.202.209:50893 dest: /10.251.202.209:50010
081111 032732 18536 INFO dfs.DataNode$PacketResponder: PacketResponder 0 for block blk_-7689566323107550589 terminating
081109 210233 1139 INFO dfs.DataNode$PacketResponder: PacketResponder 0 for block blk_2340078512655292841 terminating
081111 095748 30 INFO dfs.FSNamesystem: BLOCK* NameSystem.addStoredBlock: blockMap updated: 10.251.67.4:50010 is added to blk_4153251392020796344 size 3553226
081109 210236 1154 INFO dfs.DataNode$PacketResponder: Received block blk_-4454395159726722493 of size 67108864 from /10.250.14.196
081110 210200 28 INFO dfs.FSNamesystem: BLOCK* NameSystem.delete: blk_-6697697431110001942 is added to invalidSet of 10.251.215.50:50010
081111 063850 22377 INFO dfs.DataNode$PacketResponder: Received block blk_774190856927537617 of size 67108864 from /10.251.214.18
081111 100238 26066 INFO dfs.DataNode$DataXceiver: Receiving block blk_-5654891679095777519 src: /10.251.195.33:40939 dest: /10.251.195.33:50010
081111 030109 18311 INFO dfs.DataNode$PacketResponder: Received block blk_7532331527118491368 of size 67108864 from /10.251.43.21
081111 053614 28 INFO dfs.FSNamesystem: BLOCK* NameSystem.allocateBlock: /user/root/rand5/_temporary/_task_200811101024_0011_m_001597_0/part-01597. blk_6574512896962017379
081111 044821 19 INFO dfs.FSDataset: Deleting block blk_1444759877119040736 file /mnt/hadoop/dfs/data/current/subdir30/blk_1444759877119040736
081110 220739 19 INFO dfs.FSDataset: Deleting block blk_-8897110169354494696 file /mnt/hadoop/dfs/data/current/subdir6/blk_-8897110169354494696
081111 032735 18758 INFO dfs.DataNode$PacketResponder: PacketResponder 2 for block blk_2771716158040584088 terminating
081111 090142 25254 INFO dfs.DataNode$PacketResponder: Received block blk_-500705538468882988 of size 67108864 from /10.251.89.155
081110 010301 5076 INFO dfs.DataNode$PacketResponder: PacketResponder 1 for block blk_559166054330058588 terminating
081111 085308 31 INFO dfs.FSNamesystem: BLOCK* NameSystem.allocateBlock: /user/root/rand7/_temporary/_task_200811101024_0014_m_001732_0/part-01732. blk_4706405348661328290
081110 103141 30 INFO dfs.FSNamesystem: BLOCK* NameSystem.delete: blk_-4661393648410037809 is added to invalidSet of 10.250.11.85:50010
081110 214716 15296 INFO dfs.DataNode$DataXceiver: Receiving block blk_2299172543246067103 src: /10.251.67.113:41483 dest: /10.251.67.113:50010
081110 014513 5876 INFO dfs.DataNode$PacketResponder: Received block blk_2704384167858948629 of size 67108864 from /10.251.66.102
081111 085917 27 INFO dfs.FSNamesystem: BLOCK* NameSystem.delete: blk_-8938980628535676025 is added to invalidSet of 10.250.17.225:50010
081111 033202 18849 INFO dfs.DataNode$DataXceiver: Receiving block blk_-6314181501470287486 src: /10.251.73.188:38314 dest: /10.251.73.188:50010
081110 210128 28 INFO dfs.FSNamesystem: BLOCK* NameSystem.delete: blk_7544223951372929510 is added to invalidSet of 10.251.195.33:50010
081111 063305 22219 INFO dfs.DataNode$DataXceiver: Receiving block blk_-4606927216591288974 src: /10.251.111.228:40213 dest: /10.251.111.228:50010
081111 083808 24535 INFO dfs.DataNode$DataXceiver: Receiving block blk_279223444668561133 src: /10.251.111.130:36735 dest: /10.251.111.130:50010
081111 023023 27 INFO dfs.FSNamesystem: BLOCK* NameSystem.delete: blk_180957307725269821 is added to invalidSet of 10.251.106.50:50010
081111 051427 20790 INFO dfs.DataNode$PacketResponder: PacketResponder 2 for block blk_-2591432911739362801 terminating
081111 091842 25188 INFO dfs.DataNode$DataXceiver: Receiving block blk_5848910093386461064 src: /10.251.125.193:53571 dest: /10.251.125.193:50010
081111 091538 25672 INFO dfs.DataNode$PacketResponder: PacketResponder 2 for block blk_357126336292213612 terminating
081109 234326 4209 INFO dfs.DataNode$PacketResponder: PacketResponder 1 for block blk_1490778667019632858 terminating
081110 220639 32 INFO dfs.FSNamesystem: BLOCK* NameSystem.delete: blk_-8075339697348101780 is added to invalidSet of 10.251.70.112:50010
081111 025231 18461 INFO dfs.DataNode$DataXceiver: Receiving block blk_4614960442286616002 src: /10.251.74.134:55569 dest: /10.251.74.134:50010
081111 054734 28 INFO dfs.FSNamesystem: BLOCK* NameSystem.delete: blk_6993511457898981315 is added to invalidSet of 10.251.90.239:50010
081109 234905 33 INFO dfs.FSNamesystem: BLOCK* NameSystem.addStoredBlock: blockMap updated: 10.251.193.175:50010 is added to blk_5898393438357292411 size 67108864
081110 014848 26 INFO dfs.FSNamesystem: BLOCK* NameSystem.addStoredBlock: blockMap updated: 10.251.195.70:50010 is added to blk_-107546811061543249 size 28503948
081110 215231 15449 INFO dfs.DataNode$PacketResponder: PacketResponder 2 for block blk_-5976588483584214761 terminating
081110 210139 28 INFO dfs.FSNamesystem: BLOCK* NameSystem.delete: blk_1875708206352883681 is added to invalidSet of 10.251.111.228:50010
081111 042457 27 INFO dfs.FSNamesystem: BLOCK* NameSystem.addStoredBlock: blockMap updated: 10.251.203.4:50010 is added to blk_1367011736134156610 size 67108864
081110 103108 30 INFO dfs.FSNamesystem: BLOCK* NameSystem.delete: blk_-1767460991544695624 is added to invalidSet of 10.251.66.102:50010
081109 210648 1309 INFO dfs.DataNode$PacketResponder: Received block blk_-1337553376091824739 of size 67108864 from /10.251.89.155
081111 055826 21711 INFO dfs.DataNode$DataXceiver: Receiving block blk_-1363690651524475155 src: /10.251.194.147:56938 dest: /10.251.194.147:50010
081111 034134 19079 INFO dfs.DataNode$PacketResponder: PacketResponder 2 for block blk_304807567028124758 terminating
081110 103756 19 INFO dfs.FSDataset: Deleting block blk_7511772639717971983 file /mnt/hadoop/dfs/data/current/subdir41/blk_7511772639717971983
081111 090859 25071 INFO dfs.DataNode$DataXceiver: Receiving block blk_3486199946366845022 src: /10.251.214.18:46871 dest: /10.251.214.18:50010
081110 072329 7872 INFO dfs.DataNode$DataXceiver: 10.251.43.115:50010 Served block blk_-1726917797684266429 to /10.251.203.129
081109 235207 3945 INFO dfs.DataNode$PacketResponder: PacketResponder 1 for block blk_3437027121216803293 terminating
081111 083157 24265 INFO dfs.DataNode$DataXceiver: Receiving block blk_3518959000118367822 src: /10.250.17.225:48859 dest: /10.250.17.225:50010
081111 011857 13 INFO dfs.DataBlockScanner: Verification succeeded for blk_-7529395892773688630
081110 103936 29 INFO dfs.FSNamesystem: BLOCK* NameSystem.addStoredBlock: blockMap updated: 10.251.70.5:50010 is added to blk_-7257944162505247987 size 67108864
081111 081159 23817 INFO dfs.DataNode$PacketResponder: Received block blk_-8348972351003942778 of size 67108864 from /10.251.202.209
081111 085801 29 INFO dfs.FSNamesystem: BLOCK* NameSystem.addStoredBlock: blockMap updated: 10.251.214.32:50010 is added to blk_-15070350150889232 size 67108864
081111 102050 26709 INFO dfs.DataNode$PacketResponder: PacketResponder 1 for block blk_-2883750062145156554 terminating
081110 080921 8080 INFO dfs.DataNode$DataXceiver: 10.251.199.225:50010 Served block blk_670855002924392646 to /10.251.199.225
081109 210843 1392 INFO dfs.DataNode$PacketResponder: Received block blk_1950638768247525918 of size 67108864 from /10.250.7.230
081110 143734 32 INFO dfs.FSNamesystem: BLOCK* NameSystem.addStoredBlock: blockMap updated: 10.251.70.37:50010 is added to blk_-1826523622113881863 size 67108864
081110 224124 16330 INFO dfs.DataNode$PacketResponder: PacketResponder 1 for block blk_2322307022015914060 terminating
081111 100735 31 INFO dfs.FSNamesystem: BLOCK* NameSystem.allocateBlock: /user/root/randtxt9/_temporary/_task_200811101024_0016_m_000114_0/part-00114. blk_2679455338016037250
081111 055910 21574 INFO dfs.DataNode$PacketResponder: Received block blk_-1492240460152230608 of size 67108864 from /10.251.75.49
081111 064104 26 INFO dfs.FSNamesystem: BLOCK* NameSystem.addStoredBlock: blockMap updated: 10.251.215.50:50010 is added to blk_-3295940493480659729 size 67108864
081111 094720 32 INFO dfs.FSNamesystem: BLOCK* NameSystem.addStoredBlock: blockMap updated: 10.251.74.192:50010 is added to blk_8619749851330474062 size 67108864
081110 013550 5786 INFO dfs.DataNode$PacketResponder: PacketResponder 2 for block blk_-2705458338351633437 terminating
081111 043506 29 INFO dfs.FSNamesystem: BLOCK* NameSystem.addStoredBlock: blockMap updated: 10.251.70.5:50010 is added to blk_3084643073214945573 size 67108864
081111 040835 19336 INFO dfs.DataNode$PacketResponder: Received block blk_1854206255791280284 of size 67108864 from /10.251.123.1
081111 061830 21789 INFO dfs.DataNode$PacketResponder: PacketResponder 1 for block blk_669372902024867234 terminating
081110 013844 5737 INFO dfs.DataNode$DataXceiver: Receiving block blk_8811773992876682195 src: /10.251.111.80:35457 dest: /10.251.111.80:50010
081111 074006 23753 INFO dfs.DataNode$PacketResponder: PacketResponder 2 for block blk_407927533001841723 terminating
081111 042323 19844 INFO dfs.DataNode$PacketResponder: PacketResponder 1 for block blk_-8148409584443949267 terminating
081111 110429 26 INFO dfs.FSNamesystem: BLOCK* NameSystem.delete: blk_9103903855104203683 is added to invalidSet of 10.250.14.224:50010
081110 210609 19 INFO dfs.FSDataset: Deleting block blk_4948946748264795594 file /mnt/hadoop/dfs/data/current/subdir55/blk_4948946748264795594
081111 075209 23918 INFO dfs.DataNode$PacketResponder: Received block blk_6090733641697385322 of size 3554078 from /10.251.123.99
081111 024310 17905 INFO dfs.DataNode$DataXceiver: Receiving block blk_5073929049499524092 src: /10.251.43.115:47496 dest: /10.251.43.115:50010
081109 222350 3273 WARN dfs.DataNode$DataXceiver: 10.251.106.10:50010:Got exception while serving blk_-70583244806075256 to /10.251.110.160:
081109 234814 4180 INFO dfs.DataNode$PacketResponder: Received block blk_6275567647655666961 of size 67108864 from /10.251.42.207
081111 065702 22602 INFO dfs.DataNode$PacketResponder: PacketResponder 2 for block blk_1767246401878846209 terminating
081110 212619 29 INFO dfs.FSNamesystem: BLOCK* NameSystem.addStoredBlock: blockMap updated: 10.251.202.134:50010 is added to blk_-8883358472756230810 size 67108864
081110 015552 6067 INFO dfs.DataNode$PacketResponder: PacketResponder 1 for block blk_8181119353716306719 terminating
081109 211309 1553 INFO dfs.DataNode$PacketResponder: Received block blk_2532291372641563228 of size 67108864 from /10.251.30.101
081111 101334 26 INFO dfs.FSNamesystem: BLOCK* NameSystem.allocateBlock: /user/root/randtxt9/_temporary/_task_200811101024_0016_m_000677_0/part-00677. blk_3349128589692746572
081109 211511 1652 INFO dfs.DataNode$DataXceiver: Receiving block blk_5263766244365681610 src: /10.251.110.68:35349 dest: /10.251.110.68:50010
081111 024536 17730 INFO dfs.DataNode$PacketResponder: Received block blk_-173762077029105253 of size 67108864 from /10.250.13.240
081111 104922 27145 INFO dfs.DataNode$PacketResponder: PacketResponder 2 for block blk_6842349360552883304 terminating
081110 143848 12324 INFO dfs.DataNode$PacketResponder: PacketResponder 0 for block blk_1355089093306344768 terminating
081111 093642 25340 INFO dfs.DataNode$PacketResponder: Received block blk_-7604738743340423454 of size 67108864 from /10.251.39.209
081111 092223 25435 INFO dfs.DataNode$PacketResponder: Received block blk_-5039378162722721590 of size 67108864 from /10.251.30.6
081111 080357 28 INFO dfs.FSNamesystem: BLOCK* NameSystem.allocateBlock: /user/root/rand7/_temporary/_task_200811101024_0014_m_000182_0/part-00182. blk_2601831744979968055
081110 014334 5856 INFO dfs.DataNode$DataXceiver: Receiving block blk_-8837716822006545787 src: /10.251.42.16:40677 dest: /10.251.42.16:50010
081110 220638 32 INFO dfs.FSNamesystem: BLOCK* NameSystem.delete: blk_-4375456177645258746 is added to invalidSet of 10.251.71.146:50010
081110 103120 30 INFO dfs.FSNamesystem: BLOCK* NameSystem.delete: blk_-714037130302498269 is added to invalidSet of 10.251.74.227:50010
081111 085026 31 INFO dfs.FSNamesystem: BLOCK* NameSystem.addStoredBlock: blockMap updated: 10.251.39.179:50010 is added to blk_3314156953025687646 size 67108864
081111 052908 28 INFO dfs.FSNamesystem: BLOCK* NameSystem.addStoredBlock: blockMap updated: 10.251.42.246:50010 is added to blk_-4545781048584602098 size 67108864
081111 085924 27 INFO dfs.FSNamesystem: BLOCK* NameSystem.delete: blk_345874971482053342 is added to invalidSet of 10.251.197.226:50010
081110 083114 8387 INFO dfs.DataNode$DataXceiver: 10.251.110.68:50010 Served block blk_-7154201331788715495 to /10.251.74.134
081111 062339 22105 INFO dfs.DataNode$DataXceiver: Receiving block blk_3276698009821392392 src: /10.251.126.5:56466 dest: /10.251.126.5:50010
081110 150522 12908 INFO dfs.DataNode$PacketResponder: Received block blk_-6980713072372823857 of size 67108864 from /10.251.71.16
081111 025548 18084 INFO dfs.DataNode$PacketResponder: PacketResponder 0 for block blk_6215080423346012378 terminating
081110 210456 19 INFO dfs.FSDataset: Deleting block blk_-4771946795993126847 file /mnt/hadoop/dfs/data/current/subdir41/blk_-4771946795993126847
081110 210542 19 INFO dfs.FSDataset: Deleting block blk_-4730174445162648140 file /mnt/hadoop/dfs/data/current/subdir46/blk_-4730174445162648140
081110 120402 31 INFO dfs.FSNamesystem: BLOCK* NameSystem.addStoredBlock: blockMap updated: 10.251.126.227:50010 is added to blk_897355525942354268 size 67108864
081111 054335 21105 INFO dfs.DataNode$PacketResponder: PacketResponder 1 for block blk_6604011003439835867 terminating
081110 225253 28 INFO dfs.FSNamesystem: BLOCK* NameSystem.addStoredBlock: blockMap updated: 10.251.66.3:50010 is added to blk_3854243896643646780 size 67108864
081111 092244 25087 INFO dfs.DataNode$PacketResponder: Received block blk_-6986907536480784923 of size 67108864 from /10.251.125.193
081111 024252 34 INFO dfs.FSNamesystem: BLOCK* NameSystem.addStoredBlock: blockMap updated: 10.251.26.131:50010 is added to blk_-2119298016418058775 size 67108864
081110 120652 10871 INFO dfs.DataNode$PacketResponder: PacketResponder 1 for block blk_6161304551146312439 terminating
081111 101916 31 INFO dfs.FSNamesystem: BLOCK* NameSystem.allocateBlock: /user/root/randtxt9/_temporary/_task_200811101024_0016_m_000693_0/part-00693. blk_3565897859913579301
081110 210115 28 INFO dfs.FSNamesystem: BLOCK* NameSystem.delete: blk_-6613294734802116649 is added to invalidSet of 10.251.74.79:50010
081111 094309 26006 INFO dfs.DataNode$PacketResponder: Received block blk_4867894130013130395 of size 67108864 from /10.251.70.37
081110 220638 32 INFO dfs.FSNamesystem: BLOCK* NameSystem.delete: blk_-8086737065579934920 is added to invalidSet of 10.251.91.229:50010
081111 105853 27256 INFO dfs.DataNode$PacketResponder: Received block blk_-5335574448915911290 of size 67108864 from /10.251.121.224
081110 023044 13 INFO dfs.DataBlockScanner: Verification succeeded for blk_5118136627883317315
081111 085909 27 INFO dfs.FSNamesystem: BLOCK* NameSystem.delete: blk_-6076024225842188603 is added to invalidSet of 10.251.30.134:50010
081111 103058 35 INFO dfs.FSNamesystem: BLOCK* NameSystem.addStoredBlock: blockMap updated: 10.251.26.131:50010 is added to blk_1867614640129483932 size 67108864
081110 115439 10676 INFO dfs.DataNode$PacketResponder: PacketResponder 2 for block blk_3296711127106915492 terminating
081111 050525 32 INFO dfs.FSNamesystem: BLOCK* NameSystem.addStoredBlock: blockMap updated: 10.251.67.4:50010 is added to blk_3455063120489916832 size 67108864
081109 235412 35 INFO dfs.FSNamesystem: BLOCK* NameSystem.addStoredBlock: blockMap updated: 10.250.15.67:50010 is added to blk_4586097436184286107 size 67108864
081111 110443 26 INFO dfs.FSNamesystem: BLOCK* NameSystem.delete: blk_-6249376422416788250 is added to invalidSet of 10.251.71.240:50010
081109 204629 550 INFO dfs.DataNode$DataXceiver: Receiving block blk_3214514225288957957 src: /10.251.42.191:51526 dest: /10.251.42.191:50010
081110 000958 33 INFO dfs.FSNamesystem: BLOCK* NameSystem.addStoredBlock: blockMap updated: 10.251.194.213:50010 is added to blk_1606253706550695257 size 67108864
081111 110440 26 INFO dfs.FSNamesystem: BLOCK* NameSystem.delete: blk_414486785447720094 is added to invalidSet of 10.251.122.65:50010
081111 091454 25296 INFO dfs.DataNode$PacketResponder: Received block blk_-5562893478413295348 of size 67108864 from /10.251.66.102
081111 093210 35 INFO dfs.FSNamesystem: BLOCK* NameSystem.addStoredBlock: blockMap updated: 10.250.6.214:50010 is added to blk_-2510592307119297241 size 67108864
081111 094949 25848 INFO dfs.DataNode$PacketResponder: PacketResponder 0 for block blk_-6179930631074391810 terminating
081111 110446 26 INFO dfs.FSNamesystem: BLOCK* NameSystem.delete: blk_-1916372151564934422 is added to invalidSet of 10.251.123.99:50010
081111 035648 28 INFO dfs.FSNamesystem: BLOCK* NameSystem.addStoredBlock: blockMap updated: 10.251.67.225:50010 is added to blk_8972854450815849354 size 67108864
081111 060448 34 INFO dfs.FSNamesystem: BLOCK* NameSystem.addStoredBlock: blockMap updated: 10.251.203.179:50010 is added to blk_2059677813530106011 size 67108864
081111 092846 27 INFO dfs.FSNamesystem: BLOCK* NameSystem.addStoredBlock: blockMap updated: 10.250.6.223:50010 is added to blk_-2763273280652814529 size 67108864
081110 220904 15747 INFO dfs.DataNode$PacketResponder: PacketResponder 0 for block blk_9066482339105388387 terminating
081111 025525 18144 INFO dfs.DataNode$PacketResponder: PacketResponder 0 for block blk_-4003931673157590805 terminating
081109 211842 1800 INFO dfs.DataNode$PacketResponder: Received block blk_5551395556180565718 of size 67108864 from /10.251.199.150
081111 034657 33 INFO dfs.FSNamesystem: BLOCK* NameSystem.addStoredBlock: blockMap updated: 10.250.10.213:50010 is added to blk_4298712250257508079 size 67108864
081111 044856 33 INFO dfs.FSNamesystem: BLOCK* NameSystem.addStoredBlock: blockMap updated: 10.251.214.32:50010 is added to blk_-2064469065152480857 size 67108864
081110 113342 31 INFO dfs.FSNamesystem: BLOCK* NameSystem.addStoredBlock: blockMap updated: 10.251.74.79:50010 is added to blk_-4346312348445766559 size 67108864
081109 232439 3834 INFO dfs.DataNode$PacketResponder: Received block blk_-5558050234388434368 of size 67108864 from /10.251.43.115
081110 055742 7039 INFO dfs.DataNode$DataXceiver: 10.250.9.207:50010 Served block blk_-6173377144218302038 to /10.250.9.207
081111 023031 27 INFO dfs.FSNamesystem: BLOCK* NameSystem.delete: blk_-8679960617404075997 is added to invalidSet of 10.251.203.246:50010
081111 104956 27189 INFO dfs.DataNode$PacketResponder: PacketResponder 1 for block blk_7670895014495650028 terminating
081111 065358 22664 INFO dfs.DataNode$PacketResponder: Received block blk_-1358084660877755408 of size 67108864 from /10.251.42.16
081111 065226 26 INFO dfs.FSNamesystem: BLOCK* NameSystem.delete: blk_-3334165519687314594 is added to invalidSet of 10.251.89.155:50010
081109 235121 4391 INFO dfs.DataNode$PacketResponder: PacketResponder 0 for block blk_-1429772683450266698 terminating
081110 121552 26 INFO dfs.FSNamesystem: BLOCK* NameSystem.allocateBlock: /user/root/randtxt2/_temporary/_task_200811101024_0002_m_001483_0/part-01483. blk_-2332086368664363347
081111 095902 31 INFO dfs.FSNamesystem: BLOCK* NameSystem.addStoredBlock: blockMap updated: 10.251.75.49:50010 is added to blk_2660950048615515870 size 67108864
081111 075649 19 INFO dfs.FSDataset: Deleting block blk_-7426014273734957610 file /mnt/hadoop/dfs/data/current/subdir54/blk_-7426014273734957610
081110 210817 27 INFO dfs.FSNamesystem: BLOCK* NameSystem.allocateBlock: /user/root/rand3/_temporary/_task_200811101024_0005_m_000329_0/part-00329. blk_-189247512261828930
081110 122711 11098 INFO dfs.DataNode$DataXceiver: Receiving block blk_-9034459321420733099 src: /10.251.126.22:56336 dest: /10.251.126.22:50010
081111 093939 28 INFO dfs.FSNamesystem: BLOCK* NameSystem.allocateBlock: /user/root/rand8/_temporary/_task_200811101024_0015_m_001451_0/part-01451. blk_-8229355142960983255
081109 215103 2919 WARN dfs.DataNode$DataXceiver: 10.250.13.188:50010:Got exception while serving blk_-6088897233047541670 to /10.251.37.240:
081110 113044 10194 INFO dfs.DataNode$PacketResponder: PacketResponder 2 for block blk_-2982959734282910116 terminating
081110 075949 13 INFO dfs.DataBlockScanner: Verification succeeded for blk_-6963725443335886664
081110 114028 30 INFO dfs.FSNamesystem: BLOCK* NameSystem.addStoredBlock: blockMap updated: 10.250.17.225:50010 is added to blk_8715708190232917634 size 67108864
081111 045930 35 INFO dfs.FSNamesystem: BLOCK* NameSystem.allocateBlock: /user/root/rand5/_temporary/_task_200811101024_0011_m_000737_0/part-00737. blk_1248769435753599572
081109 213013 2232 INFO dfs.DataNode$PacketResponder: PacketResponder 0 for block blk_8762707183271239405 terminating
081111 110430 26 INFO dfs.FSNamesystem: BLOCK* NameSystem.delete: blk_-3497927715547571855 is added to invalidSet of 10.251.42.191:50010
081110 170259 13733 WARN dfs.DataNode$DataXceiver: 10.251.75.79:50010:Got exception while serving blk_-8450105892832836565 to /10.251.110.196:
081111 081022 28 INFO dfs.FSNamesystem: BLOCK* NameSystem.allocateBlock: /user/root/rand7/_temporary/_task_200811101024_0014_m_000666_0/part-00666. blk_-8352699783214619646
081111 051021 20669 INFO dfs.DataNode$PacketResponder: Received block blk_6346486486288085795 of size 67108864 from /10.251.39.242
081110 103102 30 INFO dfs.FSNamesystem: BLOCK* NameSystem.delete: blk_-1884100767220717613 is added to invalidSet of 10.251.203.129:50010
081110 110418 9696 INFO dfs.DataNode$DataXceiver: Receiving block blk_-3318251171242214205 src: /10.251.122.38:34724 dest: /10.251.122.38:50010
081110 221206 32 INFO dfs.FSNamesystem: BLOCK* NameSystem.addStoredBlock: blockMap updated: 10.251.75.143:50010 is added to blk_3600338804696472734 size 67108864
081111 090628 25057 INFO dfs.DataNode$PacketResponder: Received block blk_5309391451731129229 of size 67108864 from /10.250.14.196
081110 112052 9747 INFO dfs.DataNode$PacketResponder: PacketResponder 1 for block blk_-313115230190351066 terminating
081110 135247 11889 INFO dfs.DataNode$DataXceiver: 10.250.14.224:50010 Served block blk_4283238413831249985 to /10.251.194.213
081111 032500 18728 INFO dfs.DataNode$PacketResponder: Received block blk_-7182946762349483118 of size 67108864 from /10.251.193.224
081111 093045 25660 INFO dfs.DataNode$DataXceiver: Receiving block blk_-5472710172494168965 src: /10.251.195.70:43723 dest: /10.251.195.70:50010
081111 052846 21358 INFO dfs.DataNode$PacketResponder: PacketResponder 1 for block blk_5348548743130215090 terminating
081110 114941 10609 INFO dfs.DataNode$PacketResponder: Received block blk_-7975193022820985667 of size 28496483 from /10.250.19.16
081111 031514 33 INFO dfs.FSNamesystem: BLOCK* NameSystem.addStoredBlock: blockMap updated: 10.251.203.166:50010 is added to blk_1850179189798696842 size 67108864
081110 061628 7244 INFO dfs.DataNode$DataXceiver: 10.250.17.177:50010 Served block blk_-7677936143095012622 to /10.251.194.245
081111 081131 30 INFO dfs.FSNamesystem: BLOCK* NameSystem.addStoredBlock: blockMap updated: 10.251.107.196:50010 is added to blk_-6542496662262529066 size 67108864
081110 030111 6361 INFO dfs.DataNode$DataXceiver: 10.251.194.129:50010 Served block blk_-958574389465706851 to /10.251.75.49
081110 105232 9443 INFO dfs.DataNode$DataXceiver: Receiving block blk_2355749451953956401 src: /10.251.42.84:39755 dest: /10.251.42.84:50010
081109 210953 26 INFO dfs.FSNamesystem: BLOCK* NameSystem.addStoredBlock: blockMap updated: 10.251.26.177:50010 is added to blk_4324054686736862841 size 3553285
081111 091537 25402 INFO dfs.DataNode$PacketResponder: Received block blk_-7080493353861070953 of size 67108864 from /10.251.214.112
081110 220648 32 INFO dfs.FSNamesystem: BLOCK* NameSystem.delete: blk_3247281378902204475 is added to invalidSet of 10.251.71.240:50010
081111 075639 28 INFO dfs.FSNamesystem: BLOCK* NameSystem.delete: blk_5120536506963836964 is added to invalidSet of 10.250.5.237:50010
081110 120140 10902 INFO dfs.DataNode$PacketResponder: PacketResponder 0 for block blk_9076502337250032859 terminating
081110 093728 8396 INFO dfs.DataNode$DataXceiver: 10.251.203.246:50010 Served block blk_1580713401194013320 to /10.251.42.246
081111 044853 19 INFO dfs.FSDataset: Deleting block blk_4470927488812225047 file /mnt/hadoop/dfs/data/current/subdir29/blk_4470927488812225047
081111 063127 22320 INFO dfs.DataNode$DataXceiver: Receiving block blk_-7757287358787334462 src: /10.251.106.37:49503 dest: /10.251.106.37:50010
081111 065424 19 INFO dfs.FSDataset: Deleting block blk_-1951015104861599955 file /mnt/hadoop/dfs/data/current/subdir35/blk_-1951015104861599955
081110 001637 35 INFO dfs.FSNamesystem: BLOCK* NameSystem.addStoredBlock: blockMap updated: 10.251.111.209:50010 is added to blk_7006185905488147968 size 67108864
081110 044622 6958 WARN dfs.DataNode$DataXceiver: 10.251.91.84:50010:Got exception while serving blk_8957157770546670932 to /10.251.75.163:
081111 084457 34 INFO dfs.FSNamesystem: BLOCK* NameSystem.allocateBlock: /user/root/rand7/_temporary/_task_200811101024_0014_m_001721_0/part-01721. blk_2484303549825961620
081110 220023 26 INFO dfs.FSNamesystem: BLOCK* NameSystem.addStoredBlock: blockMap updated: 10.251.67.225:50010 is added to blk_7870798452297512267 size 67108864
081111 065440 19 INFO dfs.FSDataset: Deleting block blk_-1124591300864851177 file /mnt/hadoop/dfs/data/current/subdir8/blk_-1124591300864851177
081111 100337 26196 INFO dfs.DataNode$PacketResponder: Received block blk_423325047822346314 of size 67108864 from /10.251.194.129
081111 062843 26 INFO dfs.FSNamesystem: BLOCK* NameSystem.addStoredBlock: blockMap updated: 10.251.26.131:50010 is added to blk_-6114749893454626394 size 67108864
081110 103458 8997 INFO dfs.DataNode$PacketResponder: PacketResponder 0 for block blk_-2520751912286137910 terminating
081111 105537 27527 INFO dfs.DataNode$DataXceiver: Receiving block blk_-7825497854078717551 src: /10.251.197.161:44061 dest: /10.251.197.161:50010
081110 014011 5875 INFO dfs.DataNode$PacketResponder: Received block blk_-5865375168993828133 of size 28490342 from /10.251.31.85
081111 065457 19 INFO dfs.FSDataset: Deleting block blk_1941560734264138937 file /mnt/hadoop/dfs/data/current/subdir0/blk_1941560734264138937
081111 060245 21466 INFO dfs.DataNode$PacketResponder: PacketResponder 2 for block blk_4144444058261348972 terminating
081111 041402 26 INFO dfs.FSNamesystem: BLOCK* NameSystem.addStoredBlock: blockMap updated: 10.251.26.177:50010 is added to blk_5584483747498007406 size 67108864
081110 111146 9744 INFO dfs.DataNode$PacketResponder: Received block blk_1734725934273724709 of size 67108864 from /10.251.125.174
081111 052358 20955 INFO dfs.DataNode$PacketResponder: Received block blk_4880268285708639681 of size 67108864 from /10.251.74.192
081110 103131 30 INFO dfs.FSNamesystem: BLOCK* NameSystem.delete: blk_4073643528746436033 is added to invalidSet of 10.251.195.52:50010
081111 101146 35 INFO dfs.FSNamesystem: BLOCK* NameSystem.addStoredBlock: blockMap updated: 10.251.25.237:50010 is added to blk_-1954751349845601763 size 67108864
081110 103150 30 INFO dfs.FSNamesystem: BLOCK* NameSystem.delete: blk_350613957590132129 is added to invalidSet of 10.251.195.52:50010
081109 205747 1009 INFO dfs.DataNode$PacketResponder: Received block blk_7855798223619345027 of size 67108864 from /10.250.19.227
081111 044319 35 INFO dfs.FSNamesystem: BLOCK* NameSystem.delete: blk_2706396411162934077 is added to invalidSet of 10.250.14.196:50010
081111 035127 19070 INFO dfs.DataNode$PacketResponder: PacketResponder 0 for block blk_7131186713449996197 terminating
081111 023027 27 INFO dfs.FSNamesystem: BLOCK* NameSystem.delete: blk_450482469532858151 is added to invalidSet of 10.251.75.79:50010
081111 092724 34 INFO dfs.FSNamesystem: BLOCK* NameSystem.addStoredBlock: blockMap updated: 10.251.215.192:50010 is added to blk_3443399649455329724 size 67108864
081110 113258 10255 INFO dfs.DataNode$DataXceiver: Receiving block blk_164097022215447044 src: /10.251.74.227:57374 dest: /10.251.74.227:50010
081110 230517 31 INFO dfs.FSNamesystem: BLOCK* NameSystem.allocateBlock: /user/root/randtxt3/_temporary/_task_200811101024_0007_m_001771_1/part-01771. blk_6442356837260659938
081111 095312 32 INFO dfs.FSNamesystem: BLOCK* NameSystem.allocateBlock: /user/root/rand8/_temporary/_task_200811101024_0015_m_001911_0/part-01911. blk_-1321625447366070457
081111 044330 29 INFO dfs.FSNamesystem: BLOCK* NameSystem.delete: blk_-3498621724135000235 is added to invalidSet of 10.251.194.129:50010
081111 033827 19 INFO dfs.FSDataset: Deleting block blk_-8896396285421215545 file /mnt/hadoop/dfs/data/current/subdir44/blk_-8896396285421215545
081110 213944 15194 INFO dfs.DataNode$PacketResponder: PacketResponder 0 for block blk_3250212580555921421 terminating
081110 214100 30 INFO dfs.FSNamesystem: BLOCK* NameSystem.addStoredBlock: blockMap updated: 10.251.42.16:50010 is added to blk_-4569440164262474682 size 67108864
081110 210201 28 INFO dfs.FSNamesystem: BLOCK* NameSystem.delete: blk_4676877268848672393 is added to invalidSet of 10.251.195.52:50010
081111 103129 35 INFO dfs.FSNamesystem: BLOCK* NameSystem.addStoredBlock: blockMap updated: 10.250.10.223:50010 is added to blk_7427167553624038890 size 67108864
081111 074556 23684 INFO dfs.DataNode$PacketResponder: Received block blk_-5345789026232907039 of size 67108864 from /10.251.203.179
081111 054255 26 INFO dfs.FSNamesystem: BLOCK* NameSystem.addStoredBlock: blockMap updated: 10.250.9.207:50010 is added to blk_7471968753203053170 size 24858247
081110 103558 19 INFO dfs.FSDataset: Deleting block blk_-197681700475265639 file /mnt/hadoop/dfs/data/current/subdir19/blk_-197681700475265639
081110 070623 7536 INFO dfs.DataNode$DataXceiver: 10.251.67.4:50010 Served block blk_-2942253714307683910 to /10.251.91.159
081110 103615 18 INFO dfs.FSDataset: Deleting block blk_8566227326028671086 file /mnt/hadoop/dfs/data/current/subdir16/blk_8566227326028671086
081110 013742 5611 INFO dfs.DataNode$PacketResponder: PacketResponder 2 for block blk_-1025512361176487330 terminating
081110 103459 19 INFO dfs.FSDataset: Deleting block blk_-5191483529943376006 file /mnt/hadoop/dfs/data/current/blk_-5191483529943376006
081111 055619 21414 INFO dfs.DataNode$PacketResponder: PacketResponder 0 for block blk_-6860161826670896847 terminating
081110 220846 19 INFO dfs.FSDataset: Deleting block blk_-36818476972579285 file /mnt/hadoop/dfs/data/current/subdir11/blk_-36818476972579285
081110 020527 6329 INFO dfs.DataNode$PacketResponder: Received block blk_-2182193086825785700 of size 67108864 from /10.250.15.198
081110 210138 28 INFO dfs.FSNamesystem: BLOCK* NameSystem.delete: blk_8616163626775010304 is added to invalidSet of 10.251.38.197:50010
081111 101733 34 INFO dfs.FSNamesystem: BLOCK* NameSystem.allocateBlock: /user/root/randtxt9/_temporary/_task_200811101024_0016_m_000419_0/part-00419. blk_-5036697738740645702
081111 023022 27 INFO dfs.FSNamesystem: BLOCK* NameSystem.delete: blk_6396237037321960117 is added to invalidSet of 10.251.89.155:50010
081111 101759 26695 INFO dfs.DataNode$DataXceiver: Receiving block blk_4622576976288878586 src: /10.251.123.99:60544 dest: /10.251.123.99:50010
081111 074910 23631 INFO dfs.DataNode$PacketResponder: Received block blk_5863588535422049894 of size 67108864 from /10.251.42.191
081110 135938 12167 WARN dfs.DataNode$DataXceiver: 10.251.107.196:50010:Got exception while serving blk_-6870057803739262386 to /10.251.127.243:
081110 082351 8372 INFO dfs.DataNode$DataXceiver: 10.250.10.176:50010 Served block blk_-3891875410137533579 to /10.250.14.224
081110 200110 14297 WARN dfs.DataNode$DataXceiver: 10.251.37.240:50010:Got exception while serving blk_3116668268735791624 to /10.250.5.161:
081110 103037 34 INFO dfs.FSNamesystem: BLOCK* NameSystem.delete: blk_1813851713998675801 is added to invalidSet of 10.250.10.223:50010
081110 010508 5185 INFO dfs.DataNode$DataXceiver: Receiving block blk_6656278100907057743 src: /10.251.75.143:53057 dest: /10.251.75.143:50010
081110 213113 30 INFO dfs.FSNamesystem: BLOCK* NameSystem.addStoredBlock: blockMap updated: 10.251.125.193:50010 is added to blk_-1497870143692220671 size 67108864
081110 151734 35 INFO dfs.FSNamesystem: BLOCK* NameSystem.allocateBlock: /user/root/sortrand2/_temporary/_task_200811101024_0003_r_000049_0/part-00049. blk_5275547419481061896
081109 203753 31 INFO dfs.FSNamesystem: BLOCK* NameSystem.allocateBlock: /user/root/rand/_temporary/_task_200811092030_0001_m_000331_0/part-00331. blk_-3613166739096169547
081111 041523 27 INFO dfs.FSNamesystem: BLOCK* NameSystem.allocateBlock: /user/root/randtxt4/_temporary/_task_200811101024_0010_m_001397_0/part-01397. blk_-5914102632711331496
081110 224838 16558 INFO dfs.DataNode$PacketResponder: PacketResponder 0 for block blk_-4811334109262493659 terminating
081110 210209 14113 INFO dfs.DataNode$DataXceiver: Receiving block blk_-2264227765612057267 src: /10.251.91.32:55760 dest: /10.251.91.32:50010
081111 065442 19 INFO dfs.FSDataset: Deleting block blk_7719454866622882721 file /mnt/hadoop/dfs/data/current/subdir20/blk_7719454866622882721
081111 023036 27 INFO dfs.FSNamesystem: BLOCK* NameSystem.delete: blk_3633889950453102356 is added to invalidSet of 10.251.42.246:50010
081111 041317 19542 INFO dfs.DataNode$PacketResponder: Received block blk_-5154981989594222209 of size 67108864 from /10.251.214.112
081111 083001 27 INFO dfs.FSNamesystem: BLOCK* NameSystem.allocateBlock: /user/root/rand7/_temporary/_task_200811101024_0014_m_001024_0/part-01024. blk_6067243519938566453
081110 210159 28 INFO dfs.FSNamesystem: BLOCK* NameSystem.delete: blk_2637273970357842954 is added to invalidSet of 10.250.14.224:50010
081110 144632 12617 INFO dfs.DataNode$PacketResponder: PacketResponder 2 for block blk_8244084727799736407 terminating
081111 023027 27 INFO dfs.FSNamesystem: BLOCK* NameSystem.delete: blk_-2432913890567340495 is added to invalidSet of 10.251.70.37:50010
081110 014540 35 INFO dfs.FSNamesystem: BLOCK* NameSystem.addStoredBlock: blockMap updated: 10.251.67.211:50010 is added to blk_849960979031602333 size 67108864
081111 052716 20891 INFO dfs.DataNode$PacketResponder: Received block blk_9206153676703799180 of size 3545706 from /10.251.29.239
081111 023248 19 INFO dfs.FSDataset: Deleting block blk_-498143716123536636 file /mnt/hadoop/dfs/data/current/subdir45/blk_-498143716123536636
081111 103616 26881 INFO dfs.DataNode$PacketResponder: Received block blk_3059607432433327605 of size 67108864 from /10.251.202.181
081111 095450 25416 INFO dfs.DataNode$PacketResponder: PacketResponder 2 for block blk_-7723948403011206499 terminating
081111 080741 24208 INFO dfs.DataNode$PacketResponder: PacketResponder 0 for block blk_7760157148139187848 terminating
081110 110110 9432 INFO dfs.DataNode$PacketResponder: PacketResponder 2 for block blk_8791532753198145430 terminating
081111 072412 23493 INFO dfs.DataNode$PacketResponder: Received block blk_-8232138701353416655 of size 67108864 from /10.251.43.192
081111 110445 26 INFO dfs.FSNamesystem: BLOCK* NameSystem.delete: blk_-889609687543417016 is added to invalidSet of 10.251.106.50:50010
081111 093742 25731 INFO dfs.DataNode$DataXceiver: Receiving block blk_4654378352969188371 src: /10.251.67.211:55560 dest: /10.251.67.211:50010
081111 050242 28 INFO dfs.FSNamesystem: BLOCK* NameSystem.addStoredBlock: blockMap updated: 10.251.38.214:50010 is added to blk_-2907072711685988632 size 67108864
081109 234825 4318 INFO dfs.DataNode$PacketResponder: Received block blk_-7207564395574969797 of size 67108864 from /10.251.42.84
081110 130526 11600 WARN dfs.DataNode$DataXceiver: 10.251.31.242:50010:Got exception while serving blk_-2347849222943676267 to /10.251.38.53:
081109 210230 1152 INFO dfs.DataNode$PacketResponder: Received block blk_6260296604013396125 of size 67108864 from /10.251.74.79
081110 112112 9879 INFO dfs.DataNode$DataXceiver: Receiving block blk_7596422639542592762 src: /10.251.107.242:43312 dest: /10.251.107.242:50010
081110 110239 9455 INFO dfs.DataNode$DataXceiver: Receiving block blk_-8129450291408614103 src: /10.251.73.188:42474 dest: /10.251.73.188:50010
081111 065208 26 INFO dfs.FSNamesystem: BLOCK* NameSystem.delete: blk_-4308280657074483106 is added to invalidSet of 10.251.123.1:50010
081111 095257 25796 INFO dfs.DataNode$PacketResponder: PacketResponder 1 for block blk_5205751408911081364 terminating
081111 062040 21920 INFO dfs.DataNode$PacketResponder: PacketResponder 0 for block blk_4009478971833458438 terminating
081110 222851 16038 INFO dfs.DataNode$PacketResponder: Received block blk_-8858778264487504685 of size 67108864 from /10.251.67.225
081111 071122 22887 INFO dfs.DataNode$PacketResponder: Received block blk_4938798200771210857 of size 67108864 from /10.251.123.20
081110 143917 12084 INFO dfs.DataNode$PacketResponder: Received block blk_4013703929607934093 of size 67108864 from /10.251.126.5
081111 032437 18603 INFO dfs.DataNode$PacketResponder: PacketResponder 2 for block blk_3987694759788667578 terminating
081110 001301 27 INFO dfs.FSNamesystem: BLOCK* NameSystem.addStoredBlock: blockMap updated: 10.251.66.102:50010 is added to blk_-2600754311692292328 size 67108864
081110 123551 11307 INFO dfs.DataNode$PacketResponder: PacketResponder 2 for block blk_4189125074503803693 terminating
081110 132557 11898 WARN dfs.DataNode$DataXceiver: 10.251.123.1:50010:Got exception while serving blk_3393029624029103092 to /10.250.5.237:
081110 210123 28 INFO dfs.FSNamesystem: BLOCK* NameSystem.delete: blk_-6329599129739656688 is added to invalidSet of 10.250.7.244:50010
081110 120626 10807 INFO dfs.DataNode$PacketResponder: PacketResponder 0 for block blk_-5436168691253294672 terminating
081111 055303 21055 INFO dfs.DataNode$DataXceiver: Receiving block blk_-4695316544004420614 src: /10.251.195.33:59944 dest: /10.251.195.33:50010
081110 164539 13623 WARN dfs.DataNode$DataXceiver: 10.251.214.112:50010:Got exception while serving blk_2459419481367104882 to /10.251.74.227:
081109 214159 2672 WARN dfs.DataNode$DataXceiver: 10.251.66.63:50010:Got exception while serving blk_-7736161395577686148 to /10.251.107.196:
081111 065459 19 INFO dfs.FSDataset: Deleting block blk_7223966596232519625 file /mnt/hadoop/dfs/data/current/subdir8/blk_7223966596232519625
081110 081516 8105 WARN dfs.DataNode$DataXceiver: 10.251.30.85:50010:Got exception while serving blk_-5295948978943108698 to /10.250.6.214:
081110 082824 8580 INFO dfs.DataNode$DataXceiver: 10.250.5.237:50010 Served block blk_-7897535490411458928 to /10.250.5.237
081111 085910 27 INFO dfs.FSNamesystem: BLOCK* NameSystem.delete: blk_1991925906413635655 is added to invalidSet of 10.251.203.129:50010
081110 223917 16381 INFO dfs.DataNode$PacketResponder: PacketResponder 1 for block blk_-7881478924000010632 terminating
081110 115222 27 INFO dfs.FSNamesystem: BLOCK* NameSystem.allocateBlock: /user/root/randtxt2/_temporary/_task_200811101024_0002_m_000631_0/part-00631. blk_-65834819840375858
081110 181429 13853 WARN dfs.DataNode$DataXceiver: 10.250.7.96:50010:Got exception while serving blk_-6529096980464343041 to /10.250.19.16:
081110 210452 19 INFO dfs.FSDataset: Deleting block blk_-4490468566842194855 file /mnt/hadoop/dfs/data/current/subdir36/blk_-4490468566842194855
081111 041007 26 INFO dfs.FSNamesystem: BLOCK* NameSystem.addStoredBlock: blockMap updated: 10.251.75.79:50010 is added to blk_-6177489435411364771 size 67108864
081110 014433 5699 INFO dfs.DataNode$PacketResponder: Received block blk_-6504074876890552422 of size 67108864 from /10.251.215.50
081110 103836 19 INFO dfs.FSDataset: Deleting block blk_5968072719209660093 file /mnt/hadoop/dfs/data/current/subdir45/blk_5968072719209660093
081110 225051 30 INFO dfs.FSNamesystem: BLOCK* NameSystem.addStoredBlock: blockMap updated: 10.251.39.144:50010 is added to blk_3314381787213907346 size 67108864
081111 075156 30 INFO dfs.FSNamesystem: BLOCK* NameSystem.allocateBlock: /user/root/rand6/_temporary/_task_200811101024_0013_m_001980_0/part-01980. blk_-1784624641021274985
081111 044325 35 INFO dfs.FSNamesystem: BLOCK* NameSystem.delete: blk_-2906808497939530373 is added to invalidSet of 10.251.39.192:50010
081111 025843 18317 INFO dfs.DataNode$PacketResponder: PacketResponder 2 for block blk_5623912160408028269 terminating
081110 220650 32 INFO dfs.FSNamesystem: BLOCK* NameSystem.delete: blk_713330917498686800 is added to invalidSet of 10.251.25.237:50010
081109 234043 4163 INFO dfs.DataNode$PacketResponder: Received block blk_-7575616903208812872 of size 67108864 from /10.250.5.237
081110 210114 28 INFO dfs.FSNamesystem: BLOCK* NameSystem.delete: blk_-4713725890217232086 is added to invalidSet of 10.251.42.84:50010
081111 033514 32 INFO dfs.FSNamesystem: BLOCK* NameSystem.allocateBlock: /user/root/rand4/_temporary/_task_200811101024_0009_m_001978_0/part-01978. blk_5834774967091076302
081111 090115 19 INFO dfs.FSDataset: Deleting block blk_-5475495997739260265 file /mnt/hadoop/dfs/data/current/subdir27/blk_-5475495997739260265
081110 020104 6230 INFO dfs.DataNode$DataXceiver: Receiving block blk_3619499114884191620 src: /10.251.195.70:49458 dest: /10.251.195.70:50010
081111 040149 19349 INFO dfs.DataNode$PacketResponder: Received block blk_-425515283294133827 of size 67108864 from /10.251.30.101
081110 223357 35 INFO dfs.FSNamesystem: BLOCK* NameSystem.addStoredBlock: blockMap updated: 10.251.66.192:50010 is added to blk_-5531816906291121769 size 67108864
081111 085808 24845 INFO dfs.DataNode$PacketResponder: PacketResponder 2 for block blk_7302843903823823182 terminating
081110 105610 29 INFO dfs.FSNamesystem: BLOCK* NameSystem.addStoredBlock: blockMap updated: 10.251.90.134:50010 is added to blk_4412363041346820874 size 67108864
081110 224115 28 INFO dfs.FSNamesystem: BLOCK* NameSystem.addStoredBlock: blockMap updated: 10.251.31.242:50010 is added to blk_-5488684253816584033 size 67108864
081110 210345 19 INFO dfs.FSDataset: Deleting block blk_-7834524071586835622 file /mnt/hadoop/dfs/data/current/subdir31/blk_-7834524071586835622
081111 065226 26 INFO dfs.FSNamesystem: BLOCK* NameSystem.delete: blk_3437480775352984818 is added to invalidSet of 10.251.214.130:50010
081110 103143 30 INFO dfs.FSNamesystem: BLOCK* NameSystem.delete: blk_5554919377401967711 is added to invalidSet of 10.250.17.225:50010
081111 075004 23790 INFO dfs.DataNode$PacketResponder: PacketResponder 0 for block blk_5969438779500974329 terminating
081110 223433 15983 INFO dfs.DataNode$PacketResponder: PacketResponder 0 for block blk_5925860032833438384 terminating
081110 053614 6943 INFO dfs.DataNode$DataXceiver: 10.251.214.130:50010 Served block blk_7907480062140327349 to /10.251.214.130
081111 063317 22348 INFO dfs.DataNode$PacketResponder: PacketResponder 2 for block blk_-1858194279477636997 terminating
081111 031807 18585 INFO dfs.DataNode$PacketResponder: PacketResponder 1 for block blk_-814040627274321317 terminating
081111 064157 21950 INFO dfs.DataNode$PacketResponder: PacketResponder 0 for block blk_2717108142765045082 terminating
081110 210116 28 INFO dfs.FSNamesystem: BLOCK* NameSystem.delete: blk_-2947483116401437206 is added to invalidSet of 10.251.195.70:50010
081111 064212 22498 INFO dfs.DataNode$DataXceiver: Receiving block blk_-4210661764921630588 src: /10.251.43.115:33396 dest: /10.251.43.115:50010
081110 211926 15089 INFO dfs.DataNode$DataXceiver: Receiving block blk_-7735391010316683070 src: /10.251.67.113:53012 dest: /10.251.67.113:50010
081111 110435 26 INFO dfs.FSNamesystem: BLOCK* NameSystem.delete: blk_3460371632986845560 is added to invalidSet of 10.250.15.198:50010
081111 101556 26117 INFO dfs.DataNode$PacketResponder: Received block blk_3632806966329409047 of size 67108864 from /10.251.39.209
081111 024525 17755 INFO dfs.DataNode$PacketResponder: Received block blk_7798244162619518634 of size 67108864 from /10.251.194.245
081109 205832 1025 INFO dfs.DataNode$PacketResponder: PacketResponder 1 for block blk_1686742842650139008 terminating
081111 062050 22063 INFO dfs.DataNode$DataXceiver: Receiving block blk_-7034496508332385551 src: /10.251.66.3:52925 dest: /10.251.66.3:50010
081110 103604 18 INFO dfs.FSDataset: Deleting block blk_1930689423512542173 file /mnt/hadoop/dfs/data/current/subdir23/blk_1930689423512542173
081111 053841 32 INFO dfs.FSNamesystem: BLOCK* NameSystem.addStoredBlock: blockMap updated: 10.251.203.129:50010 is added to blk_1104813618782085105 size 67108864
081110 103053 30 INFO dfs.FSNamesystem: BLOCK* NameSystem.delete: blk_-5748820807671355014 is added to invalidSet of 10.251.39.144:50010
081111 091653 25371 INFO dfs.DataNode$PacketResponder: Received block blk_7019473488386913103 of size 67108864 from /10.251.203.149
081111 094313 25850 INFO dfs.DataNode$PacketResponder: Received block blk_-8886718226649402383 of size 67108864 from /10.251.42.207
081111 060911 21517 INFO dfs.DataNode$DataXceiver: Receiving block blk_5200436374209070668 src: /10.250.14.224:38869 dest: /10.250.14.224:50010
081111 044329 29 INFO dfs.FSNamesystem: BLOCK* NameSystem.delete: blk_3511519342716084943 is added to invalidSet of 10.251.70.5:50010
081111 050848 20541 INFO dfs.DataNode$DataXceiver: Receiving block blk_7000436798964928138 src: /10.251.125.174:40984 dest: /10.251.125.174:50010
081110 210147 28 INFO dfs.FSNamesystem: BLOCK* NameSystem.delete: blk_3432993993661485300 is added to invalidSet of 10.251.65.237:50010
081111 074425 23292 INFO dfs.DataNode$DataXceiver: Receiving block blk_-3037427240329163737 src: /10.251.43.21:58543 dest: /10.251.43.21:50010
081110 185216 14303 WARN dfs.DataNode$DataXceiver: 10.251.111.228:50010:Got exception while serving blk_-3721181926555431825 to /10.251.202.181:
081110 065857 7402 WARN dfs.DataNode$DataXceiver: 10.251.26.177:50010:Got exception while serving blk_1308987533429683088 to /10.251.126.22:
081111 090135 19 INFO dfs.FSDataset: Deleting block blk_-2691458138510369716 file /mnt/hadoop/dfs/data/current/subdir11/blk_-2691458138510369716
081111 065343 19 INFO dfs.FSDataset: Deleting block blk_-4556321368705983998 file /mnt/hadoop/dfs/data/current/subdir13/blk_-4556321368705983998
081110 103059 30 INFO dfs.FSNamesystem: BLOCK* NameSystem.delete: blk_-5382393729716880783 is added to invalidSet of 10.250.10.176:50010
081111 035905 32 INFO dfs.FSNamesystem: BLOCK* NameSystem.addStoredBlock: blockMap updated: 10.251.39.242:50010 is added to blk_2723971885153329568 size 67108864
081109 210242 1180 INFO dfs.DataNode$PacketResponder: Received block blk_-7899781290671071943 of size 67108864 from /10.251.107.242
081110 213054 15000 INFO dfs.DataNode$PacketResponder: Received block blk_9009284017231286782 of size 67108864 from /10.251.42.246
081111 033004 18818 INFO dfs.DataNode$PacketResponder: PacketResponder 2 for block blk_-4841096647893008705 terminating
081111 101418 26579 INFO dfs.DataNode$PacketResponder: PacketResponder 1 for block blk_-3454855135981202718 terminating
081110 103039 34 INFO dfs.FSNamesystem: BLOCK* NameSystem.delete: blk_1941051765158535218 is added to invalidSet of 10.251.203.179:50010
081110 222102 16116 INFO dfs.DataNode$DataXceiver: Receiving block blk_8944368840295924610 src: /10.251.203.246:35450 dest: /10.251.203.246:50010
081111 023034 27 INFO dfs.FSNamesystem: BLOCK* NameSystem.delete: blk_6111888846770658793 is added to invalidSet of 10.251.74.227:50010
081111 085143 24925 INFO dfs.DataNode$DataXceiver: Receiving block blk_569016250874600894 src: /10.250.15.198:50053 dest: /10.250.15.198:50010
081111 040754 19457 INFO dfs.DataNode$PacketResponder: PacketResponder 2 for block blk_823247185866892567 terminating
081110 213332 31 INFO dfs.FSNamesystem: BLOCK* NameSystem.addStoredBlock: blockMap updated: 10.251.43.147:50010 is added to blk_-6380355368581555109 size 67108864
081110 213022 32 INFO dfs.FSNamesystem: BLOCK* NameSystem.addStoredBlock: blockMap updated: 10.251.91.84:50010 is added to blk_-957754653154770450 size 67108864
081110 220453 15736 INFO dfs.DataNode$PacketResponder: PacketResponder 2 for block blk_1498834710330732860 terminating
081111 041829 19814 INFO dfs.DataNode$PacketResponder: PacketResponder 0 for block blk_-6587858183756218039 terminating
081111 084719 24998 INFO dfs.DataNode$PacketResponder: Received block blk_8702883680377306118 of size 67108864 from /10.251.90.81
081111 024110 18043 INFO dfs.DataNode$PacketResponder: PacketResponder 1 for block blk_2406591741793148251 terminating
081111 065326 19 INFO dfs.FSDataset: Deleting block blk_-7717340872392030878 file /mnt/hadoop/dfs/data/current/subdir9/blk_-7717340872392030878
081110 150809 13 INFO dfs.DataBlockScanner: Verification succeeded for blk_-1679446596941247353
081110 210447 19 INFO dfs.FSDataset: Deleting block blk_-4047229139726880631 file /mnt/hadoop/dfs/data/current/subdir35/blk_-4047229139726880631
081111 023037 27 INFO dfs.FSNamesystem: BLOCK* NameSystem.delete: blk_-732459904158645955 is added to invalidSet of 10.250.14.143:50010
081110 132357 11851 WARN dfs.DataNode$DataXceiver: 10.250.17.225:50010:Got exception while serving blk_3874579477103553534 to /10.251.71.68:
081110 215124 15704 INFO dfs.DataNode$PacketResponder: PacketResponder 2 for block blk_5699076036427428454 terminating
081110 225726 16595 INFO dfs.DataNode$PacketResponder: Received block blk_-4951957202494388885 of size 67108864 from /10.250.11.85
081110 220756 19 INFO dfs.FSDataset: Deleting block blk_-7781063434449605272 file /mnt/hadoop/dfs/data/current/subdir35/blk_-7781063434449605272
081110 224722 16431 INFO dfs.DataNode$PacketResponder: PacketResponder 1 for block blk_-165501950769962773 terminating
081111 030239 18027 INFO dfs.DataNode$PacketResponder: PacketResponder 2 for block blk_-3965580537489328570 terminating
081110 183540 13 INFO dfs.DataBlockScanner: Verification succeeded for blk_-8693484130397095735
081111 071219 22997 INFO dfs.DataNode$PacketResponder: Received block blk_7244261322171836607 of size 67108864 from /10.251.75.228
081110 221000 19 INFO dfs.FSDataset: Deleting block blk_9149371175549128815 file /mnt/hadoop/dfs/data/current/subdir61/blk_9149371175549128815
081111 100144 32 INFO dfs.FSNamesystem: BLOCK* NameSystem.delete: blk_4678986894157526226 is added to invalidSet of 10.251.71.97:50010
081109 211052 31 INFO dfs.FSNamesystem: BLOCK* NameSystem.addStoredBlock: blockMap updated: 10.251.71.68:50010 is added to blk_4986049612134727501 size 67108864
081110 081524 8071 WARN dfs.DataNode$DataXceiver: 10.250.14.143:50010:Got exception while serving blk_-3969180361427091833 to /10.251.194.245:
081110 152116 28 INFO dfs.FSNamesystem: BLOCK* NameSystem.allocateBlock: /user/root/sortrand2/_temporary/_task_200811101024_0003_r_000117_0/part-00117. blk_8275727245491200356
081111 063807 22399 INFO dfs.DataNode$DataXceiver: Receiving block blk_-1039506840904732417 src: /10.251.214.67:34705 dest: /10.251.214.67:50010
081111 041643 19673 INFO dfs.DataNode$PacketResponder: Received block blk_1400483223375486824 of size 28491227 from /10.251.126.83
081109 210953 27 INFO dfs.FSNamesystem: BLOCK* NameSystem.addStoredBlock: blockMap updated: 10.251.123.132:50010 is added to blk_4324054686736862841 size 3553285
081111 075849 19 INFO dfs.FSDataset: Deleting block blk_-827939472217163281 file /mnt/hadoop/dfs/data/current/subdir1/blk_-827939472217163281
081109 205434 747 INFO dfs.DataNode$DataXceiver: Receiving block blk_7917860261241434874 src: /10.251.123.1:54784 dest: /10.251.123.1:50010
081110 145655 12675 INFO dfs.DataNode$DataXceiver: Receiving block blk_-2467104113552047614 src: /10.251.42.16:38940 dest: /10.251.42.16:50010
081111 051847 21226 INFO dfs.DataNode$DataXceiver: Receiving block blk_-7797012451009844167 src: /10.251.197.161:46007 dest: /10.251.197.161:50010
081110 103341 8603 INFO dfs.DataNode$PacketResponder: Received block blk_598475499797734814 of size 67108864 from /10.251.43.210
081111 065524 22694 INFO dfs.DataNode$DataXceiver: Receiving block blk_1207211918692928037 src: /10.251.37.240:40188 dest: /10.251.37.240:50010
081110 122153 11159 INFO dfs.DataNode$DataXceiver: Receiving block blk_679909397136147978 src: /10.250.11.53:55739 dest: /10.250.11.53:50010
081110 225053 16620 INFO dfs.DataNode$PacketResponder: PacketResponder 2 for block blk_-6873969438843849758 terminating
081109 233218 4005 INFO dfs.DataNode$PacketResponder: PacketResponder 1 for block blk_-7291503196787663702 terminating
081110 110452 9556 INFO dfs.DataNode$DataXceiver: Receiving block blk_1587059073030710124 src: /10.251.214.112:60413 dest: /10.251.214.112:50010
081110 220912 19 INFO dfs.FSDataset: Deleting block blk_2025915231269455923 file /mnt/hadoop/dfs/data/current/blk_2025915231269455923
081111 053313 21048 INFO dfs.DataNode$PacketResponder: PacketResponder 0 for block blk_5306296805397576268 terminating
081110 122110 10943 INFO dfs.DataNode$PacketResponder: PacketResponder 0 for block blk_5134388399506688097 terminating
081111 082615 24369 INFO dfs.DataNode$PacketResponder: Received block blk_-5823316488407225441 of size 67108864 from /10.251.214.130
081110 220653 32 INFO dfs.FSNamesystem: BLOCK* NameSystem.delete: blk_-430010169414850818 is added to invalidSet of 10.251.39.144:50010
081111 080826 28 INFO dfs.FSNamesystem: BLOCK* NameSystem.allocateBlock: /user/root/rand7/_temporary/_task_200811101024_0014_m_000539_0/part-00539. blk_-686045619852079826
081111 023217 19 INFO dfs.FSDataset: Deleting block blk_-4425429662568139239 file /mnt/hadoop/dfs/data/current/subdir31/blk_-4425429662568139239
081110 124941 11553 WARN dfs.DataNode$DataXceiver: 10.250.14.38:50010:Got exception while serving blk_5215024060623432929 to /10.251.42.16:
081111 040206 19185 INFO dfs.DataNode$PacketResponder: PacketResponder 0 for block blk_3705188824339557181 terminating
081110 210729 14770 INFO dfs.DataNode$PacketResponder: PacketResponder 0 for block blk_-6976529013502649994 terminating
081111 031038 18553 INFO dfs.DataNode$DataXceiver: Receiving block blk_-9202804862960568603 src: /10.251.39.160:58717 dest: /10.251.39.160:50010
081110 210545 19 INFO dfs.FSDataset: Deleting block blk_-1743972053584581973 file /mnt/hadoop/dfs/data/current/subdir21/blk_-1743972053584581973
081111 050534 26 INFO dfs.FSNamesystem: BLOCK* NameSystem.allocateBlock: /user/root/rand5/_temporary/_task_200811101024_0011_m_000425_0/part-00425. blk_-1631988992646093894
081111 075619 28 INFO dfs.FSNamesystem: BLOCK* NameSystem.delete: blk_-4071394008060190796 is added to invalidSet of 10.251.91.15:50010
081111 083400 31 INFO dfs.FSNamesystem: BLOCK* NameSystem.addStoredBlock: blockMap updated: 10.250.10.144:50010 is added to blk_-8405182614065407704 size 3540302
081110 220913 19 INFO dfs.FSDataset: Deleting block blk_-2487572311718290377 file /mnt/hadoop/dfs/data/current/blk_-2487572311718290377
081111 075922 19 INFO dfs.FSDataset: Deleting block blk_2970362154564364852 file /mnt/hadoop/dfs/data/current/subdir6/blk_2970362154564364852
081111 075617 28 INFO dfs.FSNamesystem: BLOCK* NameSystem.delete: blk_-9220198646758798316 is added to invalidSet of 10.251.42.84:50010
081110 143727 12379 INFO dfs.DataNode$DataXceiver: Receiving block blk_1336798271721410437 src: /10.251.199.19:44171 dest: /10.251.199.19:50010
081110 001138 4751 INFO dfs.DataNode$DataXceiver: Receiving block blk_-1770893488731701218 src: /10.251.126.227:39809 dest: /10.251.126.227:50010
081110 111406 9910 INFO dfs.DataNode$PacketResponder: Received block blk_-8399639018153148792 of size 67108864 from /10.251.31.85
081110 225314 16449 INFO dfs.DataNode$PacketResponder: Received block blk_4647201157409287825 of size 28489323 from /10.251.42.16
081110 115421 10528 INFO dfs.DataNode$PacketResponder: PacketResponder 2 for block blk_3345896765739675949 terminating
081111 091836 30 INFO dfs.FSNamesystem: BLOCK* NameSystem.addStoredBlock: blockMap updated: 10.251.38.197:50010 is added to blk_5511547990891389830 size 67108864
081111 105340 27163 INFO dfs.DataNode$PacketResponder: Received block blk_2839574984721587444 of size 67108864 from /10.251.214.175
081110 224849 16631 INFO dfs.DataNode$DataXceiver: Receiving block blk_-1233566138068676495 src: /10.251.199.86:54401 dest: /10.251.199.86:50010
081110 010637 5081 INFO dfs.DataNode$DataXceiver: Receiving block blk_8166034812517861270 src: /10.251.107.19:49617 dest: /10.251.107.19:50010
081110 014813 5866 INFO dfs.DataNode$PacketResponder: Received block blk_3565054134391507729 of size 67108864 from /10.250.7.244
081111 070621 31 INFO dfs.FSNamesystem: BLOCK* NameSystem.addStoredBlock: blockMap updated: 10.251.202.181:50010 is added to blk_-6088277817800272916 size 67108864
081110 104848 33 INFO dfs.FSNamesystem: BLOCK* NameSystem.addStoredBlock: blockMap updated: 10.251.70.211:50010 is added to blk_6182717426345220520 size 67108864
081111 065736 22173 INFO dfs.DataNode$PacketResponder: Received block blk_8507381220741391469 of size 67108864 from /10.251.203.246
081110 210518 19 INFO dfs.FSDataset: Deleting block blk_-1582836083888796660 file /mnt/hadoop/dfs/data/current/subdir11/blk_-1582836083888796660
081111 065226 26 INFO dfs.FSNamesystem: BLOCK* NameSystem.delete: blk_5423555168502951575 is added to invalidSet of 10.250.7.32:50010
081109 212127 1871 INFO dfs.DataNode$PacketResponder: Received block blk_-8135177283556581535 of size 67108864 from /10.250.15.67
081110 124423 11252 WARN dfs.DataNode$DataXceiver: 10.250.15.198:50010:Got exception while serving blk_188168189744997967 to /10.250.15.198:
081111 085928 27 INFO dfs.FSNamesystem: BLOCK* NameSystem.delete: blk_5626047027670468441 is added to invalidSet of 10.250.14.143:50010
081111 065736 22611 INFO dfs.DataNode$PacketResponder: PacketResponder 0 for block blk_7999127866425177311 terminating
081110 223139 16257 INFO dfs.DataNode$PacketResponder: Received block blk_68479837089466787 of size 67108864 from /10.251.127.191
081110 110323 9570 INFO dfs.DataNode$DataXceiver: Receiving block blk_-6255866460150445107 src: /10.251.203.80:55230 dest: /10.251.203.80:50010
081110 215158 15588 INFO dfs.DataNode$DataXceiver: Receiving block blk_653445460385562045 src: /10.251.127.191:40288 dest: /10.251.127.191:50010
081110 013309 30 INFO dfs.FSNamesystem: BLOCK* NameSystem.allocateBlock: /user/root/randtxt/_temporary/_task_200811092030_0003_m_001104_0/part-01104. blk_6299934349275313629
081111 060857 27 INFO dfs.FSNamesystem: BLOCK* NameSystem.addStoredBlock: blockMap updated: 10.251.42.191:50010 is added to blk_6614672784255879159 size 67108864
081110 115743 10669 INFO dfs.DataNode$DataXceiver: Receiving block blk_1854003264291149973 src: /10.251.194.245:54063 dest: /10.251.194.245:50010
081111 055303 21667 INFO dfs.DataNode$DataXceiver: Receiving block blk_7716982544999194898 src: /10.251.214.225:44123 dest: /10.251.214.225:50010
081111 070729 22698 INFO dfs.DataNode$PacketResponder: Received block blk_-2069769471228670507 of size 67108864 from /10.251.195.52
081111 044747 19 INFO dfs.FSDataset: Deleting block blk_7052767402306220198 file /mnt/hadoop/dfs/data/current/subdir6/blk_7052767402306220198
081110 104444 9367 INFO dfs.DataNode$DataXceiver: Receiving block blk_2460005252656868229 src: /10.250.11.194:40444 dest: /10.250.11.194:50010
081110 224402 16675 INFO dfs.DataNode$DataXceiver: Receiving block blk_7321494031765355981 src: /10.251.71.97:37741 dest: /10.251.71.97:50010
081110 103127 30 INFO dfs.FSNamesystem: BLOCK* NameSystem.delete: blk_-9072425707912906803 is added to invalidSet of 10.250.5.161:50010
081111 085919 27 INFO dfs.FSNamesystem: BLOCK* NameSystem.delete: blk_8553857901542845509 is added to invalidSet of 10.251.42.9:50010
081110 225211 16711 INFO dfs.DataNode$DataXceiver: Receiving block blk_6011901760052095240 src: /10.251.91.84:59345 dest: /10.251.91.84:50010
081110 215204 15514 INFO dfs.DataNode$PacketResponder: Received block blk_-1848656371366867762 of size 67108864 from /10.251.67.4
081110 114027 31 INFO dfs.FSNamesystem: BLOCK* NameSystem.addStoredBlock: blockMap updated: 10.251.122.38:50010 is added to blk_-2644524721594042994 size 67108864
081111 065200 30 INFO dfs.FSNamesystem: BLOCK* NameSystem.delete: blk_-5123340788420359604 is added to invalidSet of 10.251.89.155:50010
081110 123417 11348 INFO dfs.DataNode$PacketResponder: PacketResponder 1 for block blk_-8150320044494647977 terminating
081110 223039 15831 INFO dfs.DataNode$PacketResponder: Received block blk_-8022884768056495652 of size 67108864 from /10.250.14.224
081111 032530 18713 INFO dfs.DataNode$DataXceiver: Receiving block blk_7910018943753812839 src: /10.250.7.32:45165 dest: /10.250.7.32:50010
081110 230331 16864 INFO dfs.DataNode$PacketResponder: Received block blk_7304114548363143952 of size 67108864 from /10.251.67.4
081109 233140 3958 INFO dfs.DataNode$DataXceiver: Receiving block blk_16715734021446006 src: /10.250.19.16:59564 dest: /10.250.19.16:50010
081110 120650 10862 INFO dfs.DataNode$PacketResponder: Received block blk_-6094231050520423525 of size 67108864 from /10.251.125.237
081111 060913 34 INFO dfs.FSNamesystem: BLOCK* NameSystem.addStoredBlock: blockMap updated: 10.251.65.203:50010 is added to blk_7585410900607840484 size 28491487
081109 233416 4079 INFO dfs.DataNode$PacketResponder: PacketResponder 2 for block blk_-827780290985423152 terminating
081111 085134 24850 INFO dfs.DataNode$DataXceiver: Receiving block blk_-717063040094230392 src: /10.251.66.192:40423 dest: /10.251.66.192:50010
081110 210139 28 INFO dfs.FSNamesystem: BLOCK* NameSystem.delete: blk_63095369545245988 is added to invalidSet of 10.251.195.33:50010
081110 223728 16312 INFO dfs.DataNode$PacketResponder: Received block blk_1372634702648488940 of size 67108864 from /10.251.214.130
081110 122044 10776 INFO dfs.DataNode$PacketResponder: Received block blk_4351992738608755352 of size 67108864 from /10.251.67.4
081111 110425 26 INFO dfs.FSNamesystem: BLOCK* NameSystem.delete: blk_2517465288433038221 is added to invalidSet of 10.250.17.177:50010
081111 072230 19 INFO dfs.FSDataset: Deleting block blk_7704932484312653979 file /mnt/hadoop/dfs/data/current/subdir27/blk_7704932484312653979
081111 024351 17694 INFO dfs.DataNode$DataXceiver: Receiving block blk_7962313829635560375 src: /10.251.67.113:47714 dest: /10.251.67.113:50010
081110 082539 8172 WARN dfs.DataNode$DataXceiver: 10.250.5.161:50010:Got exception while serving blk_231644826585403079 to /10.250.10.6:
081111 054829 21199 INFO dfs.DataNode$PacketResponder: PacketResponder 2 for block blk_1441325118983303141 terminating
081111 042627 19733 INFO dfs.DataNode$PacketResponder: Received block blk_-3747215158376145722 of size 67108864 from /10.251.35.1
081110 011957 5379 INFO dfs.DataNode$PacketResponder: PacketResponder 0 for block blk_-5074228479772055167 terminating
081110 151850 26 INFO dfs.FSNamesystem: BLOCK* NameSystem.allocateBlock: /user/root/sortrand2/_temporary/_task_200811101024_0003_r_000298_0/part-00298. blk_1698475844341379836
081111 075057 30 INFO dfs.FSNamesystem: BLOCK* NameSystem.addStoredBlock: blockMap updated: 10.251.26.8:50010 is added to blk_8074043293528003050 size 67108864
081111 062145 21833 INFO dfs.DataNode$PacketResponder: PacketResponder 0 for block blk_-7044012843088549176 terminating
081109 213813 35 INFO dfs.FSNamesystem: BLOCK* NameSystem.delete: blk_-2375295967481312777 is added to invalidSet of 10.251.74.192:50010
081111 043657 19944 INFO dfs.DataNode$DataXceiver: Receiving block blk_3919258699876643919 src: /10.251.111.130:42750 dest: /10.251.111.130:50010
081110 082834 8468 INFO dfs.DataNode$DataXceiver: 10.250.10.176:50010 Served block blk_-771533004385019369 to /10.250.10.176
081111 071614 22850 INFO dfs.DataNode$PacketResponder: Received block blk_452980155085392097 of size 67108864 from /10.251.43.115
081111 075627 28 INFO dfs.FSNamesystem: BLOCK* NameSystem.delete: blk_-511304995565113867 is added to invalidSet of 10.251.67.4:50010
081111 080313 23859 INFO dfs.DataNode$DataXceiver: Receiving block blk_6563200282641881679 src: /10.251.199.150:58867 dest: /10.251.199.150:50010
081110 125901 11804 WARN dfs.DataNode$DataXceiver: 10.251.90.81:50010:Got exception while serving blk_-7475315718437137269 to /10.251.214.130:
081111 093610 34 INFO dfs.FSNamesystem: BLOCK* NameSystem.addStoredBlock: blockMap updated: 10.250.10.100:50010 is added to blk_3968204467586018066 size 67108864
081111 065036 22547 INFO dfs.DataNode$PacketResponder: Received block blk_4060821803763868961 of size 17129320 from /10.251.67.4
081110 171325 13832 INFO dfs.DataNode$DataXceiver: 10.250.10.213:50010 Served block blk_-5549594332996137126 to /10.251.107.98
081111 042915 19575 INFO dfs.DataNode$DataXceiver: Receiving block blk_-8719121055096822866 src: /10.250.6.4:37974 dest: /10.250.6.4:50010
081111 110526 19 INFO dfs.FSDataset: Deleting block blk_-5293369450068541141 file /mnt/hadoop/dfs/data/current/subdir4/blk_-5293369450068541141
081111 065521 19 INFO dfs.FSDataset: Deleting block blk_6997423617032040814 file /mnt/hadoop/dfs/data/current/subdir2/blk_6997423617032040814
081110 113634 19 INFO dfs.FSDataset: Deleting block blk_-8549983170126612582 file /mnt/hadoop/dfs/data/current/subdir38/blk_-8549983170126612582
081111 063716 31 INFO dfs.FSNamesystem: BLOCK* NameSystem.addStoredBlock: blockMap updated: 10.251.198.196:50010 is added to blk_-2515012805018280655 size 67108864
081111 064026 31 INFO dfs.FSNamesystem: BLOCK* NameSystem.addStoredBlock: blockMap updated: 10.251.111.37:50010 is added to blk_-1368540974367461758 size 67108864
081110 010902 35 INFO dfs.FSNamesystem: BLOCK* NameSystem.addStoredBlock: blockMap updated: 10.251.66.3:50010 is added to blk_-7244764154844165176 size 67108864
081111 093520 25721 INFO dfs.DataNode$PacketResponder: Received block blk_-8545808582727071629 of size 67108864 from /10.251.214.32
081111 065512 19 INFO dfs.FSDataset: Deleting block blk_7195836555028364770 file /mnt/hadoop/dfs/data/current/subdir33/blk_7195836555028364770
081111 084133 24626 INFO dfs.DataNode$PacketResponder: PacketResponder 0 for block blk_-8656907748959174844 terminating
081110 221831 30 INFO dfs.FSNamesystem: BLOCK* NameSystem.addStoredBlock: blockMap updated: 10.251.75.143:50010 is added to blk_-3543665555685036553 size 67108864
081111 042540 20171 INFO dfs.DataNode$PacketResponder: PacketResponder 0 for block blk_6303854070703294961 terminating
081111 090232 31 INFO dfs.FSNamesystem: BLOCK* NameSystem.addStoredBlock: blockMap updated: 10.251.215.50:50010 is added to blk_-1735746903074371020 size 67108864
081111 073505 23490 INFO dfs.DataNode$PacketResponder: Received block blk_6044454361978059562 of size 67108864 from /10.251.65.203
081110 103540 19 INFO dfs.FSDataset: Deleting block blk_-5852973654846322963 file /mnt/hadoop/dfs/data/current/subdir42/blk_-5852973654846322963
081110 080916 8003 INFO dfs.DataNode$DataXceiver: 10.251.122.65:50010 Served block blk_6321072570790889337 to /10.251.111.80
081110 124316 11626 INFO dfs.DataNode$DataXceiver: 10.251.123.20:50010 Served block blk_-4236901719454880206 to /10.251.123.20
081110 211344 14755 INFO dfs.DataNode$DataXceiver: Receiving block blk_-2527331437489129888 src: /10.251.199.245:60762 dest: /10.251.199.245:50010
081111 032311 28 INFO dfs.FSNamesystem: BLOCK* NameSystem.addStoredBlock: blockMap updated: 10.250.10.100:50010 is added to blk_4146344622736610380 size 67108864
081111 042756 27 INFO dfs.FSNamesystem: BLOCK* NameSystem.addStoredBlock: blockMap updated: 10.251.123.33:50010 is added to blk_-8343359542088516965 size 67108864
081110 103029 34 INFO dfs.FSNamesystem: BLOCK* NameSystem.delete: blk_1571948928573241256 is added to invalidSet of 10.250.10.100:50010
081109 220359 3308 WARN dfs.DataNode$DataXceiver: 10.251.75.143:50010:Got exception while serving blk_64862365945626351 to /10.251.75.143:
081110 001755 35 INFO dfs.FSNamesystem: BLOCK* NameSystem.addStoredBlock: blockMap updated: 10.251.111.228:50010 is added to blk_6599384706301710142 size 67108864
081110 210157 28 INFO dfs.FSNamesystem: BLOCK* NameSystem.delete: blk_-4102412044222616425 is added to invalidSet of 10.250.13.240:50010
081109 233759 30 INFO dfs.FSNamesystem: BLOCK* NameSystem.allocateBlock: /user/root/sortrand/_temporary/_task_200811092030_0002_r_000136_0/part-00136. blk_-8026047023995393003
081109 212458 28 INFO dfs.FSNamesystem: BLOCK* NameSystem.addStoredBlock: blockMap updated: 10.251.107.98:50010 is added to blk_-7345979176029777434 size 67108864
081111 083939 31 INFO dfs.FSNamesystem: BLOCK* NameSystem.allocateBlock: /user/root/rand7/_temporary/_task_200811101024_0014_m_001309_0/part-01309. blk_6060728103915940713
081110 210634 19 WARN dfs.FSDataset: Unexpected error trying to delete block blk_8402133516730733050. BlockInfo not found in volumeMap.
081111 025655 18090 INFO dfs.DataNode$PacketResponder: Received block blk_-1304526258580695691 of size 67108864 from /10.251.38.53
081110 105127 9101 INFO dfs.DataNode$PacketResponder: PacketResponder 0 for block blk_2526462827485025829 terminating
081111 023022 27 INFO dfs.FSNamesystem: BLOCK* NameSystem.delete: blk_-6605402009938484216 is added to invalidSet of 10.251.91.159:50010
081111 052118 20446 INFO dfs.DataNode$DataXceiver: Receiving block blk_-196341681717805369 src: /10.251.107.242:44833 dest: /10.251.107.242:50010
081110 211022 14337 INFO dfs.DataNode$PacketResponder: Received block blk_7658180070222250710 of size 67108864 from /10.251.199.19
081111 024419 17899 INFO dfs.DataNode$DataXceiver: Receiving block blk_8549592108252930340 src: /10.251.91.229:55029 dest: /10.251.91.229:50010
081111 110447 26 INFO dfs.FSNamesystem: BLOCK* NameSystem.delete: blk_1426590573182844285 is added to invalidSet of 10.251.106.50:50010
081111 044336 29 INFO dfs.FSNamesystem: BLOCK* NameSystem.delete: blk_-7415348713192192349 is added to invalidSet of 10.251.91.229:50010
081111 043449 19738 INFO dfs.DataNode$DataXceiver: Receiving block blk_6743501901475797573 src: /10.250.15.67:52070 dest: /10.250.15.67:50010
081111 081634 32 INFO dfs.FSNamesystem: BLOCK* NameSystem.addStoredBlock: blockMap updated: 10.251.31.5:50010 is added to blk_-8983387657172020970 size 67108864
081110 103544 19 INFO dfs.FSDataset: Deleting block blk_-3867263608140925529 file /mnt/hadoop/dfs/data/current/subdir53/blk_-3867263608140925529
081110 013958 35 INFO dfs.FSNamesystem: BLOCK* NameSystem.allocateBlock: /user/root/randtxt/_temporary/_task_200811092030_0003_m_001464_0/part-01464. blk_1512721292543557746
081109 235423 4326 INFO dfs.DataNode$PacketResponder: PacketResponder 2 for block blk_8671939109034629064 terminating
081110 150335 12887 INFO dfs.DataNode$PacketResponder: PacketResponder 1 for block blk_-6331335985074613333 terminating
081111 025601 18257 INFO dfs.DataNode$PacketResponder: Received block blk_-6272391818611805298 of size 67108864 from /10.251.203.246
081110 144357 12576 INFO dfs.DataNode$PacketResponder: PacketResponder 2 for block blk_7669759354334431147 terminating
081110 150232 28 INFO dfs.FSNamesystem: BLOCK* NameSystem.addStoredBlock: blockMap updated: 10.251.65.203:50010 is added to blk_-1603761514054000545 size 67108864
081111 072201 23326 INFO dfs.DataNode$PacketResponder: Received block blk_3238857822039187869 of size 67108864 from /10.251.39.242
081110 121951 10937 INFO dfs.DataNode$PacketResponder: Received block blk_-6295139703348147321 of size 67108864 from /10.251.90.134
081111 075848 19 INFO dfs.FSDataset: Deleting block blk_-880045556302962130 file /mnt/hadoop/dfs/data/current/subdir36/blk_-880045556302962130
081109 234727 4265 INFO dfs.DataNode$DataXceiver: Receiving block blk_1250530685426031113 src: /10.251.43.192:46498 dest: /10.251.43.192:50010
081109 233031 3952 INFO dfs.DataNode$PacketResponder: PacketResponder 1 for block blk_-3723549188558747918 terminating
081109 212440 31 INFO dfs.FSNamesystem: BLOCK* NameSystem.addStoredBlock: blockMap updated: 10.251.121.224:50010 is added to blk_1883565412724093519 size 67108864
081111 085925 27 INFO dfs.FSNamesystem: BLOCK* NameSystem.delete: blk_-5418061672964250146 is added to invalidSet of 10.251.214.225:50010
081110 211816 14445 INFO dfs.DataNode$PacketResponder: Received block blk_5233639547578320570 of size 67108864 from /10.250.10.100
081110 092422 8507 INFO dfs.DataNode$DataXceiver: 10.251.29.239:50010 Served block blk_-4660395087663500723 to /10.251.29.239
081111 075834 18 INFO dfs.FSDataset: Deleting block blk_-5691903977028475269 file /mnt/hadoop/dfs/data/current/subdir23/blk_-5691903977028475269
081110 210550 19 INFO dfs.FSDataset: Deleting block blk_1472083819180998294 file /mnt/hadoop/dfs/data/current/subdir16/blk_1472083819180998294
081111 094825 26085 INFO dfs.DataNode$PacketResponder: PacketResponder 2 for block blk_-6846991495151178516 terminating
081109 203833 262 INFO dfs.DataNode$DataXceiver: Receiving block blk_-2001355280870153282 src: /10.251.106.37:49258 dest: /10.251.106.37:50010
081111 090239 19 INFO dfs.FSDataset: Deleting block blk_4322253193651430518 file /mnt/hadoop/dfs/data/current/subdir30/blk_4322253193651430518
081111 023312 18 INFO dfs.FSDataset: Deleting block blk_7838789212609984338 file /mnt/hadoop/dfs/data/current/subdir37/blk_7838789212609984338
081111 093854 25871 INFO dfs.DataNode$DataXceiver: Receiving block blk_-9196250569534430318 src: /10.251.203.246:51619 dest: /10.251.203.246:50010
081110 143953 12347 INFO dfs.DataNode$PacketResponder: Received block blk_3428760282523843286 of size 67108864 from /10.251.75.163
081111 055202 21115 INFO dfs.DataNode$PacketResponder: PacketResponder 0 for block blk_-6313771479878962925 terminating
081110 220654 32 INFO dfs.FSNamesystem: BLOCK* NameSystem.delete: blk_-4430615111001978222 is added to invalidSet of 10.251.214.112:50010
081111 060623 21659 INFO dfs.DataNode$DataXceiver: Receiving block blk_6000553905561956895 src: /10.251.26.131:53471 dest: /10.251.26.131:50010
081110 124811 11396 WARN dfs.DataNode$DataXceiver: 10.251.43.21:50010:Got exception while serving blk_-3475556274892513424 to /10.251.66.63:
081111 030415 18593 INFO dfs.DataNode$DataXceiver: Receiving block blk_-2780409546107107055 src: /10.250.10.6:53353 dest: /10.250.10.6:50010
081111 032434 18623 INFO dfs.DataNode$PacketResponder: Received block blk_8156018102064355656 of size 67108864 from /10.251.126.227
081110 145503 12667 INFO dfs.DataNode$PacketResponder: PacketResponder 0 for block blk_402792964779376106 terminating
081110 012445 5448 INFO dfs.DataNode$PacketResponder: Received block blk_783280480621185689 of size 67108864 from /10.251.31.242
081110 103606 19 INFO dfs.FSDataset: Deleting block blk_-3407746343236513496 file /mnt/hadoop/dfs/data/current/subdir7/blk_-3407746343236513496
081111 053946 20909 INFO dfs.DataNode$PacketResponder: PacketResponder 1 for block blk_-6706152214638787407 terminating
081111 023013 27 INFO dfs.FSNamesystem: BLOCK* NameSystem.delete: blk_-3568439203910020615 is added to invalidSet of 10.251.39.179:50010
081111 080834 24188 INFO dfs.DataNode$DataXceiver: Receiving block blk_-2381551038444771861 src: /10.251.65.203:35449 dest: /10.251.65.203:50010
081111 101652 32 INFO dfs.FSNamesystem: BLOCK* NameSystem.addStoredBlock: blockMap updated: 10.250.6.214:50010 is added to blk_2630818347922527143 size 67108864
081110 220655 32 INFO dfs.FSNamesystem: BLOCK* NameSystem.delete: blk_-6294503920796956544 is added to invalidSet of 10.251.197.226:50010
081109 235220 4342 INFO dfs.DataNode$PacketResponder: Received block blk_-7064372770491665931 of size 67108864 from /10.251.214.67
081110 040139 6682 INFO dfs.DataNode$DataXceiver: 10.251.199.19:50010 Served block blk_7553964571448680576 to /10.251.38.214
081111 044337 29 INFO dfs.FSNamesystem: BLOCK* NameSystem.delete: blk_8050103251553148231 is added to invalidSet of 10.250.5.161:50010
081111 042447 19879 INFO dfs.DataNode$PacketResponder: PacketResponder 0 for block blk_-6953626538764188648 terminating
081110 225634 32 INFO dfs.FSNamesystem: BLOCK* NameSystem.addStoredBlock: blockMap updated: 10.251.123.132:50010 is added to blk_-2924049747670690361 size 67108864
081110 210126 28 INFO dfs.FSNamesystem: BLOCK* NameSystem.delete: blk_5728165644809303289 is added to invalidSet of 10.251.202.209:50010
081110 103553 18 INFO dfs.FSDataset: Deleting block blk_4046584326953104398 file /mnt/hadoop/dfs/data/current/subdir22/blk_4046584326953104398
081110 123904 11376 INFO dfs.DataNode$PacketResponder: Received block blk_-73810219478542279 of size 67108864 from /10.251.215.192
081111 081830 21606 INFO dfs.DataNode$PacketResponder: PacketResponder 2 for block blk_1347261460065032414 terminating
081111 073951 23306 INFO dfs.DataNode$PacketResponder: Received block blk_769146623416387747 of size 67108864 from /10.251.126.255
081111 044320 35 INFO dfs.FSNamesystem: BLOCK* NameSystem.delete: blk_5568817699269775971 is added to invalidSet of 10.251.111.130:50010
081111 091936 25332 INFO dfs.DataNode$DataXceiver: Receiving block blk_-2963296414413639585 src: /10.250.14.38:40494 dest: /10.250.14.38:50010
081110 210909 33 INFO dfs.FSNamesystem: BLOCK* NameSystem.allocateBlock: /user/root/rand3/_temporary/_task_200811101024_0005_m_000025_0/part-00025. blk_7616816525850653816
081111 045538 20036 INFO dfs.DataNode$PacketResponder: Received block blk_5796947710412909145 of size 67108864 from /10.251.123.99
081110 144653 34 INFO dfs.FSNamesystem: BLOCK* NameSystem.allocateBlock: /user/root/sortrand2/_temporary/_task_200811101024_0003_r_000305_0/part-00305. blk_3794950747188376070
081110 231236 28 INFO dfs.FSNamesystem: BLOCK* NameSystem.delete: blk_3232702190226744362 is added to invalidSet of 10.251.71.16:50010
081111 065217 26 INFO dfs.FSNamesystem: BLOCK* NameSystem.delete: blk_5312084609814801678 is added to invalidSet of 10.250.11.100:50010
081111 075858 19 INFO dfs.FSDataset: Deleting block blk_-288011208182147742 file /mnt/hadoop/dfs/data/current/subdir30/blk_-288011208182147742
081109 233105 3953 INFO dfs.DataNode$DataXceiver: Receiving block blk_5147925658044893124 src: /10.250.13.240:36078 dest: /10.250.13.240:50010
081110 191034 14160 WARN dfs.DataNode$DataXceiver: 10.251.194.102:50010:Got exception while serving blk_-5544929132947276077 to /10.251.106.50:
081110 225856 17010 INFO dfs.DataNode$PacketResponder: Received block blk_8668177812000062725 of size 67108864 from /10.251.27.63
081111 082438 35 INFO dfs.FSNamesystem: BLOCK* NameSystem.addStoredBlock: blockMap updated: 10.251.26.8:50010 is added to blk_-174351956544256790 size 67108864
081110 104942 9357 INFO dfs.DataNode$DataXceiver: Receiving block blk_-943760975046886545 src: /10.251.127.47:56338 dest: /10.251.127.47:50010
081110 072447 7890 INFO dfs.DataNode$DataXceiver: 10.251.71.193:50010 Served block blk_4068574828995468868 to /10.251.71.193
081111 104040 27115 INFO dfs.DataNode$PacketResponder: PacketResponder 2 for block blk_8082888907234727967 terminating
081111 030443 18168 INFO dfs.DataNode$DataXceiver: Receiving block blk_7001855015256619614 src: /10.250.15.198:45729 dest: /10.250.15.198:50010
081111 071550 30 INFO dfs.FSNamesystem: BLOCK* NameSystem.addStoredBlock: blockMap updated: 10.251.201.204:50010 is added to blk_1769088353377781647 size 67108864
081110 145746 34 INFO dfs.FSNamesystem: BLOCK* NameSystem.allocateBlock: /user/root/sortrand2/_temporary/_task_200811101024_0003_r_000349_0/part-00349. blk_-8915123233040672605
081111 110430 26 INFO dfs.FSNamesystem: BLOCK* NameSystem.delete: blk_6772813516417576879 is added to invalidSet of 10.250.15.101:50010
081111 040723 34 INFO dfs.FSNamesystem: BLOCK* NameSystem.addStoredBlock: blockMap updated: 10.251.90.239:50010 is added to blk_-7242288599956598744 size 67108864
081110 115217 10578 INFO dfs.DataNode$PacketResponder: PacketResponder 2 for block blk_-6500619929415578199 terminating
081111 110538 19 INFO dfs.FSDataset: Deleting block blk_-9083992140754852931 file /mnt/hadoop/dfs/data/current/subdir48/blk_-9083992140754852931
081110 123125 28 INFO dfs.FSNamesystem: BLOCK* NameSystem.addStoredBlock: blockMap updated: 10.251.215.16:50010 is added to blk_611667186861934419 size 67108864
081111 094909 31 INFO dfs.FSNamesystem: BLOCK* NameSystem.addStoredBlock: blockMap updated: 10.251.30.179:50010 is added to blk_7973908366056438785 size 67108864
081110 145013 12558 INFO dfs.DataNode$PacketResponder: PacketResponder 0 for block blk_-7364810483156939322 terminating
081111 091823 25208 INFO dfs.DataNode$DataXceiver: Receiving block blk_-6256819888404209446 src: /10.251.39.64:49611 dest: /10.251.39.64:50010
081110 213800 27 INFO dfs.FSNamesystem: BLOCK* NameSystem.addStoredBlock: blockMap updated: 10.251.215.50:50010 is added to blk_-5220884319665619530 size 3533486
081111 075623 28 INFO dfs.FSNamesystem: BLOCK* NameSystem.delete: blk_4175251121255560037 is added to invalidSet of 10.251.123.1:50010
081110 231105 27 INFO dfs.FSNamesystem: BLOCK* NameSystem.allocateBlock: /user/root/randtxt3/_temporary/_task_200811101024_0007_m_002015_1/part-02015. blk_-5715785997304355673
081111 044332 29 INFO dfs.FSNamesystem: BLOCK* NameSystem.delete: blk_-4840375947753338890 is added to invalidSet of 10.250.19.227:50010
081111 045619 34 INFO dfs.FSNamesystem: BLOCK* NameSystem.addStoredBlock: blockMap updated: 10.251.111.228:50010 is added to blk_8936797617501511879 size 67108864
081111 100151 19 INFO dfs.FSDataset: Deleting block blk_-1280780805954800556 file /mnt/hadoop/dfs/data/current/subdir39/blk_-1280780805954800556
081110 210129 28 INFO dfs.FSNamesystem: BLOCK* NameSystem.delete: blk_5662715610718248690 is added to invalidSet of 10.251.107.196:50010
081110 144602 26 INFO dfs.FSNamesystem: BLOCK* NameSystem.addStoredBlock: blockMap updated: 10.251.126.83:50010 is added to blk_-1793716202349742420 size 67108864
081111 034728 18900 INFO dfs.DataNode$DataXceiver: Receiving block blk_8344967975239471828 src: /10.251.70.112:39742 dest: /10.251.70.112:50010
081110 083004 8441 WARN dfs.DataNode$DataXceiver: 10.251.90.239:50010:Got exception while serving blk_7088949315191095780 to /10.251.43.192:
081111 031005 18334 INFO dfs.DataNode$PacketResponder: Received block blk_6863641018121249391 of size 67108864 from /10.251.203.166
081110 103556 19 INFO dfs.FSDataset: Deleting block blk_596487319020947637 file /mnt/hadoop/dfs/data/current/subdir32/blk_596487319020947637
081111 081541 24384 INFO dfs.DataNode$DataXceiver: Receiving block blk_-6934136961920420840 src: /10.251.111.228:42050 dest: /10.251.111.228:50010
081110 220907 18 INFO dfs.FSDataset: Deleting block blk_581024956330789654 file /mnt/hadoop/dfs/data/current/subdir54/blk_581024956330789654
081111 044315 35 INFO dfs.FSNamesystem: BLOCK* NameSystem.delete: blk_3690255863549541307 is added to invalidSet of 10.251.110.8:50010
081110 150216 12842 INFO dfs.DataNode$PacketResponder: Received block blk_1252110280182202285 of size 67108864 from /10.250.17.177
081110 220647 32 INFO dfs.FSNamesystem: BLOCK* NameSystem.delete: blk_3316195335626936990 is added to invalidSet of 10.250.6.4:50010
081111 070317 22662 INFO dfs.DataNode$PacketResponder: PacketResponder 1 for block blk_205560021414054162 terminating
081111 070458 22790 INFO dfs.DataNode$DataTransfer: 10.251.31.160:50010:Transmitted block blk_-3685333860445539179 to /10.251.194.147:50010
081111 044349 29 INFO dfs.FSNamesystem: BLOCK* NameSystem.delete: blk_1606245921975266941 is added to invalidSet of 10.251.74.227:50010
081111 060943 21545 INFO dfs.DataNode$DataXceiver: Receiving block blk_-4878508975984260484 src: /10.251.195.33:51904 dest: /10.251.195.33:50010
081111 031331 28 INFO dfs.FSNamesystem: BLOCK* NameSystem.addStoredBlock: blockMap updated: 10.251.107.50:50010 is added to blk_-8543333069795267768 size 67108864
081110 211925 26 INFO dfs.FSNamesystem: BLOCK* NameSystem.allocateBlock: /user/root/rand3/_temporary/_task_200811101024_0005_m_000445_0/part-00445. blk_-4835823929473633310
081110 110806 33 INFO dfs.FSNamesystem: BLOCK* NameSystem.addStoredBlock: blockMap updated: 10.251.30.6:50010 is added to blk_-8701439881212773851 size 67108864
081110 104629 27 INFO dfs.FSNamesystem: BLOCK* NameSystem.addStoredBlock: blockMap updated: 10.251.106.10:50010 is added to blk_3680585456255420587 size 67108864
081110 144100 27 INFO dfs.FSNamesystem: BLOCK* NameSystem.addStoredBlock: blockMap updated: 10.251.91.15:50010 is added to blk_8044877994366007701 size 67108864
081111 075635 28 INFO dfs.FSNamesystem: BLOCK* NameSystem.delete: blk_-9198462381798478241 is added to invalidSet of 10.251.65.237:50010
081111 093006 25560 INFO dfs.DataNode$PacketResponder: PacketResponder 0 for block blk_8323467171804460454 terminating
081111 093411 25772 INFO dfs.DataNode$DataXceiver: Receiving block blk_-7487060698863976293 src: /10.251.38.197:32920 dest: /10.251.38.197:50010
081111 065213 26 INFO dfs.FSNamesystem: BLOCK* NameSystem.delete: blk_-3844479787727358291 is added to invalidSet of 10.250.10.100:50010
081110 210145 28 INFO dfs.FSNamesystem: BLOCK* NameSystem.delete: blk_-407161131497208572 is added to invalidSet of 10.251.203.246:50010
081111 080336 23740 INFO dfs.DataNode$DataXceiver: Receiving block blk_8685310044666782426 src: /10.251.125.237:60071 dest: /10.251.125.237:50010
081111 025139 31 INFO dfs.FSNamesystem: BLOCK* NameSystem.addStoredBlock: blockMap updated: 10.251.105.189:50010 is added to blk_8239647811737515837 size 67108864
081111 081134 27 INFO dfs.FSNamesystem: BLOCK* NameSystem.addStoredBlock: blockMap updated: 10.251.199.225:50010 is added to blk_1490290512382090357 size 67108864
081110 124749 11415 WARN dfs.DataNode$DataXceiver: 10.251.42.16:50010:Got exception while serving blk_-5203906890292036150 to /10.250.7.96:
081110 210155 28 INFO dfs.FSNamesystem: BLOCK* NameSystem.delete: blk_-4173717461902384999 is added to invalidSet of 10.251.66.192:50010
081110 103147 30 INFO dfs.FSNamesystem: BLOCK* NameSystem.delete: blk_-7776251833069051349 is added to invalidSet of 10.251.194.213:50010
081111 024446 18069 INFO dfs.DataNode$PacketResponder: Received block blk_-6951871373829119774 of size 67108864 from /10.250.6.4
081111 044321 35 INFO dfs.FSNamesystem: BLOCK* NameSystem.delete: blk_9037615507776759103 is added to invalidSet of 10.250.11.100:50010
081111 071618 23022 INFO dfs.DataNode$PacketResponder: PacketResponder 0 for block blk_-563260913002299215 terminating
081110 220655 32 INFO dfs.FSNamesystem: BLOCK* NameSystem.delete: blk_-2913128112406076190 is added to invalidSet of 10.251.71.193:50010
081111 031707 18521 INFO dfs.DataNode$PacketResponder: PacketResponder 0 for block blk_7494850714538905042 terminating
081111 053846 21218 INFO dfs.DataNode$DataXceiver: Receiving block blk_1248188380498160227 src: /10.250.11.53:47947 dest: /10.250.11.53:50010
081109 215603 3037 WARN dfs.DataNode$DataXceiver: 10.251.198.33:50010:Got exception while serving blk_8472429604052262138 to /10.251.65.237:
081111 105816 26901 INFO dfs.DataNode$PacketResponder: PacketResponder 0 for block blk_4871177979597389636 terminating
081111 044312 35 INFO dfs.FSNamesystem: BLOCK* NameSystem.delete: blk_5653115133182076232 is added to invalidSet of 10.251.111.209:50010
081111 095621 26010 INFO dfs.DataNode$DataXceiver: Receiving block blk_-6969348333556568832 src: /10.251.27.63:60088 dest: /10.251.27.63:50010
081110 120819 10626 INFO dfs.DataNode$PacketResponder: PacketResponder 1 for block blk_8301334070840597418 terminating
081110 214750 15512 INFO dfs.DataNode$DataXceiver: Receiving block blk_-1963587017098091612 src: /10.251.127.191:40228 dest: /10.251.127.191:50010
081111 104354 31 INFO dfs.FSNamesystem: BLOCK* NameSystem.addStoredBlock: blockMap updated: 10.251.194.245:50010 is added to blk_803853549131796489 size 67108864
081110 020311 6144 INFO dfs.DataNode$DataXceiver: Receiving block blk_577104533874069612 src: /10.250.10.144:34033 dest: /10.250.10.144:50010
081110 010829 5065 INFO dfs.DataNode$PacketResponder: PacketResponder 0 for block blk_-8193338952350576341 terminating
081111 075214 33 INFO dfs.FSNamesystem: BLOCK* NameSystem.allocateBlock: /user/root/rand6/_temporary/_task_200811101024_0013_m_002005_1/part-02005. blk_8469670466390218382
081111 110630 19 INFO dfs.FSDataset: Deleting block blk_5667302054607381948 file /mnt/hadoop/dfs/data/current/subdir10/blk_5667302054607381948
081110 115155 10497 INFO dfs.DataNode$DataXceiver: Receiving block blk_-8452309724127596183 src: /10.251.122.38:42938 dest: /10.251.122.38:50010
081110 214007 15194 INFO dfs.DataNode$PacketResponder: PacketResponder 1 for block blk_8298699795358159845 terminating
081111 050823 20767 INFO dfs.DataNode$PacketResponder: Received block blk_7231123080726556817 of size 3556140 from /10.251.194.102
081110 010859 5106 INFO dfs.DataNode$PacketResponder: Received block blk_-6328968728586165381 of size 67108864 from /10.250.17.225
081110 143720 12486 INFO dfs.DataNode$PacketResponder: PacketResponder 1 for block blk_2507791426053030505 terminating
081111 110624 18 INFO dfs.FSDataset: Deleting block blk_2563459321522619061 file /mnt/hadoop/dfs/data/current/subdir18/blk_2563459321522619061
081111 045250 20233 INFO dfs.DataNode$PacketResponder: Received block blk_3397705496806192671 of size 67108864 from /10.251.199.19
081110 083413 8281 INFO dfs.DataNode$DataXceiver: 10.251.42.9:50010 Served block blk_-166585474288137835 to /10.251.106.50
081110 103517 19 INFO dfs.FSDataset: Deleting block blk_-5496637514032004239 file /mnt/hadoop/dfs/data/current/subdir8/blk_-5496637514032004239
081111 073801 31 INFO dfs.FSNamesystem: BLOCK* NameSystem.addStoredBlock: blockMap updated: 10.251.109.209:50010 is added to blk_-8058284888090303883 size 67108864
081111 071804 23200 INFO dfs.DataNode$PacketResponder: PacketResponder 1 for block blk_-1874022086011296622 terminating
081111 044314 35 INFO dfs.FSNamesystem: BLOCK* NameSystem.delete: blk_-1093649020869826421 is added to invalidSet of 10.251.67.113:50010
081111 075836 23812 INFO dfs.DataNode$PacketResponder: PacketResponder 1 for block blk_-1869666003231268813 terminating
081111 065540 19 INFO dfs.FSDataset: Deleting block blk_8279826365278758313 file /mnt/hadoop/dfs/data/current/subdir16/blk_8279826365278758313
081111 075627 28 INFO dfs.FSNamesystem: BLOCK* NameSystem.delete: blk_4731746574165467494 is added to invalidSet of 10.251.193.224:50010
081111 105220 27253 INFO dfs.DataNode$DataXceiver: Receiving block blk_-9440734811802264 src: /10.250.15.198:44235 dest: /10.250.15.198:50010
081111 044627 19 INFO dfs.FSDataset: Deleting block blk_-7659837598568362478 file /mnt/hadoop/dfs/data/current/subdir4/blk_-7659837598568362478
081111 023027 27 INFO dfs.FSNamesystem: BLOCK* NameSystem.delete: blk_-8728496437082335668 is added to invalidSet of 10.251.214.67:50010
081110 114626 33 INFO dfs.FSNamesystem: BLOCK* NameSystem.addStoredBlock: blockMap updated: 10.251.107.227:50010 is added to blk_-8027769063081435188 size 67108864
081110 112706 27 INFO dfs.FSNamesystem: BLOCK* NameSystem.addStoredBlock: blockMap updated: 10.251.125.237:50010 is added to blk_-4525041624350210271 size 67108864
081111 090134 19 INFO dfs.FSDataset: Deleting block blk_82379762831016624 file /mnt/hadoop/dfs/data/current/subdir3/blk_82379762831016624
081110 210558 19 INFO dfs.FSDataset: Deleting block blk_3397358447392002143 file /mnt/hadoop/dfs/data/current/subdir1/blk_3397358447392002143
081111 065220 26 INFO dfs.FSNamesystem: BLOCK* NameSystem.delete: blk_-8694507469785698412 is added to invalidSet of 10.250.10.144:50010
081111 105942 27299 INFO dfs.DataNode$PacketResponder: PacketResponder 0 for block blk_-1096721248689609153 terminating
081110 211552 14902 INFO dfs.DataNode$DataXceiver: Receiving block blk_845400773634224920 src: /10.251.199.225:48609 dest: /10.251.199.225:50010
081109 204622 30 INFO dfs.FSNamesystem: BLOCK* NameSystem.addStoredBlock: blockMap updated: 10.250.10.176:50010 is added to blk_-3358272278004350222 size 67108864
081110 210552 19 INFO dfs.FSDataset: Deleting block blk_-6808394946625556604 file /mnt/hadoop/dfs/data/current/subdir30/blk_-6808394946625556604
081110 014448 5875 INFO dfs.DataNode$DataXceiver: Receiving block blk_6364380419692659204 src: /10.251.107.19:53018 dest: /10.251.107.19:50010
081111 093453 28 INFO dfs.FSNamesystem: BLOCK* NameSystem.allocateBlock: /user/root/rand8/_temporary/_task_200811101024_0015_m_001442_0/part-01442. blk_7893691304257376447
081110 210430 19 INFO dfs.FSDataset: Deleting block blk_-4091882911000021456 file /mnt/hadoop/dfs/data/current/subdir55/blk_-4091882911000021456
081110 103112 30 INFO dfs.FSNamesystem: BLOCK* NameSystem.delete: blk_3910750603501238240 is added to invalidSet of 10.250.6.214:50010
081110 122858 11393 INFO dfs.DataNode$DataXceiver: Receiving block blk_-149461042302036980 src: /10.251.123.20:37053 dest: /10.251.123.20:50010
081111 084449 24629 INFO dfs.DataNode$DataXceiver: Receiving block blk_-2697887672693953587 src: /10.251.26.131:54380 dest: /10.251.26.131:50010
081110 110352 30 INFO dfs.FSNamesystem: BLOCK* NameSystem.addStoredBlock: blockMap updated: 10.251.26.131:50010 is added to blk_6429939424480952576 size 67108864
081111 083225 24366 INFO dfs.DataNode$PacketResponder: PacketResponder 0 for block blk_-8426654901498644691 terminating
081110 011416 5071 INFO dfs.DataNode$DataXceiver: Receiving block blk_3384758479881867198 src: /10.251.30.134:43265 dest: /10.251.30.134:50010
081110 010546 5131 INFO dfs.DataNode$DataXceiver: Receiving block blk_-1501734481187673819 src: /10.251.126.22:35009 dest: /10.251.126.22:50010
081111 103634 30 INFO dfs.FSNamesystem: BLOCK* NameSystem.allocateBlock: /user/root/randtxt9/_temporary/_task_200811101024_0016_m_001259_0/part-01259. blk_5980589388894388648
081111 110706 19 INFO dfs.FSDataset: Deleting block blk_7450303787897949961 file /mnt/hadoop/dfs/data/current/subdir33/blk_7450303787897949961
081109 204346 421 INFO dfs.DataNode$PacketResponder: PacketResponder 2 for block blk_4779773048451916011 terminating
081110 124219 11251 INFO dfs.DataNode$DataXceiver: 10.251.42.207:50010 Served block blk_81265943090085168 to /10.251.197.161
081110 103439 19 INFO dfs.FSDataset: Deleting block blk_-7765831861726822522 file /mnt/hadoop/dfs/data/current/subdir18/blk_-7765831861726822522
081111 085926 27 INFO dfs.FSNamesystem: BLOCK* NameSystem.delete: blk_-7512816483743587862 is added to invalidSet of 10.250.15.240:50010
081110 210128 28 INFO dfs.FSNamesystem: BLOCK* NameSystem.delete: blk_-7964535333087887649 is added to invalidSet of 10.250.11.85:50010
081110 131625 11473 INFO dfs.DataNode$DataXceiver: 10.251.109.236:50010 Served block blk_2415554570005537128 to /10.251.215.70
081110 214004 15077 INFO dfs.DataNode$DataXceiver: Receiving block blk_-8290917108161396724 src: /10.250.15.67:33986 dest: /10.250.15.67:50010
081110 103115 30 INFO dfs.FSNamesystem: BLOCK* NameSystem.delete: blk_5253240233981806150 is added to invalidSet of 10.250.10.6:50010
081110 114237 10346 INFO dfs.DataNode$DataXceiver: Receiving block blk_-3337172841149019482 src: /10.251.106.214:48130 dest: /10.251.106.214:50010
081110 015139 5995 INFO dfs.DataNode$PacketResponder: Received block blk_-8861232614556444339 of size 28497502 from /10.251.110.196
081110 201215 14242 INFO dfs.DataNode$DataXceiver: 10.251.195.52:50010 Served block blk_-785642518462516252 to /10.251.195.52
081110 150244 12985 INFO dfs.DataNode$DataXceiver: Receiving block blk_-4351435982879329422 src: /10.251.214.112:57051 dest: /10.251.214.112:50010
081111 043025 19787 INFO dfs.DataNode$DataXceiver: Receiving block blk_-4068913179233269901 src: /10.250.17.177:49724 dest: /10.250.17.177:50010
081110 210548 19 INFO dfs.FSDataset: Deleting block blk_3633000929937732093 file /mnt/hadoop/dfs/data/current/subdir52/blk_3633000929937732093
081109 233037 3833 INFO dfs.DataNode$PacketResponder: PacketResponder 2 for block blk_-4173841320151501496 terminating
081111 102623 26403 INFO dfs.DataNode$DataXceiver: Receiving block blk_4685826651484664 src: /10.251.109.236:50782 dest: /10.251.109.236:50010
081110 214852 15453 INFO dfs.DataNode$PacketResponder: PacketResponder 2 for block blk_-5924573889425470092 terminating
081111 065227 19 INFO dfs.FSDataset: Deleting block blk_-2030244350883920427 file /mnt/hadoop/dfs/data/current/subdir31/blk_-2030244350883920427
081110 123459 11257 INFO dfs.DataNode$PacketResponder: PacketResponder 2 for block blk_6129624089541406460 terminating
081111 085923 27 INFO dfs.FSNamesystem: BLOCK* NameSystem.delete: blk_-7945464148689752097 is added to invalidSet of 10.251.111.80:50010
081110 103115 30 INFO dfs.FSNamesystem: BLOCK* NameSystem.delete: blk_6407318421042240720 is added to invalidSet of 10.251.70.112:50010
081110 143544 31 INFO dfs.FSNamesystem: BLOCK* NameSystem.addStoredBlock: blockMap updated: 10.251.26.131:50010 is added to blk_-4286628511840816270 size 67108864
081110 120217 33 INFO dfs.FSNamesystem: BLOCK* NameSystem.addStoredBlock: blockMap updated: 10.251.67.113:50010 is added to blk_-8575764109461501214 size 67108864
081111 075616 28 INFO dfs.FSNamesystem: BLOCK* NameSystem.delete: blk_-240076505623734131 is added to invalidSet of 10.250.11.85:50010
081110 015906 6024 INFO dfs.DataNode$PacketResponder: PacketResponder 0 for block blk_-733730163186650237 terminating
081111 072013 30 INFO dfs.FSNamesystem: BLOCK* NameSystem.addStoredBlock: blockMap updated: 10.251.66.102:50010 is added to blk_-8605740301088322196 size 67108864
081111 023023 27 INFO dfs.FSNamesystem: BLOCK* NameSystem.delete: blk_-1580926540935401940 is added to invalidSet of 10.251.122.38:50010
081110 223531 15871 INFO dfs.DataNode$DataXceiver: Receiving block blk_4991527703319340977 src: /10.251.30.101:47258 dest: /10.251.30.101:50010
081110 220729 19 INFO dfs.FSDataset: Deleting block blk_-8406108001550933358 file /mnt/hadoop/dfs/data/current/subdir61/blk_-8406108001550933358
081111 054728 35 INFO dfs.FSNamesystem: BLOCK* NameSystem.delete: blk_-5807457560003740872 is added to invalidSet of 10.251.123.20:50010
081110 224339 16551 INFO dfs.DataNode$PacketResponder: PacketResponder 1 for block blk_-7481752216713980788 terminating
081110 143805 12595 INFO dfs.DataNode$PacketResponder: Received block blk_6879463792625088475 of size 67108864 from /10.251.39.144
081111 023027 27 INFO dfs.FSNamesystem: BLOCK* NameSystem.delete: blk_-2421323130473696014 is added to invalidSet of 10.251.65.203:50010
081111 093243 25628 INFO dfs.DataNode$PacketResponder: PacketResponder 1 for block blk_-1914456115792010723 terminating
081109 205437 32 INFO dfs.FSNamesystem: BLOCK* NameSystem.addStoredBlock: blockMap updated: 10.251.30.179:50010 is added to blk_176392169229734343 size 67108864
081111 075842 19 INFO dfs.FSDataset: Deleting block blk_-2502335208256361651 file /mnt/hadoop/dfs/data/current/subdir28/blk_-2502335208256361651
081111 040825 29 INFO dfs.FSNamesystem: BLOCK* NameSystem.addStoredBlock: blockMap updated: 10.251.65.237:50010 is added to blk_-7193320872278981577 size 67108864
081111 053533 21280 INFO dfs.DataNode$PacketResponder: PacketResponder 2 for block blk_8372497050229483066 terminating
081110 230655 16896 INFO dfs.DataNode$DataXceiver: Receiving block blk_4747208061353066996 src: /10.251.35.1:50133 dest: /10.251.35.1:50010
081109 213854 2551 WARN dfs.DataNode$DataXceiver: 10.251.30.179:50010:Got exception while serving blk_1998424538687454859 to /10.251.30.179:
081110 220642 32 INFO dfs.FSNamesystem: BLOCK* NameSystem.delete: blk_-7202716321322086861 is added to invalidSet of 10.251.214.67:50010
081109 210210 1117 INFO dfs.DataNode$PacketResponder: PacketResponder 0 for block blk_-429125102494766302 terminating
081110 121149 10738 INFO dfs.DataNode$PacketResponder: Received block blk_-195675144173237560 of size 67108864 from /10.250.17.177
081110 210546 19 INFO dfs.FSDataset: Deleting block blk_1415572448172505949 file /mnt/hadoop/dfs/data/current/subdir1/blk_1415572448172505949
081110 220656 32 INFO dfs.FSNamesystem: BLOCK* NameSystem.delete: blk_173741787916130367 is added to invalidSet of 10.251.90.134:50010
081111 070112 31 INFO dfs.FSNamesystem: BLOCK* NameSystem.allocateBlock: /user/root/rand6/_temporary/_task_200811101024_0013_m_000014_0/part-00014. blk_-3568060367627310334
081110 210848 32 INFO dfs.FSNamesystem: BLOCK* NameSystem.allocateBlock: /user/root/rand3/_temporary/_task_200811101024_0005_m_000042_0/part-00042. blk_-1699144730517574804
081111 094013 26 INFO dfs.FSNamesystem: BLOCK* NameSystem.addStoredBlock: blockMap updated: 10.251.39.192:50010 is added to blk_-1474117578410485891 size 67108864
081110 103040 34 INFO dfs.FSNamesystem: BLOCK* NameSystem.delete: blk_1199800246353457100 is added to invalidSet of 10.251.126.255:50010
081110 094732 8818 INFO dfs.DataNode$DataXceiver: 10.251.31.180:50010 Served block blk_8820272782449594915 to /10.251.31.180
081111 042619 19628 INFO dfs.DataNode$PacketResponder: PacketResponder 1 for block blk_-8036050748568987849 terminating
081111 034349 18978 INFO dfs.DataNode$DataXceiver: Receiving block blk_-7701419879670124032 src: /10.251.30.6:35451 dest: /10.251.30.6:50010
081110 103407 18 INFO dfs.FSDataset: Deleting block blk_-5567105725288381886 file /mnt/hadoop/dfs/data/current/subdir30/blk_-5567105725288381886
081111 045738 20390 INFO dfs.DataNode$PacketResponder: PacketResponder 2 for block blk_6955083801410465429 terminating
081110 103617 18 INFO dfs.FSDataset: Deleting block blk_4557094342929293556 file /mnt/hadoop/dfs/data/current/subdir50/blk_4557094342929293556
081110 214501 15262 INFO dfs.DataNode$PacketResponder: PacketResponder 2 for block blk_-4171318128099251376 terminating
081110 103340 19 INFO dfs.FSDataset: Deleting block blk_-8457864884249634995 file /mnt/hadoop/dfs/data/current/subdir27/blk_-8457864884249634995
081111 044659 19 INFO dfs.FSDataset: Deleting block blk_-3954559026442023556 file /mnt/hadoop/dfs/data/current/subdir39/blk_-3954559026442023556
081110 001514 26 INFO dfs.FSNamesystem: BLOCK* NameSystem.addStoredBlock: blockMap updated: 10.251.123.1:50010 is added to blk_4778530059657225804 size 67108864
081111 090350 25248 INFO dfs.DataNode$PacketResponder: Received block blk_1688410181453959810 of size 67108864 from /10.251.71.240
081110 215044 15688 INFO dfs.DataNode$DataXceiver: Receiving block blk_3331586483663597741 src: /10.251.111.228:59040 dest: /10.251.111.228:50010
081111 044338 29 INFO dfs.FSNamesystem: BLOCK* NameSystem.delete: blk_-5619732271746017858 is added to invalidSet of 10.250.15.240:50010
081111 110541 19 INFO dfs.FSDataset: Deleting block blk_-1413000639487541764 file /mnt/hadoop/dfs/data/current/subdir36/blk_-1413000639487541764
081111 095645 26 INFO dfs.FSNamesystem: BLOCK* NameSystem.addStoredBlock: blockMap updated: 10.251.67.225:50010 is added to blk_3487764887227316466 size 67108864
081111 032407 18466 INFO dfs.DataNode$PacketResponder: Received block blk_7290765316595602918 of size 67108864 from /10.251.73.220
081111 085617 33 INFO dfs.FSNamesystem: BLOCK* NameSystem.addStoredBlock: blockMap updated: 10.251.30.101:50010 is added to blk_-1873868584716260894 size 67108864
081111 075008 23582 INFO dfs.DataNode$PacketResponder: PacketResponder 1 for block blk_-3417438362373767903 terminating
081110 213325 15230 INFO dfs.DataNode$PacketResponder: Received block blk_-6331323669670005163 of size 67108864 from /10.251.122.79
081110 215200 15482 INFO dfs.DataNode$PacketResponder: PacketResponder 2 for block blk_2376145344645252919 terminating
081111 023241 19 INFO dfs.FSDataset: Deleting block blk_-890649857945662251 file /mnt/hadoop/dfs/data/current/subdir31/blk_-890649857945662251
081111 104033 26747 INFO dfs.DataNode$PacketResponder: Received block blk_3100252565028394439 of size 67108864 from /10.251.35.1
081111 094443 25650 INFO dfs.DataNode$PacketResponder: Received block blk_6566302998865125451 of size 3554826 from /10.251.110.68
081111 044317 35 INFO dfs.FSNamesystem: BLOCK* NameSystem.delete: blk_-4449425773836053227 is added to invalidSet of 10.251.66.192:50010
081111 092313 30 INFO dfs.FSNamesystem: BLOCK* NameSystem.addStoredBlock: blockMap updated: 10.251.125.174:50010 is added to blk_9057060821111958076 size 67108864
081110 103608 19 INFO dfs.FSDataset: Deleting block blk_1749337396314226335 file /mnt/hadoop/dfs/data/current/subdir38/blk_1749337396314226335
081110 103455 19 INFO dfs.FSDataset: Deleting block blk_-7820462713806241348 file /mnt/hadoop/dfs/data/current/subdir47/blk_-7820462713806241348
081110 103842 19 INFO dfs.FSDataset: Deleting block blk_9052302699336643009 file /mnt/hadoop/dfs/data/current/subdir41/blk_9052302699336643009
081110 003244 4916 INFO dfs.DataNode$DataXceiver: Receiving block blk_-8080931307426145918 src: /10.251.122.79:47480 dest: /10.251.122.79:50010
081110 144058 12647 INFO dfs.DataNode$DataXceiver: Receiving block blk_-6189025811340048951 src: /10.251.30.101:48269 dest: /10.251.30.101:50010
081111 044525 19 INFO dfs.FSDataset: Deleting block blk_-9148085518610072309 file /mnt/hadoop/dfs/data/current/subdir31/blk_-9148085518610072309
081109 212142 1881 INFO dfs.DataNode$DataXceiver: Receiving block blk_7263879479649495720 src: /10.251.31.180:55170 dest: /10.251.31.180:50010
081111 044950 18 INFO dfs.FSDataset: Deleting block blk_5312626455100250054 file /mnt/hadoop/dfs/data/current/subdir6/blk_5312626455100250054
081110 103514 19 INFO dfs.FSDataset: Deleting block blk_1822918355779770258 file /mnt/hadoop/dfs/data/current/subdir15/blk_1822918355779770258
081111 025757 18167 INFO dfs.DataNode$PacketResponder: Received block blk_-6469369950893942588 of size 67108864 from /10.250.7.96
081111 044336 29 INFO dfs.FSNamesystem: BLOCK* NameSystem.delete: blk_851290737549636806 is added to invalidSet of 10.250.10.223:50010
081110 103042 34 INFO dfs.FSNamesystem: BLOCK* NameSystem.delete: blk_-4945861688072568545 is added to invalidSet of 10.250.11.194:50010
081109 205504 866 INFO dfs.DataNode$PacketResponder: PacketResponder 1 for block blk_765817383157003380 terminating
081110 212339 14610 INFO dfs.DataNode$DataXceiver: Receiving block blk_5541538773931177892 src: /10.250.15.198:41192 dest: /10.250.15.198:50010
081111 055525 20334 INFO dfs.DataNode$PacketResponder: Received block blk_-365201899975155206 of size 67108864 from /10.250.14.143
081110 123227 11233 INFO dfs.DataNode$PacketResponder: Received block blk_-3216835470897933986 of size 67108864 from /10.251.26.177
081110 210421 19 INFO dfs.FSDataset: Deleting block blk_-8024691283313618608 file /mnt/hadoop/dfs/data/current/subdir63/blk_-8024691283313618608
081110 000027 4386 INFO dfs.DataNode$PacketResponder: PacketResponder 1 for block blk_-3610931391164408536 terminating
081111 110428 26 INFO dfs.FSNamesystem: BLOCK* NameSystem.delete: blk_-2339059062056005168 is added to invalidSet of 10.251.106.214:50010
081110 210747 33 INFO dfs.FSNamesystem: BLOCK* NameSystem.allocateBlock: /user/root/rand3/_temporary/_task_200811101024_0005_m_000184_0/part-00184. blk_-1347047767200395259
081111 105611 27402 INFO dfs.DataNode$PacketResponder: Received block blk_-1261812917565882573 of size 67108864 from /10.251.125.174
081110 105844 9515 INFO dfs.DataNode$PacketResponder: Received block blk_-6950398535968588882 of size 3539538 from /10.251.214.130
081110 103045 34 INFO dfs.FSNamesystem: BLOCK* NameSystem.delete: blk_1618258271868295804 is added to invalidSet of 10.251.127.243:50010
081111 023254 18 INFO dfs.FSDataset: Deleting block blk_7770196911542457764 file /mnt/hadoop/dfs/data/current/subdir38/blk_7770196911542457764
081111 084526 24665 INFO dfs.DataNode$PacketResponder: PacketResponder 1 for block blk_4926892509630772449 terminating
081110 144737 12690 INFO dfs.DataNode$PacketResponder: PacketResponder 1 for block blk_-7238314950996243437 terminating
081111 095819 27 INFO dfs.FSNamesystem: BLOCK* NameSystem.addStoredBlock: blockMap updated: 10.251.110.160:50010 is added to blk_1043785878660558300 size 67108864
081111 050525 20490 INFO dfs.DataNode$PacketResponder: Received block blk_-5288331051665432550 of size 67108864 from /10.251.197.226
081110 103135 30 INFO dfs.FSNamesystem: BLOCK* NameSystem.delete: blk_-3896248045144499345 is added to invalidSet of 10.251.215.16:50010
081111 055505 31 INFO dfs.FSNamesystem: BLOCK* NameSystem.allocateBlock: /user/root/randtxt5/_temporary/_task_200811101024_0012_m_000301_0/part-00301. blk_8753239385096710930
081110 210420 19 INFO dfs.FSDataset: Deleting block blk_-7766506447971879944 file /mnt/hadoop/dfs/data/current/subdir33/blk_-7766506447971879944
081110 220656 32 INFO dfs.FSNamesystem: BLOCK* NameSystem.delete: blk_8363425153511875911 is added to invalidSet of 10.251.214.130:50010
081110 230659 16703 INFO dfs.DataNode$PacketResponder: PacketResponder 1 for block blk_-6709437292761096109 terminating
081110 213823 15059 INFO dfs.DataNode$PacketResponder: Received block blk_-7857249417259349503 of size 67108864 from /10.251.109.209
081111 034945 35 INFO dfs.FSNamesystem: BLOCK* NameSystem.allocateBlock: /user/root/randtxt4/_temporary/_task_200811101024_0010_m_000386_0/part-00386. blk_-8229936982866338950
081110 110245 33 INFO dfs.FSNamesystem: BLOCK* NameSystem.addStoredBlock: blockMap updated: 10.251.123.132:50010 is added to blk_5036465015308914643 size 67108864
081111 073613 23485 INFO dfs.DataNode$DataXceiver: Receiving block blk_5179329421470034225 src: /10.251.38.197:49817 dest: /10.251.38.197:50010
081110 103049 34 INFO dfs.FSNamesystem: BLOCK* NameSystem.delete: blk_3647159143236054561 is added to invalidSet of 10.251.125.237:50010
081110 111117 9737 INFO dfs.DataNode$PacketResponder: PacketResponder 1 for block blk_3062582921282696390 terminating
081111 065326 17093 INFO dfs.DataNode$PacketResponder: PacketResponder 1 for block blk_-3550263358106102039 terminating
081110 210152 28 INFO dfs.FSNamesystem: BLOCK* NameSystem.delete: blk_-8921296664010888425 is added to invalidSet of 10.251.193.224:50010
081110 173859 13509 INFO dfs.DataNode$DataXceiver: 10.251.202.181:50010 Served block blk_-8497635132999013309 to /10.251.70.112
081109 204904 729 INFO dfs.DataNode$DataXceiver: Receiving block blk_9176165650198046 src: /10.251.215.16:56855 dest: /10.251.215.16:50010
081111 075632 28 INFO dfs.FSNamesystem: BLOCK* NameSystem.delete: blk_-3994891547987277890 is added to invalidSet of 10.250.5.161:50010
081111 024827 18026 INFO dfs.DataNode$PacketResponder: PacketResponder 2 for block blk_4646291363932385440 terminating
081110 103705 19 INFO dfs.FSDataset: Deleting block blk_4696921687361013595 file /mnt/hadoop/dfs/data/current/subdir27/blk_4696921687361013595
081110 110414 30 INFO dfs.FSNamesystem: BLOCK* NameSystem.addStoredBlock: blockMap updated: 10.251.107.227:50010 is added to blk_4254100080306198044 size 67108864
081110 210142 28 INFO dfs.FSNamesystem: BLOCK* NameSystem.delete: blk_-9046652289835927158 is added to invalidSet of 10.250.6.214:50010
081111 063903 33 INFO dfs.FSNamesystem: BLOCK* NameSystem.addStoredBlock: blockMap updated: 10.251.109.236:50010 is added to blk_1127215176246088172 size 67108864
081111 110445 26 INFO dfs.FSNamesystem: BLOCK* NameSystem.delete: blk_2893988490026241591 is added to invalidSet of 10.251.30.134:50010
081110 093145 8838 WARN dfs.DataNode$DataXceiver: 10.251.194.213:50010:Got exception while serving blk_303796772062173938 to /10.251.73.220:
081110 041356 6711 INFO dfs.DataNode$DataXceiver: 10.251.71.16:50010 Served block blk_89894711062783792 to /10.251.71.16
081110 103735 19 INFO dfs.FSDataset: Deleting block blk_8157007602552620601 file /mnt/hadoop/dfs/data/current/blk_8157007602552620601
081110 210551 19 INFO dfs.FSDataset: Deleting block blk_19616912384586362 file /mnt/hadoop/dfs/data/current/blk_19616912384586362
081111 062150 22183 INFO dfs.DataNode$PacketResponder: PacketResponder 0 for block blk_-532319657126032595 terminating
081111 052900 20984 INFO dfs.DataNode$PacketResponder: PacketResponder 1 for block blk_2734629682806593867 terminating
081110 114724 26 INFO dfs.FSNamesystem: BLOCK* NameSystem.allocateBlock: /user/root/randtxt2/_temporary/_task_200811101024_0002_m_000081_0/part-00081. blk_6453407391357998313
081110 071345 13 INFO dfs.DataBlockScanner: Verification succeeded for blk_1501991124423527417
081111 044730 19 INFO dfs.FSDataset: Deleting block blk_-719932202170205439 file /mnt/hadoop/dfs/data/current/subdir37/blk_-719932202170205439
081111 081416 24051 INFO dfs.DataNode$PacketResponder: PacketResponder 1 for block blk_-4498654969488440661 terminating
081110 210142 28 INFO dfs.FSNamesystem: BLOCK* NameSystem.delete: blk_-5216021839363123724 is added to invalidSet of 10.251.203.129:50010
081110 220643 32 INFO dfs.FSNamesystem: BLOCK* NameSystem.delete: blk_8504718560241843776 is added to invalidSet of 10.251.199.19:50010
081110 210508 19 INFO dfs.FSDataset: Deleting block blk_-5088911354103330515 file /mnt/hadoop/dfs/data/current/subdir29/blk_-5088911354103330515
081110 015318 35 INFO dfs.FSNamesystem: BLOCK* NameSystem.addStoredBlock: blockMap updated: 10.251.42.191:50010 is added to blk_-4105217173395715942 size 67108864
081111 055922 30 INFO dfs.FSNamesystem: BLOCK* NameSystem.allocateBlock: /user/root/randtxt5/_temporary/_task_200811101024_0012_m_000359_0/part-00359. blk_8972252396512251395
081110 225131 16885 INFO dfs.DataNode$DataXceiver: Receiving block blk_-9108225724601085108 src: /10.251.91.84:38230 dest: /10.251.91.84:50010
081111 110620 19 INFO dfs.FSDataset: Deleting block blk_2594423179068382228 file /mnt/hadoop/dfs/data/current/subdir13/blk_2594423179068382228
081110 210442 14637 INFO dfs.DataNode$PacketResponder: Received block blk_-3246147607575912768 of size 67108864 from /10.251.43.147
081111 030642 29 INFO dfs.FSNamesystem: BLOCK* NameSystem.allocateBlock: /user/root/rand4/_temporary/_task_200811101024_0009_m_001257_0/part-01257. blk_1461677972156317637
081110 015421 6043 INFO dfs.DataNode$PacketResponder: Received block blk_1802775900234064968 of size 67108864 from /10.251.123.99
081111 082124 24249 INFO dfs.DataNode$PacketResponder: Received block blk_-5308256200559683990 of size 67108864 from /10.251.90.239
081110 212707 11541 INFO dfs.DataNode$DataXceiver: Receiving block blk_106295025138834782 src: /10.251.26.131:43982 dest: /10.251.26.131:50010
081110 224208 16409 INFO dfs.DataNode$PacketResponder: PacketResponder 1 for block blk_-6567386364989253918 terminating
081110 144313 12299 INFO dfs.DataNode$DataXceiver: Receiving block blk_-1149433508624033292 src: /10.250.5.161:41113 dest: /10.250.5.161:50010
081110 015528 6112 INFO dfs.DataNode$PacketResponder: PacketResponder 0 for block blk_4037202201748073859 terminating
081111 050331 34 INFO dfs.FSNamesystem: BLOCK* NameSystem.addStoredBlock: blockMap updated: 10.251.123.99:50010 is added to blk_4973754195382600654 size 67108864
081111 034735 19084 INFO dfs.DataNode$PacketResponder: Received block blk_4876553476077682018 of size 67108864 from /10.251.214.18
081111 075640 28 INFO dfs.FSNamesystem: BLOCK* NameSystem.delete: blk_5921613642200722397 is added to invalidSet of 10.251.194.102:50010
081110 212759 14834 INFO dfs.DataNode$PacketResponder: Received block blk_-6795768109858792504 of size 67108864 from /10.250.6.214
081111 091452 25008 INFO dfs.DataNode$DataXceiver: Receiving block blk_-3843822178282822266 src: /10.250.11.85:57271 dest: /10.250.11.85:50010
081111 090017 24951 INFO dfs.DataNode$DataXceiver: Receiving block blk_6392572653310620254 src: /10.251.199.19:46570 dest: /10.251.199.19:50010
081110 082537 8219 INFO dfs.DataNode$DataXceiver: 10.251.42.207:50010 Served block blk_2833096780229459183 to /10.251.110.8
081111 085930 19 INFO dfs.FSDataset: Deleting block blk_-1175810824885873366 file /mnt/hadoop/dfs/data/current/subdir7/blk_-1175810824885873366
081111 033146 18869 INFO dfs.DataNode$DataXceiver: Receiving block blk_-3080604543728155147 src: /10.250.9.207:58856 dest: /10.250.9.207:50010
081111 065413 19 INFO dfs.FSDataset: Deleting block blk_-1669775367923572478 file /mnt/hadoop/dfs/data/current/subdir49/blk_-1669775367923572478
081110 080941 8059 INFO dfs.DataNode$DataXceiver: 10.251.121.224:50010 Served block blk_-1068200719117909048 to /10.250.7.146
081110 124055 35 INFO dfs.FSNamesystem: BLOCK* NameSystem.delete: blk_-5551481706066336159 is added to invalidSet of 10.251.43.210:50010
081110 103037 34 INFO dfs.FSNamesystem: BLOCK* NameSystem.delete: blk_-6083350812840832071 is added to invalidSet of 10.251.215.70:50010
081111 044529 20185 INFO dfs.DataNode$PacketResponder: Received block blk_-4052837474172319981 of size 67108864 from /10.250.7.146
081111 110010 27408 INFO dfs.DataNode$PacketResponder: PacketResponder 2 for block blk_-1541399367821654987 terminating
081111 054053 21149 INFO dfs.DataNode$DataXceiver: Receiving block blk_6781769974589237800 src: /10.251.26.131:46569 dest: /10.251.26.131:50010
081111 063543 21976 INFO dfs.DataNode$PacketResponder: Received block blk_-8809477353367789895 of size 67108864 from /10.251.107.227
081110 123239 11258 INFO dfs.DataNode$PacketResponder: Received block blk_-1565635592206803321 of size 67108864 from /10.251.126.227
081110 210156 28 INFO dfs.FSNamesystem: BLOCK* NameSystem.delete: blk_1081711150306338407 is added to invalidSet of 10.250.15.198:50010
081111 091740 25346 INFO dfs.DataNode$PacketResponder: PacketResponder 0 for block blk_-2782961897667751166 terminating
081110 114849 10381 INFO dfs.DataNode$DataXceiver: Receiving block blk_6343254721386895905 src: /10.251.107.196:37554 dest: /10.251.107.196:50010
081110 210150 28 INFO dfs.FSNamesystem: BLOCK* NameSystem.delete: blk_2757015466457318322 is added to invalidSet of 10.251.195.33:50010
081110 103708 19 INFO dfs.FSDataset: Deleting block blk_3168384545666552345 file /mnt/hadoop/dfs/data/current/subdir38/blk_3168384545666552345
081111 105942 27390 INFO dfs.DataNode$PacketResponder: Received block blk_-534330453553046016 of size 67108864 from /10.251.203.129
081110 220910 19 INFO dfs.FSDataset: Deleting block blk_-791744182457219047 file /mnt/hadoop/dfs/data/current/subdir1/blk_-791744182457219047
081110 112711 34 INFO dfs.FSNamesystem: BLOCK* NameSystem.addStoredBlock: blockMap updated: 10.251.67.211:50010 is added to blk_41290053465517145 size 67108864
081109 235549 35 INFO dfs.FSNamesystem: BLOCK* NameSystem.addStoredBlock: blockMap updated: 10.251.199.19:50010 is added to blk_6047624746757077341 size 67108864
081109 212833 2108 INFO dfs.DataNode$PacketResponder: Received block blk_4826645495830582481 of size 67108864 from /10.250.15.198
081110 104610 9395 INFO dfs.DataNode$DataXceiver: Receiving block blk_-9002894287618937158 src: /10.250.11.85:45650 dest: /10.250.11.85:50010
081111 090611 35 INFO dfs.FSNamesystem: BLOCK* NameSystem.addStoredBlock: blockMap updated: 10.250.10.100:50010 is added to blk_1707438578931734648 size 67108864
081109 235233 4383 INFO dfs.DataNode$DataXceiver: Receiving block blk_8344099716636321183 src: /10.251.67.4:35515 dest: /10.251.67.4:50010
081110 151143 12649 INFO dfs.DataNode$PacketResponder: Received block blk_197395232089763573 of size 23085000 from /10.250.13.188
081110 222653 16405 INFO dfs.DataNode$DataXceiver: Receiving block blk_-1073324348459119360 src: /10.251.123.20:59552 dest: /10.251.123.20:50010
081110 150057 12877 INFO dfs.DataNode$PacketResponder: PacketResponder 2 for block blk_6235030237558410800 terminating
081111 054534 21209 INFO dfs.DataNode$PacketResponder: PacketResponder 1 for block blk_-1968303085402206339 terminating
081110 103947 19 INFO dfs.FSDataset: Deleting block blk_7275887187030889164 file /mnt/hadoop/dfs/data/current/subdir47/blk_7275887187030889164
081110 003542 34 INFO dfs.FSNamesystem: BLOCK* NameSystem.addStoredBlock: blockMap updated: 10.251.106.10:50010 is added to blk_-140839372694771411 size 67108864
081111 034243 28 INFO dfs.FSNamesystem: BLOCK* NameSystem.addStoredBlock: blockMap updated: 10.250.10.6:50010 is added to blk_2572034367341398718 size 67108864
081111 092504 25511 INFO dfs.DataNode$PacketResponder: Received block blk_-5081157243277388208 of size 67108864 from /10.251.71.97
081110 110938 9774 INFO dfs.DataNode$PacketResponder: PacketResponder 2 for block blk_-3229243759084608597 terminating
081110 082110 8271 INFO dfs.DataNode$DataXceiver: 10.251.199.245:50010 Served block blk_-2363423248970996283 to /10.251.199.245
081111 082435 30 INFO dfs.FSNamesystem: BLOCK* NameSystem.addStoredBlock: blockMap updated: 10.251.127.243:50010 is added to blk_-1818387692074209227 size 67108864
081110 105845 30 INFO dfs.FSNamesystem: BLOCK* NameSystem.allocateBlock: /user/root/rand/_temporary/_task_200811101024_0001_m_000890_0/part-00890. blk_3590137231705943906
081110 112146 31 INFO dfs.FSNamesystem: BLOCK* NameSystem.addStoredBlock: blockMap updated: 10.250.15.101:50010 is added to blk_3589798089030015051 size 67108864
081110 214630 15477 INFO dfs.DataNode$DataXceiver: Receiving block blk_-1207795962945369239 src: /10.251.126.83:57675 dest: /10.251.126.83:50010
081111 043905 27 INFO dfs.FSNamesystem: BLOCK* NameSystem.allocateBlock: /user/root/randtxt4/_temporary/_task_200811101024_0010_m_002013_0/part-02013. blk_7783620917372916588
081110 212157 14744 INFO dfs.DataNode$PacketResponder: PacketResponder 0 for block blk_-4304973112347619534 terminating
081110 013024 5425 INFO dfs.DataNode$PacketResponder: Received block blk_-5640520657841288406 of size 67108864 from /10.250.10.223
081111 081922 24029 INFO dfs.DataNode$PacketResponder: Received block blk_1795117408556314154 of size 67108864 from /10.251.195.52
081111 044807 19 INFO dfs.FSDataset: Deleting block blk_-3351050921382331789 file /mnt/hadoop/dfs/data/current/blk_-3351050921382331789
081111 074254 23155 INFO dfs.DataNode$PacketResponder: PacketResponder 1 for block blk_-8681097854867598216 terminating
081111 064439 22504 INFO dfs.DataNode$DataXceiver: Receiving block blk_4881504950048671234 src: /10.251.215.192:56162 dest: /10.251.215.192:50010
081110 145922 12586 INFO dfs.DataNode$PacketResponder: PacketResponder 0 for block blk_3287651266960180595 terminating
081111 023256 19 INFO dfs.FSDataset: Deleting block blk_6634445750614767618 file /mnt/hadoop/dfs/data/current/subdir5/blk_6634445750614767618
081110 213713 15277 INFO dfs.DataNode$DataXceiver: Receiving block blk_-574740312763984119 src: /10.251.199.245:48858 dest: /10.251.199.245:50010
081110 103141 30 INFO dfs.FSNamesystem: BLOCK* NameSystem.delete: blk_-7296822778445897204 is added to invalidSet of 10.251.106.10:50010
081111 101349 26590 INFO dfs.DataNode$PacketResponder: PacketResponder 1 for block blk_6442468940894462017 terminating
081110 143606 34 INFO dfs.FSNamesystem: BLOCK* NameSystem.addStoredBlock: blockMap updated: 10.251.195.33:50010 is added to blk_2232634455240115350 size 67108864
081111 023035 27 INFO dfs.FSNamesystem: BLOCK* NameSystem.delete: blk_-6352478735793634581 is added to invalidSet of 10.251.215.16:50010
081111 062534 21788 INFO dfs.DataNode$PacketResponder: Received block blk_7175211775952323013 of size 67108864 from /10.251.107.227
081110 123744 33 INFO dfs.FSNamesystem: BLOCK* NameSystem.addStoredBlock: blockMap updated: 10.251.31.242:50010 is added to blk_587229681929102461 size 67108864
081109 220059 3175 WARN dfs.DataNode$DataXceiver: 10.251.193.175:50010:Got exception while serving blk_4886211976907597757 to /10.251.214.18:
081110 112610 10042 INFO dfs.DataNode$PacketResponder: PacketResponder 0 for block blk_-8474770282113979425 terminating
081110 103045 34 INFO dfs.FSNamesystem: BLOCK* NameSystem.delete: blk_3469818740790139332 is added to invalidSet of 10.251.31.180:50010
081109 235044 4357 INFO dfs.DataNode$PacketResponder: PacketResponder 0 for block blk_-3396304403871613769 terminating
081111 041124 19595 INFO dfs.DataNode$PacketResponder: PacketResponder 0 for block blk_-3206559757284443160 terminating
081111 025336 17910 INFO dfs.DataNode$DataXceiver: Receiving block blk_-3036973460897400717 src: /10.251.38.197:41439 dest: /10.251.38.197:50010
081111 033851 19 INFO dfs.FSDataset: Deleting block blk_2821940612119722905 file /mnt/hadoop/dfs/data/current/subdir43/blk_2821940612119722905
081110 211520 19 INFO dfs.DataNode: 10.251.74.227:50010 Starting thread to transfer block blk_2087483762587332298 to 10.251.106.10:50010
081110 144342 32 INFO dfs.FSNamesystem: BLOCK* NameSystem.addStoredBlock: blockMap updated: 10.251.26.177:50010 is added to blk_-4278182407314586774 size 67108864
081110 124053 29 INFO dfs.FSNamesystem: BLOCK* NameSystem.delete: blk_-2832187439320255671 is added to invalidSet of 10.251.39.179:50010
081111 110445 26 INFO dfs.FSNamesystem: BLOCK* NameSystem.delete: blk_4440548932267329148 is added to invalidSet of 10.251.75.143:50010
081111 023247 19 INFO dfs.FSDataset: Deleting block blk_-380503229503332951 file /mnt/hadoop/dfs/data/current/subdir8/blk_-380503229503332951
081110 221716 15926 INFO dfs.DataNode$PacketResponder: PacketResponder 2 for block blk_-6031364229556165701 terminating
081110 112752 10196 INFO dfs.DataNode$DataXceiver: Receiving block blk_3701468659503837314 src: /10.250.18.114:35807 dest: /10.250.18.114:50010
081110 103119 30 INFO dfs.FSNamesystem: BLOCK* NameSystem.delete: blk_-6402646521745770038 is added to invalidSet of 10.251.67.113:50010
081111 051905 20420 INFO dfs.DataNode$DataXceiver: Receiving block blk_-6967520979130226147 src: /10.251.203.179:35038 dest: /10.251.203.179:50010
081110 214754 15408 INFO dfs.DataNode$PacketResponder: PacketResponder 0 for block blk_-3261785911113286986 terminating
081110 162217 13533 INFO dfs.DataNode$DataXceiver: 10.251.126.227:50010 Served block blk_-9776232201796166 to /10.251.126.227
081110 105013 9185 INFO dfs.DataNode$DataXceiver: Receiving block blk_253570143260663180 src: /10.250.10.144:52347 dest: /10.250.10.144:50010
081110 080809 8101 WARN dfs.DataNode$DataXceiver: 10.251.25.237:50010:Got exception while serving blk_8385365654977444792 to /10.251.214.225:
081111 044349 29 INFO dfs.FSNamesystem: BLOCK* NameSystem.delete: blk_-4468822756239827374 is added to invalidSet of 10.251.111.228:50010
081110 225727 28 INFO dfs.FSNamesystem: BLOCK* NameSystem.addStoredBlock: blockMap updated: 10.251.195.70:50010 is added to blk_6989640835041206531 size 67108864
081111 074640 23989 INFO dfs.DataNode$PacketResponder: PacketResponder 0 for block blk_-4546485035912394520 terminating
081111 025252 18025 INFO dfs.DataNode$DataXceiver: Receiving block blk_320260235378293642 src: /10.251.27.63:60779 dest: /10.251.27.63:50010
081110 015535 5903 INFO dfs.DataNode$DataXceiver: Receiving block blk_119483826040063541 src: /10.250.10.100:58618 dest: /10.250.10.100:50010
081110 001630 4563 INFO dfs.DataNode$PacketResponder: PacketResponder 1 for block blk_6911363609817145911 terminating
081111 055008 21152 INFO dfs.DataNode$PacketResponder: Received block blk_-3180854930506748588 of size 67108864 from /10.251.126.227
081111 110443 26 INFO dfs.FSNamesystem: BLOCK* NameSystem.delete: blk_-729710596054048426 is added to invalidSet of 10.251.111.228:50010
081111 035716 28 INFO dfs.FSNamesystem: BLOCK* NameSystem.addStoredBlock: blockMap updated: 10.251.122.38:50010 is added to blk_-1105386212165563320 size 67108864
081110 013247 5598 INFO dfs.DataNode$PacketResponder: PacketResponder 0 for block blk_-2047610369194721136 terminating
081110 110745 9642 INFO dfs.DataNode$PacketResponder: PacketResponder 0 for block blk_-8941989277156030204 terminating
081111 081914 24037 INFO dfs.DataNode$PacketResponder: PacketResponder 1 for block blk_925323108893272094 terminating
081109 220052 3149 WARN dfs.DataNode$DataXceiver: 10.250.10.223:50010:Got exception while serving blk_5174503572781057846 to /10.251.31.85:
081111 063516 22047 INFO dfs.DataNode$PacketResponder: PacketResponder 2 for block blk_1075524490948100553 terminating
081110 211934 11443 INFO dfs.DataNode$PacketResponder: Received block blk_-1342492894333170617 of size 67108864 from /10.251.106.10
081111 054039 21348 INFO dfs.DataNode$PacketResponder: Received block blk_-1084333741570603323 of size 67108864 from /10.251.70.37
081109 234652 4305 INFO dfs.DataNode$PacketResponder: Received block blk_4208304950876188492 of size 67108864 from /10.251.199.159
081111 091546 25235 INFO dfs.DataNode$PacketResponder: Received block blk_6361451037225540977 of size 67108864 from /10.251.214.32
081111 050226 20520 INFO dfs.DataNode$PacketResponder: Received block blk_-3724385869773749110 of size 67108864 from /10.251.66.63
081109 220144 3222 WARN dfs.DataNode$DataXceiver: 10.251.203.129:50010:Got exception while serving blk_-744094832222436907 to /10.251.203.80:
081110 000245 30 INFO dfs.FSNamesystem: BLOCK* NameSystem.allocateBlock: /user/root/sortrand/_temporary/_task_200811092030_0002_r_000116_0/part-00116. blk_-2673142414378732193
081110 083153 8627 INFO dfs.DataNode$DataXceiver: 10.251.43.192:50010 Served block blk_-7751621924384021318 to /10.251.43.192
081110 223151 35 INFO dfs.FSNamesystem: BLOCK* NameSystem.addStoredBlock: blockMap updated: 10.251.123.99:50010 is added to blk_2954648537001146755 size 67108864
081111 052328 30 INFO dfs.FSNamesystem: BLOCK* NameSystem.allocateBlock: /user/root/rand5/_temporary/_task_200811101024_0011_m_001295_0/part-01295. blk_-8657491068591797666
081110 010242 5019 INFO dfs.DataNode$DataXceiver: Receiving block blk_-917880737323593853 src: /10.250.11.53:51559 dest: /10.250.11.53:50010
081111 032335 18739 INFO dfs.DataNode$PacketResponder: PacketResponder 0 for block blk_7217406468877735003 terminating
081110 105026 9380 INFO dfs.DataNode$DataXceiver: Receiving block blk_-2082992911789160717 src: /10.250.14.143:41491 dest: /10.250.14.143:50010
081111 033619 18926 INFO dfs.DataNode$PacketResponder: Received block blk_-6495072516406857746 of size 3548030 from /10.251.215.192
081110 103149 30 INFO dfs.FSNamesystem: BLOCK* NameSystem.delete: blk_2585333596895853064 is added to invalidSet of 10.250.11.194:50010
081110 210154 28 INFO dfs.FSNamesystem: BLOCK* NameSystem.delete: blk_3047830349091901618 is added to invalidSet of 10.251.43.147:50010
081111 061747 21793 INFO dfs.DataNode$PacketResponder: PacketResponder 2 for block blk_5400387749559109398 terminating
081111 042300 19523 INFO dfs.DataNode$DataXceiver: Receiving block blk_2572775113687332291 src: /10.250.14.224:49212 dest: /10.250.14.224:50010
081111 043444 19942 INFO dfs.DataNode$DataXceiver: Receiving block blk_-7735601115013209906 src: /10.251.195.70:37047 dest: /10.251.195.70:50010
081109 205201 741 INFO dfs.DataNode$PacketResponder: Received block blk_-2175193580446152562 of size 67108864 from /10.251.91.32
081110 020305 27 INFO dfs.FSNamesystem: BLOCK* NameSystem.addStoredBlock: blockMap updated: 10.251.71.146:50010 is added to blk_5978997124137331601 size 67108864
081111 051316 33 INFO dfs.FSNamesystem: BLOCK* NameSystem.allocateBlock: /user/root/rand5/_temporary/_task_200811101024_0011_m_001136_0/part-01136. blk_-328869876236970869
081110 184046 13763 WARN dfs.DataNode$DataXceiver: 10.251.30.134:50010:Got exception while serving blk_5481629762049402637 to /10.251.27.63:
081109 213629 26 INFO dfs.FSNamesystem: BLOCK* NameSystem.addStoredBlock: blockMap updated: 10.251.123.132:50010 is added to blk_5605113371048030726 size 3540869
081110 225752 30 INFO dfs.FSNamesystem: BLOCK* NameSystem.addStoredBlock: blockMap updated: 10.251.39.160:50010 is added to blk_6615975681551118991 size 67108864
081111 083535 34 INFO dfs.FSNamesystem: BLOCK* NameSystem.allocateBlock: /user/root/rand7/_temporary/_task_200811101024_0014_m_001556_0/part-01556. blk_8673041033723593524
081111 071701 22954 INFO dfs.DataNode$PacketResponder: Received block blk_-432334309942237255 of size 67108864 from /10.251.203.179
081110 103128 30 INFO dfs.FSNamesystem: BLOCK* NameSystem.delete: blk_2530996139689404445 is added to invalidSet of 10.251.110.8:50010
081111 065652 22831 INFO dfs.DataNode$PacketResponder: PacketResponder 0 for block blk_7711658124884513927 terminating
081111 062113 21810 INFO dfs.DataNode$DataXceiver: Receiving block blk_-5173409794013588925 src: /10.250.9.207:33698 dest: /10.250.9.207:50010
081111 070742 22755 INFO dfs.DataNode$PacketResponder: PacketResponder 2 for block blk_1613400567456562299 terminating
081110 221323 15898 INFO dfs.DataNode$PacketResponder: Received block blk_-8129597924106477035 of size 67108864 from /10.251.194.102
081110 220635 32 INFO dfs.FSNamesystem: BLOCK* NameSystem.delete: blk_-2259156175887904925 is added to invalidSet of 10.251.110.196:50010
081111 100908 29 INFO dfs.FSNamesystem: BLOCK* NameSystem.addStoredBlock: blockMap updated: 10.251.126.255:50010 is added to blk_2802772124027284159 size 67108864
081110 190601 14173 WARN dfs.DataNode$DataXceiver: 10.251.126.227:50010:Got exception while serving blk_-3610553630057254980 to /10.251.107.50:
081110 103810 19 INFO dfs.FSDataset: Deleting block blk_9069024936389946753 file /mnt/hadoop/dfs/data/current/subdir35/blk_9069024936389946753
081111 023244 18 INFO dfs.FSDataset: Deleting block blk_2861383830609969657 file /mnt/hadoop/dfs/data/current/subdir6/blk_2861383830609969657
081109 213633 13 INFO dfs.DataBlockScanner: Verification succeeded for blk_-1256079797515200658
081110 220818 19 INFO dfs.FSDataset: Deleting block blk_-7456686042090822887 file /mnt/hadoop/dfs/data/current/blk_-7456686042090822887
081109 213617 2471 INFO dfs.DataNode$DataXceiver: Receiving block blk_-7541335278327575845 src: /10.251.110.8:50493 dest: /10.251.110.8:50010
081110 001546 4865 INFO dfs.DataNode$PacketResponder: Received block blk_-5650490461844906247 of size 67108864 from /10.250.6.223
081111 023320 19 INFO dfs.FSDataset: Deleting block blk_7709013350742019661 file /mnt/hadoop/dfs/data/current/subdir4/blk_7709013350742019661
081111 040337 31 INFO dfs.FSNamesystem: BLOCK* NameSystem.addStoredBlock: blockMap updated: 10.251.39.192:50010 is added to blk_1454049131914689994 size 67108864
081110 211232 14858 INFO dfs.DataNode$PacketResponder: Received block blk_7937562052596495709 of size 67108864 from /10.251.42.191
081111 101345 26328 INFO dfs.DataNode$PacketResponder: PacketResponder 2 for block blk_3184069570343032806 terminating
081110 103914 9067 INFO dfs.DataNode$PacketResponder: PacketResponder 1 for block blk_-8546859397090021730 terminating
081110 103149 30 INFO dfs.FSNamesystem: BLOCK* NameSystem.delete: blk_-7532187288176058125 is added to invalidSet of 10.251.125.237:50010
081110 222324 19 INFO dfs.FSDataset: Deleting block blk_1343952954725083410 file /mnt/hadoop/dfs/data/current/subdir10/blk_1343952954725083410
081111 110426 26 INFO dfs.FSNamesystem: BLOCK* NameSystem.delete: blk_7516621262462433257 is added to invalidSet of 10.251.202.181:50010
081109 211638 27 INFO dfs.FSNamesystem: BLOCK* NameSystem.addStoredBlock: blockMap updated: 10.250.17.225:50010 is added to blk_-8712848995979794435 size 67108864
081111 023017 27 INFO dfs.FSNamesystem: BLOCK* NameSystem.delete: blk_-3061598580056782039 is added to invalidSet of 10.251.43.21:50010
081110 021911 6157 INFO dfs.DataNode$DataXceiver: 10.251.91.32:50010 Served block blk_2805472884785586925 to /10.251.91.32
081110 121612 27 INFO dfs.FSNamesystem: BLOCK* NameSystem.addStoredBlock: blockMap updated: 10.251.31.85:50010 is added to blk_1633224122997009447 size 67108864
081111 073405 23699 INFO dfs.DataNode$DataXceiver: Receiving block blk_-4188085650165189862 src: /10.251.199.225:49137 dest: /10.251.199.225:50010
081109 210142 1147 INFO dfs.DataNode$PacketResponder: Received block blk_4801258424832591383 of size 67108864 from /10.251.111.228
081110 114305 10561 INFO dfs.DataNode$PacketResponder: PacketResponder 0 for block blk_-6975549396060765579 terminating
081110 104206 9214 INFO dfs.DataNode$PacketResponder: Received block blk_2146952812256915336 of size 67108864 from /10.250.14.224
081111 054217 27 INFO dfs.FSNamesystem: BLOCK* NameSystem.addStoredBlock: blockMap updated: 10.251.75.79:50010 is added to blk_-6299145594392748718 size 67108864
081109 222333 3445 WARN dfs.DataNode$DataXceiver: 10.251.29.239:50010:Got exception while serving blk_5307482288320579226 to /10.251.29.239:
081110 230839 17250 INFO dfs.DataNode$PacketResponder: PacketResponder 0 for block blk_-6164821971539992458 terminating
081110 030301 6382 INFO dfs.DataNode$DataXceiver: 10.251.31.180:50010 Served block blk_-7828065678108414143 to /10.251.43.21
081111 083702 24477 INFO dfs.DataNode$PacketResponder: PacketResponder 1 for block blk_4025962537872627454 terminating
081110 110011 29 INFO dfs.FSNamesystem: BLOCK* NameSystem.allocateBlock: /user/root/rand/_temporary/_task_200811101024_0001_m_001023_0/part-01023. blk_7305007598857389421
081111 030350 18151 INFO dfs.DataNode$PacketResponder: Received block blk_-2088923613644759725 of size 67108864 from /10.251.38.53
081111 023249 19 INFO dfs.FSDataset: Deleting block blk_-288822758636188483 file /mnt/hadoop/dfs/data/current/subdir9/blk_-288822758636188483
081111 090135 19 INFO dfs.FSDataset: Deleting block blk_-2062907284695645099 file /mnt/hadoop/dfs/data/current/subdir16/blk_-2062907284695645099
081111 092533 25442 INFO dfs.DataNode$PacketResponder: PacketResponder 1 for block blk_6278428718294318909 terminating
081111 085920 27 INFO dfs.FSNamesystem: BLOCK* NameSystem.delete: blk_-5020098401624048853 is added to invalidSet of 10.251.126.255:50010
081110 061628 7255 INFO dfs.DataNode$DataXceiver: 10.251.74.79:50010 Served block blk_4086186950250601263 to /10.251.43.115
081111 040515 19533 INFO dfs.DataNode$PacketResponder: PacketResponder 1 for block blk_-8031497536945540804 terminating
081111 055440 21578 INFO dfs.DataNode$PacketResponder: PacketResponder 0 for block blk_-5398005932675968448 terminating
081111 044311 35 INFO dfs.FSNamesystem: BLOCK* NameSystem.delete: blk_7490595308132649329 is added to invalidSet of 10.251.194.147:50010
081111 023021 27 INFO dfs.FSNamesystem: BLOCK* NameSystem.delete: blk_7083769115564103261 is added to invalidSet of 10.251.110.68:50010
081110 220624 27 INFO dfs.FSNamesystem: BLOCK* NameSystem.delete: blk_-3527020607095138338 is added to invalidSet of 10.251.65.237:50010
081109 223509 3604 WARN dfs.DataNode$DataXceiver: 10.251.203.129:50010:Got exception while serving blk_-4835874169370818906 to /10.251.67.225:
081111 032713 26 INFO dfs.FSNamesystem: BLOCK* NameSystem.addStoredBlock: blockMap updated: 10.251.111.80:50010 is added to blk_-3497009223658607473 size 3471945
081110 104610 9113 INFO dfs.DataNode$DataXceiver: writeBlock blk_7308858844099241561 received exception java.io.IOException: Could not read from stream
081110 103048 34 INFO dfs.FSNamesystem: BLOCK* NameSystem.delete: blk_-7582680565156051353 is added to invalidSet of 10.250.14.38:50010
081110 012817 5477 INFO dfs.DataNode$PacketResponder: PacketResponder 1 for block blk_-1304361728319476145 terminating
081110 143812 30 INFO dfs.FSNamesystem: BLOCK* NameSystem.allocateBlock: /user/root/sortrand2/_temporary/_task_200811101024_0003_r_000024_0/part-00024. blk_-7082885281227687565
081110 210948 35 INFO dfs.FSNamesystem: BLOCK* NameSystem.addStoredBlock: blockMap updated: 10.251.91.84:50010 is added to blk_5117605567333435991 size 67108864
081111 110524 19 INFO dfs.FSDataset: Deleting block blk_-3079730754917008041 file /mnt/hadoop/dfs/data/current/subdir26/blk_-3079730754917008041
081109 223419 3590 WARN dfs.DataNode$DataXceiver: 10.251.199.159:50010:Got exception while serving blk_-916972917436052003 to /10.250.15.101:
081111 031851 18382 INFO dfs.DataNode$PacketResponder: Received block blk_7524838660619353959 of size 67108864 from /10.251.127.47
081111 023021 27 INFO dfs.FSNamesystem: BLOCK* NameSystem.delete: blk_8636139191878413465 is added to invalidSet of 10.251.67.113:50010
081110 150309 13040 INFO dfs.DataNode$PacketResponder: Received block blk_2155538325713846299 of size 67108864 from /10.251.111.130
081111 044331 29 INFO dfs.FSNamesystem: BLOCK* NameSystem.delete: blk_5817758790311378966 is added to invalidSet of 10.250.5.161:50010
081111 090612 24963 INFO dfs.DataNode$DataXceiver: Receiving block blk_4165031506615245786 src: /10.251.111.37:52950 dest: /10.251.111.37:50010
081109 205526 857 INFO dfs.DataNode$PacketResponder: PacketResponder 0 for block blk_-793230702953315191 terminating
081109 210343 1181 INFO dfs.DataNode$PacketResponder: PacketResponder 2 for block blk_2600805298548712821 terminating
081110 103601 19 INFO dfs.FSDataset: Deleting block blk_-2766949212239976181 file /mnt/hadoop/dfs/data/current/subdir16/blk_-2766949212239976181
081110 002142 32 INFO dfs.FSNamesystem: BLOCK* NameSystem.addStoredBlock: blockMap updated: 10.251.110.196:50010 is added to blk_660034019100250556 size 67108864
081109 222958 3581 WARN dfs.DataNode$DataXceiver: 10.251.203.129:50010:Got exception while serving blk_600377257610951130 to /10.251.195.33:
081110 120712 10792 INFO dfs.DataNode$PacketResponder: PacketResponder 1 for block blk_-168438388322384474 terminating
081111 092121 25535 INFO dfs.DataNode$PacketResponder: Received block blk_-4371235165853580342 of size 67108864 from /10.251.194.245
081109 212250 32 INFO dfs.FSNamesystem: BLOCK* NameSystem.addStoredBlock: blockMap updated: 10.251.39.144:50010 is added to blk_2120183718563303331 size 67108864
081110 103104 30 INFO dfs.FSNamesystem: BLOCK* NameSystem.delete: blk_6058509926158435464 is added to invalidSet of 10.251.26.131:50010
081111 090121 18 INFO dfs.FSDataset: Deleting block blk_-2449878084539051987 file /mnt/hadoop/dfs/data/current/subdir43/blk_-2449878084539051987
081111 061937 28 INFO dfs.FSNamesystem: BLOCK* NameSystem.addStoredBlock: blockMap updated: 10.250.6.223:50010 is added to blk_-2033406765984984785 size 67108864
081110 103725 18 INFO dfs.FSDataset: Deleting block blk_4748530772995355487 file /mnt/hadoop/dfs/data/current/subdir46/blk_4748530772995355487
081110 223119 31 INFO dfs.FSNamesystem: BLOCK* NameSystem.addStoredBlock: blockMap updated: 10.251.203.149:50010 is added to blk_-9194625290137315813 size 28490575
081110 013638 29 INFO dfs.FSNamesystem: BLOCK* NameSystem.addStoredBlock: blockMap updated: 10.250.7.32:50010 is added to blk_347967523169118636 size 67108864
081110 225019 16477 INFO dfs.DataNode$PacketResponder: Received block blk_-6564862670557184354 of size 67108864 from /10.250.7.244
081111 094125 25954 INFO dfs.DataNode$DataXceiver: Receiving block blk_1585358472166738660 src: /10.251.194.129:38511 dest: /10.251.194.129:50010
081110 210533 19 INFO dfs.FSDataset: Deleting block blk_2099543860203327068 file /mnt/hadoop/dfs/data/current/subdir36/blk_2099543860203327068
081110 103130 30 INFO dfs.FSNamesystem: BLOCK* NameSystem.delete: blk_-8385257393961547421 is added to invalidSet of 10.251.214.18:50010
081110 133933 12268 WARN dfs.DataNode$DataXceiver: 10.250.11.194:50010:Got exception while serving blk_6610244864386894422 to /10.251.90.81:
081110 120353 10873 INFO dfs.DataNode$PacketResponder: PacketResponder 0 for block blk_-2336896958028083331 terminating
081110 014251 5848 INFO dfs.DataNode$DataXceiver: Receiving block blk_3525408970288152419 src: /10.251.199.225:36107 dest: /10.251.199.225:50010
081109 222607 3515 INFO dfs.DataNode$DataXceiver: 10.251.106.50:50010 Served block blk_-1520084537553744397 to /10.251.107.98
081110 103743 19 INFO dfs.FSDataset: Deleting block blk_8879693859317658320 file /mnt/hadoop/dfs/data/current/subdir9/blk_8879693859317658320
081110 103055 30 INFO dfs.FSNamesystem: BLOCK* NameSystem.delete: blk_-8048421706779991679 is added to invalidSet of 10.251.67.211:50010
081110 123044 34 INFO dfs.FSNamesystem: BLOCK* NameSystem.addStoredBlock: blockMap updated: 10.251.70.112:50010 is added to blk_-1031045685930177310 size 67108864
081110 224031 16158 INFO dfs.DataNode$PacketResponder: Received block blk_5212788158224726979 of size 67108864 from /10.251.123.1
081110 103734 19 INFO dfs.FSDataset: Deleting block blk_9182062888767961897 file /mnt/hadoop/dfs/data/current/subdir10/blk_9182062888767961897
081111 101609 26375 INFO dfs.DataNode$DataXceiver: Receiving block blk_-836941531565812635 src: /10.250.5.161:46950 dest: /10.250.5.161:50010
081111 045445 20349 INFO dfs.DataNode$PacketResponder: PacketResponder 2 for block blk_4663224036836788575 terminating
081110 145530 12886 INFO dfs.DataNode$DataXceiver: Receiving block blk_-8829290276895710056 src: /10.251.39.242:37578 dest: /10.251.39.242:50010
081110 103146 30 INFO dfs.FSNamesystem: BLOCK* NameSystem.delete: blk_-7844146878252892940 is added to invalidSet of 10.251.194.213:50010
081111 084637 26 INFO dfs.FSNamesystem: BLOCK* NameSystem.allocateBlock: /user/root/rand7/_temporary/_task_200811101024_0014_m_001831_0/part-01831. blk_1093852323453132556
081111 105555 30 INFO dfs.FSNamesystem: BLOCK* NameSystem.addStoredBlock: blockMap updated: 10.251.201.204:50010 is added to blk_-4771042965619184223 size 67108864
081111 104615 26 INFO dfs.FSNamesystem: BLOCK* NameSystem.allocateBlock: /user/root/randtxt9/_temporary/_task_200811101024_0016_m_001456_0/part-01456. blk_7376850080561457625
081110 213840 30 INFO dfs.FSNamesystem: BLOCK* NameSystem.allocateBlock: /user/root/rand3/_temporary/_task_200811101024_0005_m_001325_0/part-01325. blk_7591820082830850628
081109 220635 3310 WARN dfs.DataNode$DataXceiver: 10.251.35.1:50010:Got exception while serving blk_-8252621603812544877 to /10.251.30.101:
081110 185840 13949 INFO dfs.DataNode$DataXceiver: 10.251.43.21:50010 Served block blk_126608144084692093 to /10.251.43.21
081111 105618 27 INFO dfs.FSNamesystem: BLOCK* NameSystem.addStoredBlock: blockMap updated: 10.250.15.240:50010 is added to blk_-8907053085339863852 size 67108864
081110 111739 32 INFO dfs.FSNamesystem: BLOCK* NameSystem.addStoredBlock: blockMap updated: 10.251.214.225:50010 is added to blk_8250873609489647695 size 67108864
081110 230411 17091 INFO dfs.DataNode$PacketResponder: PacketResponder 0 for block blk_-7415410718121230843 terminating
081110 123240 11164 INFO dfs.DataNode$PacketResponder: Received block blk_6588454440867059226 of size 67108864 from /10.251.194.102
081111 044309 35 INFO dfs.FSNamesystem: BLOCK* NameSystem.delete: blk_7042775540450938400 is added to invalidSet of 10.251.111.228:50010
081110 171451 13716 INFO dfs.DataNode$DataXceiver: 10.251.214.112:50010 Served block blk_-6017673422303911885 to /10.251.195.70
081111 044308 35 INFO dfs.FSNamesystem: BLOCK* NameSystem.delete: blk_-2412652946523097830 is added to invalidSet of 10.251.43.192:50010
081111 110514 18 INFO dfs.FSDataset: Deleting block blk_-8839900784333791251 file /mnt/hadoop/dfs/data/current/subdir12/blk_-8839900784333791251
081111 090110 30 INFO dfs.FSNamesystem: BLOCK* NameSystem.allocateBlock: /user/root/rand8/_temporary/_task_200811101024_0015_m_000186_0/part-00186. blk_2121561584009966830
081110 103704 19 INFO dfs.FSDataset: Deleting block blk_7791023695302603664 file /mnt/hadoop/dfs/data/current/subdir2/blk_7791023695302603664
081111 063543 22307 INFO dfs.DataNode$PacketResponder: Received block blk_2972857987428395228 of size 67108864 from /10.251.26.177
081110 061657 13 INFO dfs.DataBlockScanner: Verification succeeded for blk_-7533502680482800536
081111 023031 27 INFO dfs.FSNamesystem: BLOCK* NameSystem.delete: blk_-8032695996414999527 is added to invalidSet of 10.251.195.70:50010
081110 210603 19 INFO dfs.FSDataset: Deleting block blk_4657060891841176570 file /mnt/hadoop/dfs/data/current/blk_4657060891841176570
081110 011532 13 INFO dfs.DataBlockScanner: Verification succeeded for blk_5615254098769201235
081109 211916 1798 INFO dfs.DataNode$PacketResponder: Received block blk_7802049799670655080 of size 67108864 from /10.251.75.49
081109 210343 1206 INFO dfs.DataNode$PacketResponder: PacketResponder 1 for block blk_4171570082971584736 terminating
081110 122508 11234 INFO dfs.DataNode$PacketResponder: Received block blk_-6296299907413370538 of size 67108864 from /10.251.67.4
081110 222122 15879 INFO dfs.DataNode$PacketResponder: PacketResponder 2 for block blk_-2935999117199312487 terminating
081109 205408 833 INFO dfs.DataNode$PacketResponder: PacketResponder 0 for block blk_1726715609212463735 terminating
081111 075824 18 INFO dfs.FSDataset: Deleting block blk_-6236350734767251160 file /mnt/hadoop/dfs/data/current/blk_-6236350734767251160
081110 103739 26 INFO dfs.FSNamesystem: BLOCK* NameSystem.addStoredBlock: blockMap updated: 10.251.215.70:50010 is added to blk_-3867660475611329140 size 67108864
081111 075913 19 INFO dfs.FSDataset: Deleting block blk_3226958835133968000 file /mnt/hadoop/dfs/data/current/subdir25/blk_3226958835133968000
081110 131928 11839 INFO dfs.DataNode$DataXceiver: 10.251.123.99:50010 Served block blk_-1841979030757406418 to /10.251.123.99
081110 010512 5205 INFO dfs.DataNode$DataXceiver: Receiving block blk_-29729558001323938 src: /10.251.107.98:53102 dest: /10.251.107.98:50010
081111 045051 20252 INFO dfs.DataNode$PacketResponder: PacketResponder 1 for block blk_3876627332597806498 terminating
081110 013508 5707 INFO dfs.DataNode$PacketResponder: Received block blk_8028509355671626582 of size 67108864 from /10.250.7.32
081110 210552 18 INFO dfs.FSDataset: Deleting block blk_5204120283170949568 file /mnt/hadoop/dfs/data/current/subdir10/blk_5204120283170949568
081110 065910 7477 INFO dfs.DataNode$DataXceiver: 10.251.215.50:50010 Served block blk_1877756409270956003 to /10.250.13.240
081111 052348 31 INFO dfs.FSNamesystem: BLOCK* NameSystem.addStoredBlock: blockMap updated: 10.251.90.239:50010 is added to blk_-2281067667503210140 size 67108864
081111 051905 20945 INFO dfs.DataNode$PacketResponder: PacketResponder 2 for block blk_4893169163122446900 terminating
081110 011821 5322 INFO dfs.DataNode$PacketResponder: PacketResponder 0 for block blk_-4695035015924931859 terminating
081110 103034 34 INFO dfs.FSNamesystem: BLOCK* NameSystem.delete: blk_-8753128216886204671 is added to invalidSet of 10.251.110.68:50010
081111 072704 23042 INFO dfs.DataNode$DataXceiver: Receiving block blk_-6853562067326378421 src: /10.251.42.9:44816 dest: /10.251.42.9:50010
081110 014455 5894 INFO dfs.DataNode$DataXceiver: Receiving block blk_1882085628248924489 src: /10.251.125.174:56082 dest: /10.251.125.174:50010
081109 213835 19 INFO dfs.FSDataset: Deleting block blk_-2682113924960876819 file /mnt/hadoop/dfs/data/current/subdir12/blk_-2682113924960876819
081110 014226 5833 INFO dfs.DataNode$DataXceiver: Receiving block blk_4951788714438056542 src: /10.251.110.8:43206 dest: /10.251.110.8:50010
081111 034634 19140 INFO dfs.DataNode$PacketResponder: Received block blk_-1306330916574834545 of size 67108864 from /10.251.75.228
081110 220206 15719 INFO dfs.DataNode$PacketResponder: PacketResponder 1 for block blk_6915745307806344734 terminating
081111 043819 20451 INFO dfs.DataNode$DataXceiver: Receiving block blk_-9190765655619993252 src: /10.251.110.68:55411 dest: /10.251.110.68:50010
081111 065536 18 INFO dfs.FSDataset: Deleting block blk_6942114915407321719 file /mnt/hadoop/dfs/data/current/subdir45/blk_6942114915407321719
081111 062541 34 INFO dfs.FSNamesystem: BLOCK* NameSystem.addStoredBlock: blockMap updated: 10.250.19.16:50010 is added to blk_7534471953331550256 size 28502604
081110 012722 26 INFO dfs.FSNamesystem: BLOCK* NameSystem.addStoredBlock: blockMap updated: 10.251.90.64:50010 is added to blk_3929055805963663628 size 67108864
081110 104353 9243 INFO dfs.DataNode$DataXceiver: Receiving block blk_-2515602984607401345 src: /10.250.13.188:35891 dest: /10.250.13.188:50010
081110 221202 19 INFO dfs.FSDataset: Deleting block blk_5498184965678406193 file /mnt/hadoop/dfs/data/current/subdir6/blk_5498184965678406193
081111 103841 26 INFO dfs.FSNamesystem: BLOCK* NameSystem.addStoredBlock: blockMap updated: 10.251.42.9:50010 is added to blk_-8614361209536193703 size 67108864
081110 144309 12475 INFO dfs.DataNode$DataXceiver: Receiving block blk_-2355419268935965908 src: /10.251.89.155:36336 dest: /10.251.89.155:50010
081111 071522 22840 INFO dfs.DataNode$DataXceiver: writeBlock blk_-1919973744530009730 received exception java.io.IOException: Could not read from stream
081110 001243 4714 INFO dfs.DataNode$PacketResponder: Received block blk_-7999530116229604330 of size 67108864 from /10.251.195.33
081111 052148 20838 INFO dfs.DataNode$DataXceiver: Receiving block blk_6653003940127051074 src: /10.251.106.50:47136 dest: /10.251.106.50:50010
081111 052925 31 INFO dfs.FSNamesystem: BLOCK* NameSystem.addStoredBlock: blockMap updated: 10.251.91.15:50010 is added to blk_-1749999150216788558 size 3538165
081111 041043 34 INFO dfs.FSNamesystem: BLOCK* NameSystem.addStoredBlock: blockMap updated: 10.251.194.245:50010 is added to blk_-7041659423457042995 size 67108864
081111 044831 19 INFO dfs.FSDataset: Deleting block blk_1232316348859508602 file /mnt/hadoop/dfs/data/current/subdir43/blk_1232316348859508602
081111 063129 28 INFO dfs.FSNamesystem: BLOCK* NameSystem.addStoredBlock: blockMap updated: 10.251.42.16:50010 is added to blk_3217497563419629790 size 67108864
081110 181134 13 INFO dfs.DataBlockScanner: Verification succeeded for blk_9150083182016165530
081110 103202 9111 INFO dfs.DataNode$DataXceiver: 10.251.111.209:50010 Served block blk_-3907603481176056256 to /10.250.7.244
081110 143342 27 INFO dfs.FSNamesystem: BLOCK* NameSystem.addStoredBlock: blockMap updated: 10.251.127.47:50010 is added to blk_-4696717788245886148 size 67108864
081110 093832 8894 INFO dfs.DataNode$DataXceiver: 10.250.11.85:50010 Served block blk_2397439969079339817 to /10.251.75.228
081111 074542 21011 INFO dfs.DataNode$PacketResponder: PacketResponder 2 for block blk_4112824321368079069 terminating
081111 044313 35 INFO dfs.FSNamesystem: BLOCK* NameSystem.delete: blk_-6674026955651552308 is added to invalidSet of 10.251.199.245:50010
081110 220935 19 INFO dfs.FSDataset: Deleting block blk_3529061216374363934 file /mnt/hadoop/dfs/data/current/subdir28/blk_3529061216374363934
081111 052638 20887 INFO dfs.DataNode$DataXceiver: Receiving block blk_-2151418214364573827 src: /10.251.109.209:40298 dest: /10.251.109.209:50010
081111 085130 24971 INFO dfs.DataNode$PacketResponder: PacketResponder 2 for block blk_6376400529045445389 terminating
081111 080004 19 INFO dfs.FSDataset: Deleting block blk_-2915264230150705659 file /mnt/hadoop/dfs/data/current/subdir6/blk_-2915264230150705659
081110 103118 30 INFO dfs.FSNamesystem: BLOCK* NameSystem.delete: blk_-7192796012676737130 is added to invalidSet of 10.251.26.8:50010
081110 210158 28 INFO dfs.FSNamesystem: BLOCK* NameSystem.delete: blk_3303136113011509838 is added to invalidSet of 10.251.90.64:50010
081111 065501 19 INFO dfs.FSDataset: Deleting block blk_5134190865627144268 file /mnt/hadoop/dfs/data/current/subdir41/blk_5134190865627144268
081110 222931 16263 INFO dfs.DataNode$PacketResponder: PacketResponder 1 for block blk_7364479356509544577 terminating
081111 023010 27 INFO dfs.FSNamesystem: BLOCK* NameSystem.delete: blk_2734525270236162927 is added to invalidSet of 10.250.7.146:50010
081110 103145 30 INFO dfs.FSNamesystem: BLOCK* NameSystem.delete: blk_-6254553206692238789 is added to invalidSet of 10.251.67.113:50010
081110 190648 13932 WARN dfs.DataNode$DataXceiver: 10.251.25.237:50010:Got exception while serving blk_-4888625464565115479 to /10.251.194.147:
081111 084709 24623 INFO dfs.DataNode$PacketResponder: Received block blk_1027284090015871754 of size 67108864 from /10.251.74.227
081111 040650 19499 INFO dfs.DataNode$DataXceiver: Receiving block blk_-9089958791161622182 src: /10.251.111.130:46253 dest: /10.251.111.130:50010
081110 121702 32 INFO dfs.FSNamesystem: BLOCK* NameSystem.addStoredBlock: blockMap updated: 10.251.122.79:50010 is added to blk_2419727959063479051 size 67108864
081110 033111 6618 INFO dfs.DataNode$DataXceiver: 10.251.121.224:50010 Served block blk_-5153934275282390245 to /10.251.121.224
081111 104508 27040 INFO dfs.DataNode$PacketResponder: PacketResponder 2 for block blk_2724836147045090509 terminating
081111 085913 27 INFO dfs.FSNamesystem: BLOCK* NameSystem.delete: blk_-7361528876096185684 is added to invalidSet of 10.251.202.181:50010
081111 050837 30 INFO dfs.FSNamesystem: BLOCK* NameSystem.addStoredBlock: blockMap updated: 10.251.126.5:50010 is added to blk_-7314346495414337183 size 67108864
081111 032250 18746 INFO dfs.DataNode$PacketResponder: Received block blk_6740097949615175788 of size 67108864 from /10.251.107.19
081109 223546 3583 INFO dfs.DataNode$DataXceiver: 10.250.7.32:50010 Served block blk_5788669408472750946 to /10.251.109.236
081111 045401 29 INFO dfs.FSNamesystem: BLOCK* NameSystem.addStoredBlock: blockMap updated: 10.251.215.50:50010 is added to blk_8394388984489248183 size 3544053
081110 114252 32 INFO dfs.FSNamesystem: BLOCK* NameSystem.addStoredBlock: blockMap updated: 10.251.70.112:50010 is added to blk_-4333038393811602359 size 67108864
081110 214715 33 INFO dfs.FSNamesystem: BLOCK* NameSystem.addStoredBlock: blockMap updated: 10.251.199.86:50010 is added to blk_-5510459817299722823 size 67108864
081110 220910 19 INFO dfs.FSDataset: Deleting block blk_-1231604958835881219 file /mnt/hadoop/dfs/data/current/blk_-1231604958835881219
081111 044656 19 INFO dfs.FSDataset: Deleting block blk_-3074688802313425684 file /mnt/hadoop/dfs/data/current/subdir44/blk_-3074688802313425684
081111 071702 29 INFO dfs.FSNamesystem: BLOCK* NameSystem.addStoredBlock: blockMap updated: 10.251.194.129:50010 is added to blk_-4346357080865152858 size 67108864
081110 224734 28 INFO dfs.FSNamesystem: BLOCK* NameSystem.addStoredBlock: blockMap updated: 10.251.111.130:50010 is added to blk_-5413784613614810378 size 67108864
081111 065436 18 INFO dfs.FSDataset: Deleting block blk_-5855447069188333173 file /mnt/hadoop/dfs/data/current/subdir43/blk_-5855447069188333173
081111 025738 28 INFO dfs.FSNamesystem: BLOCK* NameSystem.addStoredBlock: blockMap updated: 10.250.15.67:50010 is added to blk_8044858187960453819 size 67108864
081110 212408 15056 INFO dfs.DataNode$PacketResponder: PacketResponder 2 for block blk_-748702447181283297 terminating
081110 041800 6657 WARN dfs.DataNode$DataXceiver: 10.250.14.143:50010:Got exception while serving blk_7701908099813080128 to /10.250.7.244:
081111 051322 19582 INFO dfs.DataNode$PacketResponder: Received block blk_5273304030802526071 of size 67108864 from /10.251.214.112
081111 025005 18127 INFO dfs.DataNode$DataXceiver: Receiving block blk_3869618321480271132 src: /10.251.199.86:41452 dest: /10.251.199.86:50010
081110 212754 15220 INFO dfs.DataNode$DataXceiver: Receiving block blk_9001594584064934759 src: /10.251.75.79:42863 dest: /10.251.75.79:50010
081109 205531 888 INFO dfs.DataNode$PacketResponder: Received block blk_3344110032515677166 of size 67108864 from /10.250.10.176
081111 063531 20321 INFO dfs.DataNode$DataXceiver: Receiving block blk_-6996277766759307256 src: /10.251.201.204:37379 dest: /10.251.201.204:50010
081110 103127 30 INFO dfs.FSNamesystem: BLOCK* NameSystem.delete: blk_5800403626708801762 is added to invalidSet of 10.251.107.227:50010
081111 110433 26 INFO dfs.FSNamesystem: BLOCK* NameSystem.delete: blk_-7212378266270421339 is added to invalidSet of 10.251.30.134:50010
081111 080443 24115 INFO dfs.DataNode$PacketResponder: Received block blk_3404581926656870056 of size 67108864 from /10.251.193.175
081110 210215 14615 INFO dfs.DataNode$DataXceiver: Receiving block blk_5679846578900042089 src: /10.250.7.32:35612 dest: /10.250.7.32:50010
081111 110553 19 INFO dfs.FSDataset: Deleting block blk_-3331793411570217126 file /mnt/hadoop/dfs/data/current/subdir34/blk_-3331793411570217126
081111 072726 22733 INFO dfs.DataNode$DataXceiver: Receiving block blk_447916549700897776 src: /10.251.71.146:48512 dest: /10.251.71.146:50010
081110 210129 28 INFO dfs.FSNamesystem: BLOCK* NameSystem.delete: blk_807693566430831428 is added to invalidSet of 10.251.75.163:50010
081110 115457 10385 INFO dfs.DataNode$PacketResponder: Received block blk_-5531351649229352937 of size 67108864 from /10.250.10.100
081111 060624 27 INFO dfs.FSNamesystem: BLOCK* NameSystem.allocateBlock: /user/root/randtxt5/_temporary/_task_200811101024_0012_m_000698_0/part-00698. blk_7664443173702366859
081111 054023 33 INFO dfs.FSNamesystem: BLOCK* NameSystem.addStoredBlock: blockMap updated: 10.250.19.16:50010 is added to blk_-7916737419368017763 size 67108864
081110 121011 10673 INFO dfs.DataNode$DataXceiver: Receiving block blk_-5466622792143023081 src: /10.251.123.33:42524 dest: /10.251.123.33:50010
081111 075816 19 INFO dfs.FSDataset: Deleting block blk_-5117616482648203266 file /mnt/hadoop/dfs/data/current/subdir3/blk_-5117616482648203266
081111 040635 28 INFO dfs.FSNamesystem: BLOCK* NameSystem.addStoredBlock: blockMap updated: 10.251.199.225:50010 is added to blk_4798303511430844710 size 67108864
081110 122304 11103 INFO dfs.DataNode$DataXceiver: Receiving block blk_-2920881954281436495 src: /10.251.194.213:48209 dest: /10.251.194.213:50010
081110 103639 19 INFO dfs.FSDataset: Deleting block blk_2723852887111656430 file /mnt/hadoop/dfs/data/current/subdir2/blk_2723852887111656430
081110 210720 11349 INFO dfs.DataNode$PacketResponder: Received block blk_-29452187152940901 of size 67108864 from /10.251.123.33
081111 053906 21170 INFO dfs.DataNode$DataXceiver: Receiving block blk_-5451541991870755490 src: /10.251.214.67:47077 dest: /10.251.214.67:50010
081110 061801 7254 INFO dfs.DataNode$DataXceiver: 10.251.199.225:50010 Served block blk_-7174634778204483024 to /10.251.199.225
081111 032118 18617 INFO dfs.DataNode$PacketResponder: Received block blk_1985555608215574682 of size 67108864 from /10.251.194.213
081111 100344 26366 INFO dfs.DataNode$PacketResponder: PacketResponder 0 for block blk_-2465714518726890622 terminating
081111 074355 23483 INFO dfs.DataNode$PacketResponder: PacketResponder 1 for block blk_-2256693532921716794 terminating
081111 074401 23030 INFO dfs.DataNode$PacketResponder: PacketResponder 1 for block blk_-4231334171199729311 terminating
081111 102314 26533 INFO dfs.DataNode$PacketResponder: PacketResponder 1 for block blk_-9076399254431520095 terminating
081109 214443 2768 WARN dfs.DataNode$DataXceiver: 10.251.74.192:50010:Got exception while serving blk_-7198899606504196854 to /10.251.67.225:
081110 012424 5468 INFO dfs.DataNode$PacketResponder: PacketResponder 1 for block blk_5308623135330093167 terminating
081111 035832 18319 INFO dfs.DataNode$PacketResponder: PacketResponder 0 for block blk_-2573505359098480087 terminating
081111 102911 27 INFO dfs.FSNamesystem: BLOCK* NameSystem.addStoredBlock: blockMap updated: 10.251.123.33:50010 is added to blk_7273686329999002062 size 67108864
081111 023029 27 INFO dfs.FSNamesystem: BLOCK* NameSystem.delete: blk_1704685178694011237 is added to invalidSet of 10.251.90.239:50010
081110 223719 15959 INFO dfs.DataNode$PacketResponder: PacketResponder 0 for block blk_-7360187836733002216 terminating
081110 123442 11413 INFO dfs.DataNode$DataXceiver: Receiving block blk_-2720126913901297485 src: /10.251.43.147:60609 dest: /10.251.43.147:50010
081110 225536 32 INFO dfs.FSNamesystem: BLOCK* NameSystem.addStoredBlock: blockMap updated: 10.251.38.214:50010 is added to blk_6678833869060815332 size 67108864
081111 044314 35 INFO dfs.FSNamesystem: BLOCK* NameSystem.delete: blk_4343942274484251380 is added to invalidSet of 10.250.10.6:50010
081110 210353 19 INFO dfs.FSDataset: Deleting block blk_-7341729167822621696 file /mnt/hadoop/dfs/data/current/subdir46/blk_-7341729167822621696
081111 023018 27 INFO dfs.FSNamesystem: BLOCK* NameSystem.delete: blk_8605045146299301090 is added to invalidSet of 10.251.38.53:50010
081111 072125 23357 INFO dfs.DataNode$PacketResponder: PacketResponder 1 for block blk_2447121228035678858 terminating
081111 044433 19 INFO dfs.FSDataset: Deleting block blk_-8852079999519131976 file /mnt/hadoop/dfs/data/current/subdir46/blk_-8852079999519131976
081110 120740 10952 INFO dfs.DataNode$PacketResponder: Received block blk_287040176787447804 of size 67108864 from /10.251.202.181
081110 103058 30 INFO dfs.FSNamesystem: BLOCK* NameSystem.delete: blk_8583450676561735489 is added to invalidSet of 10.251.214.175:50010
081111 083845 24662 INFO dfs.DataNode$DataXceiver: Receiving block blk_104643618023767333 src: /10.251.107.196:33847 dest: /10.251.107.196:50010
081110 224445 33 INFO dfs.FSNamesystem: BLOCK* NameSystem.addStoredBlock: blockMap updated: 10.251.199.245:50010 is added to blk_-3768427766311444401 size 67108864
081110 111824 9980 INFO dfs.DataNode$PacketResponder: PacketResponder 0 for block blk_3537056340581370352 terminating
081110 144539 12713 INFO dfs.DataNode$DataXceiver: Receiving block blk_949196702106966644 src: /10.251.66.102:57964 dest: /10.251.66.102:50010
081111 065313 19 INFO dfs.FSDataset: Deleting block blk_-6733971657355001842 file /mnt/hadoop/dfs/data/current/subdir30/blk_-6733971657355001842
081110 185720 14325 INFO dfs.DataNode$DataXceiver: 10.251.74.134:50010 Served block blk_1795862037689694428 to /10.251.74.134
081110 222421 16295 INFO dfs.DataNode$DataXceiver: Receiving block blk_-1371633830529687307 src: /10.250.11.194:59578 dest: /10.250.11.194:50010
081110 082701 8479 INFO dfs.DataNode$DataXceiver: 10.251.199.150:50010 Served block blk_-5288491555377736714 to /10.251.75.49
081111 085358 11504 INFO dfs.DataNode$PacketResponder: Received block blk_-361910303176312024 of size 67108864 from /10.251.43.147
081111 085907 27 INFO dfs.FSNamesystem: BLOCK* NameSystem.delete: blk_7741501647907855780 is added to invalidSet of 10.251.91.15:50010
081111 090141 18 INFO dfs.FSDataset: Deleting block blk_-3717621800046053543 file /mnt/hadoop/dfs/data/current/subdir41/blk_-3717621800046053543
081111 030214 18255 INFO dfs.DataNode$DataXceiver: Receiving block blk_-4335907908659222585 src: /10.251.26.177:54887 dest: /10.251.26.177:50010
081111 072344 26 INFO dfs.FSNamesystem: BLOCK* NameSystem.addStoredBlock: blockMap updated: 10.251.107.50:50010 is added to blk_-4630880406644567943 size 67108864
081111 084543 24518 INFO dfs.DataNode$PacketResponder: Received block blk_6234285142568811201 of size 67108864 from /10.250.15.198
081111 084243 34 INFO dfs.FSNamesystem: BLOCK* NameSystem.addStoredBlock: blockMap updated: 10.251.199.19:50010 is added to blk_-6754839541753532313 size 67108864
081111 020013 17082 INFO dfs.DataNode$DataXceiver: 10.251.91.32:50010 Served block blk_3062434475245265965 to /10.251.123.195
081110 210549 19 INFO dfs.FSDataset: Deleting block blk_6188143862162608140 file /mnt/hadoop/dfs/data/current/subdir29/blk_6188143862162608140
081111 064056 22280 INFO dfs.DataNode$DataXceiver: Receiving block blk_-7393521447977642884 src: /10.251.38.197:37289 dest: /10.251.38.197:50010
081109 213408 2317 INFO dfs.DataNode$DataXceiver: Receiving block blk_-9169777496472005396 src: /10.250.7.230:43543 dest: /10.250.7.230:50010
081111 041351 34 INFO dfs.FSNamesystem: BLOCK* NameSystem.allocateBlock: /user/root/randtxt4/_temporary/_task_200811101024_0010_m_001309_0/part-01309. blk_5156464542236822330
081111 102838 26523 INFO dfs.DataNode$PacketResponder: Received block blk_2305915463884541307 of size 67108864 from /10.251.70.37
081110 015919 6104 INFO dfs.DataNode$PacketResponder: PacketResponder 0 for block blk_-1345385525439852668 terminating
081111 060514 21611 INFO dfs.DataNode$PacketResponder: Received block blk_-406098876801044826 of size 67108864 from /10.250.14.196
081110 183150 13947 WARN dfs.DataNode$DataXceiver: 10.250.7.244:50010:Got exception while serving blk_6185794465942466681 to /10.250.7.96:
081110 214618 15532 INFO dfs.DataNode$PacketResponder: PacketResponder 0 for block blk_4141504318591950211 terminating
081111 040122 19409 INFO dfs.DataNode$DataXceiver: Receiving block blk_-7778884891451901669 src: /10.251.195.33:46471 dest: /10.251.195.33:50010
081110 013059 5586 INFO dfs.DataNode$PacketResponder: PacketResponder 0 for block blk_3377354751446480588 terminating
081110 220906 19 INFO dfs.FSDataset: Deleting block blk_-1015410284236846943 file /mnt/hadoop/dfs/data/current/subdir23/blk_-1015410284236846943
081110 064405 27 INFO dfs.FSNamesystem: BLOCK* NameSystem.addStoredBlock: blockMap updated: 10.251.125.193:50010 is added to blk_2584462064161808682 size 23871550
081110 071814 7702 INFO dfs.DataNode$DataXceiver: 10.251.26.131:50010 Served block blk_3788439764753701134 to /10.251.26.131
081111 023010 27 INFO dfs.FSNamesystem: BLOCK* NameSystem.delete: blk_759130290431560855 is added to invalidSet of 10.250.10.176:50010
081111 050947 27 INFO dfs.FSNamesystem: BLOCK* NameSystem.addStoredBlock: blockMap updated: 10.251.111.37:50010 is added to blk_-356228838999985664 size 67108864
081111 075000 31 INFO dfs.FSNamesystem: BLOCK* NameSystem.addStoredBlock: blockMap updated: 10.251.29.239:50010 is added to blk_-1984736902404010879 size 67108864
081111 083623 24684 INFO dfs.DataNode$PacketResponder: Received block blk_4096613425834353692 of size 67108864 from /10.250.13.188
081111 065258 19 INFO dfs.FSDataset: Deleting block blk_-8680022350974651279 file /mnt/hadoop/dfs/data/current/subdir37/blk_-8680022350974651279
081110 103632 19 INFO dfs.FSDataset: Deleting block blk_312212655746919643 file /mnt/hadoop/dfs/data/current/blk_312212655746919643
081111 075637 28 INFO dfs.FSNamesystem: BLOCK* NameSystem.delete: blk_-797428245133223807 is added to invalidSet of 10.251.214.175:50010
081110 230603 16705 INFO dfs.DataNode$DataXceiver: Receiving block blk_-3423755891996830415 src: /10.251.203.179:58624 dest: /10.251.203.179:50010
081110 210123 28 INFO dfs.FSNamesystem: BLOCK* NameSystem.delete: blk_-192047911616958130 is added to invalidSet of 10.251.215.192:50010
081110 104321 28 INFO dfs.FSNamesystem: BLOCK* NameSystem.addStoredBlock: blockMap updated: 10.250.15.198:50010 is added to blk_-5769851846044696192 size 67108864
081111 105045 27101 INFO dfs.DataNode$PacketResponder: Received block blk_7836626991853638791 of size 67108864 from /10.251.90.64
081111 081944 29 INFO dfs.FSNamesystem: BLOCK* NameSystem.allocateBlock: /user/root/rand7/_temporary/_task_200811101024_0014_m_000612_0/part-00612. blk_-8545481218583281262
081110 144920 27 INFO dfs.FSNamesystem: BLOCK* NameSystem.addStoredBlock: blockMap updated: 10.251.38.214:50010 is added to blk_-480949108954024556 size 67108864
081111 024823 34 INFO dfs.FSNamesystem: BLOCK* NameSystem.addStoredBlock: blockMap updated: 10.251.126.5:50010 is added to blk_-5855198238744379183 size 67108864
081110 210319 14417 INFO dfs.DataNode$PacketResponder: Received block blk_7355267896434497114 of size 67108864 from /10.251.43.210
081111 085913 27 INFO dfs.FSNamesystem: BLOCK* NameSystem.delete: blk_-9179441933911653954 is added to invalidSet of 10.251.122.38:50010
081110 103103 30 INFO dfs.FSNamesystem: BLOCK* NameSystem.delete: blk_3876799176820707616 is added to invalidSet of 10.251.215.16:50010
081110 214518 15479 INFO dfs.DataNode$DataXceiver: Receiving block blk_7485884735691071088 src: /10.250.11.53:53671 dest: /10.250.11.53:50010
081109 214238 2620 WARN dfs.DataNode$DataXceiver: 10.251.73.188:50010:Got exception while serving blk_-2598897828182146855 to /10.250.7.146:
081111 105408 27271 INFO dfs.DataNode$DataXceiver: Receiving block blk_1218761070510790107 src: /10.251.214.67:45629 dest: /10.251.214.67:50010
081111 090724 31 INFO dfs.FSNamesystem: BLOCK* NameSystem.allocateBlock: /user/root/rand8/_temporary/_task_200811101024_0015_m_000117_0/part-00117. blk_-6481156044719164239
081110 011210 5296 INFO dfs.DataNode$PacketResponder: Received block blk_1198497412454929411 of size 67108864 from /10.251.106.50
081111 044342 29 INFO dfs.FSNamesystem: BLOCK* NameSystem.delete: blk_918123370311061187 is added to invalidSet of 10.251.31.180:50010
081109 233435 4048 INFO dfs.DataNode$PacketResponder: Received block blk_214234801918736560 of size 67108864 from /10.251.122.38
081110 111440 9981 INFO dfs.DataNode$PacketResponder: Received block blk_8006699363735918984 of size 67108864 from /10.251.195.33
081110 210157 28 INFO dfs.FSNamesystem: BLOCK* NameSystem.delete: blk_5060221976045794672 is added to invalidSet of 10.251.42.207:50010
081110 225521 16789 INFO dfs.DataNode$PacketResponder: Received block blk_-5296884083391952366 of size 67108864 from /10.251.71.146
081110 014749 33 INFO dfs.FSNamesystem: BLOCK* NameSystem.addStoredBlock: blockMap updated: 10.251.91.229:50010 is added to blk_-3281827177753138777 size 67108864
081111 102329 33 INFO dfs.FSNamesystem: BLOCK* NameSystem.allocateBlock: /user/root/randtxt9/_temporary/_task_200811101024_0016_m_000657_0/part-00657. blk_-7517334279287205358
081111 061842 21722 INFO dfs.DataNode$PacketResponder: PacketResponder 2 for block blk_7481478168359678350 terminating
081110 224205 26 INFO dfs.FSNamesystem: BLOCK* NameSystem.addStoredBlock: blockMap updated: 10.251.125.174:50010 is added to blk_7793485394597741073 size 67108864
081109 210226 26 INFO dfs.FSNamesystem: BLOCK* NameSystem.addStoredBlock: blockMap updated: 10.251.66.3:50010 is added to blk_-9155061521566137731 size 67108864
081110 210540 19 INFO dfs.FSDataset: Deleting block blk_3944986847921696234 file /mnt/hadoop/dfs/data/current/subdir46/blk_3944986847921696234
081110 115049 10545 INFO dfs.DataNode$DataXceiver: Receiving block blk_-2154695901035259195 src: /10.251.199.150:49511 dest: /10.251.199.150:50010
081111 023026 27 INFO dfs.FSNamesystem: BLOCK* NameSystem.delete: blk_-2286000968489628168 is added to invalidSet of 10.251.31.180:50010
081110 224956 16581 INFO dfs.DataNode$PacketResponder: Received block blk_-2882247961874423560 of size 67108864 from /10.251.122.79
081110 103808 18 WARN dfs.FSDataset: Unexpected error trying to delete block blk_8597562782454775399. BlockInfo not found in volumeMap.
081110 121516 10871 INFO dfs.DataNode$DataXceiver: Receiving block blk_-9016767710267197473 src: /10.251.110.8:46955 dest: /10.251.110.8:50010
081111 075623 28 INFO dfs.FSNamesystem: BLOCK* NameSystem.delete: blk_593866602430756417 is added to invalidSet of 10.251.26.131:50010
081110 210736 28 INFO dfs.FSNamesystem: BLOCK* NameSystem.addStoredBlock: blockMap updated: 10.251.122.38:50010 is added to blk_-5485076949334057999 size 67108864
081111 094003 25373 INFO dfs.DataNode$PacketResponder: Received block blk_2004182274427211714 of size 67108864 from /10.251.66.102
081110 121422 33 INFO dfs.FSNamesystem: BLOCK* NameSystem.allocateBlock: /user/root/randtxt2/_temporary/_task_200811101024_0002_m_001419_0/part-01419. blk_3269478105870633772
081111 023022 27 INFO dfs.FSNamesystem: BLOCK* NameSystem.delete: blk_-7329156010461984573 is added to invalidSet of 10.251.202.181:50010
081111 075640 19 INFO dfs.FSDataset: Deleting block blk_-1150668667558007576 file /mnt/hadoop/dfs/data/current/subdir52/blk_-1150668667558007576
081111 095623 25934 INFO dfs.DataNode$DataXceiver: Receiving block blk_-8099220601128914976 src: /10.251.107.19:42357 dest: /10.251.107.19:50010
081110 105457 9423 INFO dfs.DataNode$DataXceiver: Receiving block blk_8686436289882587780 src: /10.251.75.49:49772 dest: /10.251.75.49:50010
081111 103702 34 INFO dfs.FSNamesystem: BLOCK* NameSystem.addStoredBlock: blockMap updated: 10.251.31.242:50010 is added to blk_-2494448083853509981 size 67108864
081111 023021 27 INFO dfs.FSNamesystem: BLOCK* NameSystem.delete: blk_4102646361851962348 is added to invalidSet of 10.250.14.143:50010
081110 211950 14903 INFO dfs.DataNode$PacketResponder: PacketResponder 2 for block blk_-1759144198515174405 terminating
081110 103037 34 INFO dfs.FSNamesystem: BLOCK* NameSystem.delete: blk_-4152240878076725053 is added to invalidSet of 10.251.66.192:50010
081111 085928 27 INFO dfs.FSNamesystem: BLOCK* NameSystem.delete: blk_-8809520281306512876 is added to invalidSet of 10.251.39.64:50010
081110 225843 29 INFO dfs.FSNamesystem: BLOCK* NameSystem.allocateBlock: /user/root/randtxt3/_temporary/_task_200811101024_0007_m_001651_0/part-01651. blk_-3233709692531645868
081110 143939 26 INFO dfs.FSNamesystem: BLOCK* NameSystem.addStoredBlock: blockMap updated: 10.250.15.67:50010 is added to blk_-4827235257520467817 size 67108864
081109 205335 822 INFO dfs.DataNode$PacketResponder: Received block blk_5532482641533800175 of size 67108864 from /10.250.15.198
081111 065444 19 INFO dfs.FSDataset: Deleting block blk_1993986120017872811 file /mnt/hadoop/dfs/data/current/subdir52/blk_1993986120017872811
081110 012519 5514 INFO dfs.DataNode$PacketResponder: Received block blk_-613710539668929482 of size 67108864 from /10.251.197.161
081110 220649 32 INFO dfs.FSNamesystem: BLOCK* NameSystem.delete: blk_1675401517808712332 is added to invalidSet of 10.251.71.16:50010
081111 080352 23803 INFO dfs.DataNode$DataXceiver: Receiving block blk_4257251790903482013 src: /10.251.65.203:45802 dest: /10.251.65.203:50010
081110 210431 19 INFO dfs.FSDataset: Deleting block blk_-2286977963392843855 file /mnt/hadoop/dfs/data/current/subdir23/blk_-2286977963392843855
081110 152007 13035 INFO dfs.DataNode$PacketResponder: Received block blk_-3480210484268788957 of size 67108864 from /10.251.67.4
081110 103403 19 INFO dfs.FSDataset: Deleting block blk_-8881374239806481924 file /mnt/hadoop/dfs/data/current/subdir3/blk_-8881374239806481924
081111 080608 24069 INFO dfs.DataNode$PacketResponder: PacketResponder 1 for block blk_-3634081461500770223 terminating
081111 102108 26624 INFO dfs.DataNode$PacketResponder: PacketResponder 2 for block blk_-3572495167203186493 terminating
081111 104312 26941 INFO dfs.DataNode$DataXceiver: Receiving block blk_8346358645334433700 src: /10.251.126.5:52416 dest: /10.251.126.5:50010
081109 223601 3611 INFO dfs.DataNode$DataXceiver: 10.251.203.129:50010 Served block blk_2016113717408245796 to /10.251.203.129
081111 103101 35 INFO dfs.FSNamesystem: BLOCK* NameSystem.addStoredBlock: blockMap updated: 10.251.215.70:50010 is added to blk_-1657635642838254301 size 67108864
081111 082212 24058 INFO dfs.DataNode$DataXceiver: Receiving block blk_9107006344114952092 src: /10.251.203.149:60875 dest: /10.251.203.149:50010
081111 093141 30 INFO dfs.FSNamesystem: BLOCK* NameSystem.addStoredBlock: blockMap updated: 10.251.90.239:50010 is added to blk_8145714221719643225 size 67108864
081110 210654 19 INFO dfs.FSDataset: Deleting block blk_9008976223252868038 file /mnt/hadoop/dfs/data/current/subdir1/blk_9008976223252868038
081111 065458 30 INFO dfs.FSNamesystem: BLOCK* NameSystem.addStoredBlock: blockMap updated: 10.251.70.211:50010 is added to blk_-999969827856922700 size 67108864
081111 024158 30 INFO dfs.FSNamesystem: BLOCK* NameSystem.allocateBlock: /user/root/rand4/_temporary/_task_200811101024_0009_m_000415_0/part-00415. blk_41857626566699305
081110 113632 31 INFO dfs.FSNamesystem: BLOCK* NameSystem.delete: blk_-778893599093793864 is added to invalidSet of 10.251.123.1:50010
081111 053138 21271 INFO dfs.DataNode$PacketResponder: PacketResponder 1 for block blk_2643280315801951337 terminating
081111 085922 27 INFO dfs.FSNamesystem: BLOCK* NameSystem.delete: blk_-582961084785030911 is added to invalidSet of 10.251.90.134:50010
081110 012716 5494 INFO dfs.DataNode$PacketResponder: PacketResponder 1 for block blk_2282644392315055946 terminating
081111 072728 22932 INFO dfs.DataNode$PacketResponder: PacketResponder 2 for block blk_-5146238159192371031 terminating
081111 053310 21348 INFO dfs.DataNode$PacketResponder: Received block blk_5316215648645648624 of size 67108864 from /10.250.7.244
081110 214615 15541 INFO dfs.DataNode$PacketResponder: PacketResponder 0 for block blk_7571028416782480452 terminating
081110 210159 28 INFO dfs.FSNamesystem: BLOCK* NameSystem.delete: blk_-7141494867845314631 is added to invalidSet of 10.251.42.191:50010
081111 064428 22415 INFO dfs.DataNode$DataXceiver: Receiving block blk_1076848867891236523 src: /10.251.70.211:59784 dest: /10.251.70.211:50010
081110 145014 26 INFO dfs.FSNamesystem: BLOCK* NameSystem.allocateBlock: /user/root/sortrand2/_temporary/_task_200811101024_0003_r_000274_0/part-00274. blk_-1601572962550093109
081109 211855 1787 INFO dfs.DataNode$DataXceiver: Receiving block blk_-5062744559035042106 src: /10.250.15.101:34801 dest: /10.250.15.101:50010
081111 074856 23844 INFO dfs.DataNode$PacketResponder: Received block blk_4814146938340740869 of size 67108864 from /10.251.214.112
081110 103433 19 INFO dfs.FSDataset: Deleting block blk_-6922132004954942739 file /mnt/hadoop/dfs/data/current/subdir32/blk_-6922132004954942739
081111 034713 18994 INFO dfs.DataNode$DataXceiver: Receiving block blk_-7388780702583171462 src: /10.250.6.214:41117 dest: /10.250.6.214:50010
081110 210128 28 INFO dfs.FSNamesystem: BLOCK* NameSystem.delete: blk_8000766160667240351 is added to invalidSet of 10.251.43.210:50010
081111 110620 19 INFO dfs.FSDataset: Deleting block blk_4344202349338369086 file /mnt/hadoop/dfs/data/current/subdir56/blk_4344202349338369086
081110 115553 10610 INFO dfs.DataNode$PacketResponder: PacketResponder 1 for block blk_-8256089046867003001 terminating
081111 085857 28 INFO dfs.FSNamesystem: BLOCK* NameSystem.delete: blk_8939543232839909697 is added to invalidSet of 10.251.199.86:50010
081111 063620 21921 INFO dfs.DataNode$PacketResponder: Received block blk_7916663198547804559 of size 67108864 from /10.251.29.239
081111 035623 19158 INFO dfs.DataNode$PacketResponder: PacketResponder 0 for block blk_4914694426383203275 terminating
081111 090132 19 INFO dfs.FSDataset: Deleting block blk_675164513570632922 file /mnt/hadoop/dfs/data/current/subdir30/blk_675164513570632922
081110 143841 32 INFO dfs.FSNamesystem: BLOCK* NameSystem.addStoredBlock: blockMap updated: 10.251.29.239:50010 is added to blk_-3884088908983398572 size 67108864
081110 210527 19 INFO dfs.FSDataset: Deleting block blk_-2791311389548244248 file /mnt/hadoop/dfs/data/current/subdir46/blk_-2791311389548244248
081111 053534 28 INFO dfs.FSNamesystem: BLOCK* NameSystem.allocateBlock: /user/root/rand5/_temporary/_task_200811101024_0011_m_001868_0/part-01868. blk_5563259639663004211
081111 030142 17768 INFO dfs.DataNode$PacketResponder: PacketResponder 2 for block blk_1560633938509944650 terminating
081111 043418 20025 INFO dfs.DataNode$PacketResponder: Received block blk_-7811055435254349353 of size 67108864 from /10.250.7.32
081110 103114 30 INFO dfs.FSNamesystem: BLOCK* NameSystem.delete: blk_7174058308364986010 is added to invalidSet of 10.251.74.134:50010
081111 091622 34 INFO dfs.FSNamesystem: BLOCK* NameSystem.addStoredBlock: blockMap updated: 10.251.111.37:50010 is added to blk_8695296709433045609 size 67108864
081111 045007 20165 INFO dfs.DataNode$PacketResponder: PacketResponder 2 for block blk_1449022906782916939 terminating
081111 075621 28 INFO dfs.FSNamesystem: BLOCK* NameSystem.delete: blk_5520990348392957680 is added to invalidSet of 10.251.73.220:50010
081111 044349 29 INFO dfs.FSNamesystem: BLOCK* NameSystem.delete: blk_3296278128489871015 is added to invalidSet of 10.251.66.192:50010
081110 001241 4605 INFO dfs.DataNode$PacketResponder: PacketResponder 0 for block blk_3297570025668017458 terminating
081109 233525 4035 INFO dfs.DataNode$PacketResponder: PacketResponder 0 for block blk_6751326688293747986 terminating
081110 135504 11815 INFO dfs.DataNode$DataXceiver: 10.251.202.181:50010 Served block blk_-5211511359475621956 to /10.250.17.225
081111 024310 17919 INFO dfs.DataNode$DataXceiver: Receiving block blk_-7729592436655544560 src: /10.251.71.193:44961 dest: /10.251.71.193:50010
081111 060837 21396 INFO dfs.DataNode$PacketResponder: Received block blk_1288028971965777149 of size 67108864 from /10.251.42.84
081111 060459 28 INFO dfs.FSNamesystem: BLOCK* NameSystem.addStoredBlock: blockMap updated: 10.251.203.166:50010 is added to blk_710700888500795111 size 67108864
081111 065446 19 INFO dfs.FSDataset: Deleting block blk_1586352576259565440 file /mnt/hadoop/dfs/data/current/subdir41/blk_1586352576259565440
081111 074202 28 INFO dfs.FSNamesystem: BLOCK* NameSystem.allocateBlock: /user/root/rand6/_temporary/_task_200811101024_0013_m_001632_0/part-01632. blk_1651524325294613435
081111 075611 34 INFO dfs.FSNamesystem: BLOCK* NameSystem.delete: blk_-3494162703598379625 is added to invalidSet of 10.251.107.98:50010
081110 082047 8465 WARN dfs.DataNode$DataXceiver: 10.251.195.33:50010:Got exception while serving blk_-5161708091582052343 to /10.251.126.5:
081110 045058 6846 WARN dfs.DataNode$DataXceiver: 10.251.37.240:50010:Got exception while serving blk_-6417734602137110714 to /10.250.5.237:
081110 220639 32 INFO dfs.FSNamesystem: BLOCK* NameSystem.delete: blk_-1604195904846260622 is added to invalidSet of 10.250.7.146:50010
081111 051142 20804 INFO dfs.DataNode$PacketResponder: Received block blk_4914164381574341353 of size 67108864 from /10.251.42.191
081110 195630 14110 INFO dfs.DataNode$DataXceiver: 10.251.123.132:50010 Served block blk_-3497590324659802238 to /10.251.67.211
081111 053510 20920 INFO dfs.DataNode$DataXceiver: Receiving block blk_7282693897215894225 src: /10.251.197.161:37007 dest: /10.251.197.161:50010
081111 044304 35 INFO dfs.FSNamesystem: BLOCK* NameSystem.delete: blk_-7079043780080571538 is added to invalidSet of 10.251.203.80:50010
081111 104100 26996 INFO dfs.DataNode$DataXceiver: Receiving block blk_8239059364829583584 src: /10.251.127.191:36369 dest: /10.251.127.191:50010
081111 080157 23899 INFO dfs.DataNode$PacketResponder: Received block blk_-7453329015108854633 of size 67108864 from /10.251.67.4
081109 210218 1156 INFO dfs.DataNode$PacketResponder: Received block blk_-3267943312498216405 of size 67108864 from /10.250.18.114
081110 220135 15997 INFO dfs.DataNode$PacketResponder: PacketResponder 1 for block blk_6759862292061583614 terminating
081109 213815 27 INFO dfs.FSNamesystem: BLOCK* NameSystem.delete: blk_6277503009512595795 is added to invalidSet of 10.251.125.174:50010
081110 104122 9105 INFO dfs.DataNode$DataXceiver: Receiving block blk_-6712441572309246964 src: /10.251.70.112:47902 dest: /10.251.70.112:50010
081110 210538 19 INFO dfs.FSDataset: Deleting block blk_-5104759569393615826 file /mnt/hadoop/dfs/data/current/blk_-5104759569393615826
081110 212815 15045 INFO dfs.DataNode$DataXceiver: Receiving block blk_390865347644825992 src: /10.251.106.50:56810 dest: /10.251.106.50:50010
081111 082539 34 INFO dfs.FSNamesystem: BLOCK* NameSystem.addStoredBlock: blockMap updated: 10.251.43.147:50010 is added to blk_1263357937441369243 size 67108864
081111 041458 19944 INFO dfs.DataNode$PacketResponder: PacketResponder 0 for block blk_8233169372713090360 terminating
081110 223819 16376 INFO dfs.DataNode$DataXceiver: writeBlock blk_274975114153261412 received exception java.io.IOException: Could not read from stream
081110 214608 30 INFO dfs.FSNamesystem: BLOCK* NameSystem.addStoredBlock: blockMap updated: 10.251.215.16:50010 is added to blk_-5653151309142025076 size 67108864
081110 013349 5595 INFO dfs.DataNode$PacketResponder: PacketResponder 0 for block blk_-649764892639461335 terminating
081110 212117 14919 INFO dfs.DataNode$PacketResponder: PacketResponder 2 for block blk_7983894199295499007 terminating
081110 103141 30 INFO dfs.FSNamesystem: BLOCK* NameSystem.delete: blk_-140839372694771411 is added to invalidSet of 10.251.73.220:50010
081110 105428 9336 INFO dfs.DataNode$PacketResponder: PacketResponder 0 for block blk_544473786980458005 terminating
081111 094131 27 INFO dfs.FSNamesystem: BLOCK* NameSystem.addStoredBlock: blockMap updated: 10.251.123.33:50010 is added to blk_-2473364778945794498 size 67108864
081110 215850 26 INFO dfs.FSNamesystem: BLOCK* NameSystem.allocateBlock: /user/root/rand3/_temporary/_task_200811101024_0005_m_001889_0/part-01889. blk_-214188668291367765
081111 030719 18417 INFO dfs.DataNode$PacketResponder: Received block blk_-7808973714314636585 of size 67108864 from /10.251.194.102
081111 110434 26 INFO dfs.FSNamesystem: BLOCK* NameSystem.delete: blk_-8851128351760813526 is added to invalidSet of 10.250.7.32:50010
081111 070331 22804 INFO dfs.DataNode$PacketResponder: Received block blk_-8310641197279608429 of size 67108864 from /10.251.214.175
081111 002936 17247 INFO dfs.DataNode$DataXceiver: 10.251.65.237:50010 Served block blk_-3883130841670519260 to /10.251.214.225
081111 045225 20250 INFO dfs.DataNode$PacketResponder: Received block blk_3335053972831384401 of size 67108864 from /10.251.194.102
081111 024812 35 INFO dfs.FSNamesystem: BLOCK* NameSystem.addStoredBlock: blockMap updated: 10.251.215.70:50010 is added to blk_1214123020586876957 size 67108864
081111 094900 26165 INFO dfs.DataNode$PacketResponder: Received block blk_-2945753553201324737 of size 67108864 from /10.251.194.129
081110 210112 28 INFO dfs.FSNamesystem: BLOCK* NameSystem.delete: blk_-4923175903938226902 is added to invalidSet of 10.251.73.220:50010
081110 013843 5745 INFO dfs.DataNode$PacketResponder: Received block blk_-787651653915045658 of size 67108864 from /10.251.127.243
081111 083405 24492 INFO dfs.DataNode$PacketResponder: PacketResponder 2 for block blk_-4561106783285985629 terminating
081110 115602 10545 INFO dfs.DataNode$PacketResponder: Received block blk_-6987133248316831025 of size 67108864 from /10.251.39.192
081110 212714 15128 INFO dfs.DataNode$PacketResponder: Received block blk_928356152101896155 of size 67108864 from /10.250.9.207
081111 090133 19 INFO dfs.FSDataset: Deleting block blk_-3525414206133484347 file /mnt/hadoop/dfs/data/current/subdir18/blk_-3525414206133484347
081109 212108 1856 INFO dfs.DataNode$PacketResponder: PacketResponder 2 for block blk_-2403627605835904154 terminating
081110 144919 12571 INFO dfs.DataNode$PacketResponder: Received block blk_-4020730924076712496 of size 67108864 from /10.251.199.19
081111 030645 18164 INFO dfs.DataNode$PacketResponder: PacketResponder 2 for block blk_8426705783818227489 terminating
081110 091513 8795 INFO dfs.DataNode$DataXceiver: 10.251.215.50:50010 Served block blk_-5730284288355259381 to /10.251.199.159
081111 080014 23874 INFO dfs.DataNode$DataXceiver: Receiving block blk_-7475067710482357097 src: /10.251.70.112:59539 dest: /10.251.70.112:50010
081110 110243 9450 INFO dfs.DataNode$PacketResponder: Received block blk_-4190064829045838122 of size 67108864 from /10.251.123.33
081110 123012 11303 INFO dfs.DataNode$DataXceiver: Receiving block blk_-6565274659933978264 src: /10.251.107.196:38207 dest: /10.251.107.196:50010
081110 121132 10915 INFO dfs.DataNode$PacketResponder: PacketResponder 2 for block blk_-6210198599311108393 terminating
081110 112814 10117 INFO dfs.DataNode$PacketResponder: PacketResponder 0 for block blk_6319412187037096445 terminating
081110 103710 18 INFO dfs.FSDataset: Deleting block blk_4010444360546138299 file /mnt/hadoop/dfs/data/current/subdir48/blk_4010444360546138299
081109 214534 2897 WARN dfs.DataNode$DataXceiver: 10.251.75.49:50010:Got exception while serving blk_5479015932651254774 to /10.251.66.192:
081110 113949 10147 INFO dfs.DataNode$PacketResponder: Received block blk_9099907446728952865 of size 67108864 from /10.251.38.53
081111 085913 27 INFO dfs.FSNamesystem: BLOCK* NameSystem.delete: blk_-687490406561383328 is added to invalidSet of 10.251.195.70:50010
081111 045138 19 INFO dfs.FSDataset: Deleting block blk_8347591874010488197 file /mnt/hadoop/dfs/data/current/subdir50/blk_8347591874010488197
081111 075938 19 INFO dfs.FSDataset: Deleting block blk_-3749323995080387179 file /mnt/hadoop/dfs/data/current/subdir46/blk_-3749323995080387179
081110 143056 12061 INFO dfs.DataNode$PacketResponder: PacketResponder 0 for block blk_8386966144235210891 terminating
081110 122041 11148 INFO dfs.DataNode$PacketResponder: Received block blk_-598698433919313211 of size 67108864 from /10.251.202.134
081111 085327 33 INFO dfs.FSNamesystem: BLOCK* NameSystem.addStoredBlock: blockMap updated: 10.250.11.194:50010 is added to blk_7656063299706874256 size 67108864
081111 050001 19 INFO dfs.DataNode: 10.251.71.68:50010 Starting thread to transfer block blk_5390605555590308923 to 10.251.67.211:50010
081111 064941 22802 INFO dfs.DataNode$DataXceiver: Receiving block blk_-7414497818640344690 src: /10.251.43.21:52550 dest: /10.251.43.21:50010
081111 065524 19 INFO dfs.FSDataset: Deleting block blk_8291695294214287699 file /mnt/hadoop/dfs/data/current/subdir30/blk_8291695294214287699
081110 220933 19 INFO dfs.FSDataset: Deleting block blk_5281958823669180751 file /mnt/hadoop/dfs/data/current/subdir45/blk_5281958823669180751
081110 114151 31 INFO dfs.FSNamesystem: BLOCK* NameSystem.addStoredBlock: blockMap updated: 10.251.202.134:50010 is added to blk_-2544325176339086856 size 67108864
081110 103806 19 INFO dfs.FSDataset: Deleting block blk_6486393447407663270 file /mnt/hadoop/dfs/data/current/subdir37/blk_6486393447407663270
081111 110427 26 INFO dfs.FSNamesystem: BLOCK* NameSystem.delete: blk_3936053683924204660 is added to invalidSet of 10.251.203.149:50010
081111 061406 21939 INFO dfs.DataNode$PacketResponder: Received block blk_-9072543239416106681 of size 67108864 from /10.250.7.96
081110 212515 28 INFO dfs.FSNamesystem: BLOCK* NameSystem.addStoredBlock: blockMap updated: 10.251.215.50:50010 is added to blk_-8724960157896659145 size 67108864
081111 103843 26505 INFO dfs.DataNode$DataXceiver: Receiving block blk_-3708451399139242488 src: /10.251.202.209:39086 dest: /10.251.202.209:50010
081111 035801 19312 INFO dfs.DataNode$PacketResponder: Received block blk_-666336103321900669 of size 67108864 from /10.251.111.130
081110 110549 9821 INFO dfs.DataNode$PacketResponder: Received block blk_-8653203999402645027 of size 67108864 from /10.251.42.9
081110 113809 10339 INFO dfs.DataNode$PacketResponder: PacketResponder 1 for block blk_688543936722972183 terminating
081110 014556 5660 INFO dfs.DataNode$PacketResponder: PacketResponder 1 for block blk_2582480907877121812 terminating
081111 025804 17908 INFO dfs.DataNode$PacketResponder: Received block blk_-1127757274096800173 of size 67108864 from /10.251.30.134
081111 110510 19 INFO dfs.FSDataset: Deleting block blk_-9185384904683262855 file /mnt/hadoop/dfs/data/current/subdir61/blk_-9185384904683262855
081109 204431 29 INFO dfs.FSNamesystem: BLOCK* NameSystem.addStoredBlock: blockMap updated: 10.250.7.244:50010 is added to blk_-8890070900484417952 size 67108864
081111 081010 34 INFO dfs.FSNamesystem: BLOCK* NameSystem.addStoredBlock: blockMap updated: 10.251.203.166:50010 is added to blk_-4676301504744038398 size 67108864
081110 010750 5138 INFO dfs.DataNode$DataXceiver: Receiving block blk_2907900464272190457 src: /10.251.214.112:52345 dest: /10.251.214.112:50010
081111 031409 34 INFO dfs.FSNamesystem: BLOCK* NameSystem.allocateBlock: /user/root/rand4/_temporary/_task_200811101024_0009_m_001593_0/part-01593. blk_-4033061289787733961
081110 214007 15467 INFO dfs.DataNode$PacketResponder: Received block blk_-6750267720734037779 of size 67108864 from /10.251.67.211
081111 085701 24799 INFO dfs.DataNode$PacketResponder: Received block blk_-2386549356406523803 of size 67108864 from /10.251.75.79
081111 093112 25730 INFO dfs.DataNode$PacketResponder: PacketResponder 2 for block blk_8063775914716213750 terminating
081110 150531 12834 INFO dfs.DataNode$PacketResponder: PacketResponder 0 for block blk_-5614885635692602848 terminating
081110 000439 4602 INFO dfs.DataNode$PacketResponder: Received block blk_-3243781095038455334 of size 67108864 from /10.251.111.228
081111 075915 19 INFO dfs.FSDataset: Deleting block blk_211678967171005588 file /mnt/hadoop/dfs/data/current/blk_211678967171005588
081111 074855 23891 INFO dfs.DataNode$PacketResponder: PacketResponder 1 for block blk_-7671895667930300419 terminating
081110 220649 32 INFO dfs.FSNamesystem: BLOCK* NameSystem.delete: blk_2991734202684023337 is added to invalidSet of 10.250.5.237:50010
081110 110254 9258 INFO dfs.DataNode$DataXceiver: Receiving block blk_612758396482558952 src: /10.250.14.224:49783 dest: /10.250.14.224:50010
081111 094925 25685 INFO dfs.DataNode$PacketResponder: Received block blk_5823647567313527965 of size 67108864 from /10.250.19.227
081111 065219 26 INFO dfs.FSNamesystem: BLOCK* NameSystem.delete: blk_-1968073076601630987 is added to invalidSet of 10.251.193.224:50010
081111 091825 25362 INFO dfs.DataNode$DataXceiver: Receiving block blk_7822798736947863058 src: /10.250.11.85:57167 dest: /10.250.11.85:50010
081110 034934 6666 WARN dfs.DataNode$DataXceiver: 10.251.202.209:50010:Got exception while serving blk_3042237562556346809 to /10.251.199.150:
081110 103530 19 INFO dfs.FSDataset: Deleting block blk_-3335570178201578138 file /mnt/hadoop/dfs/data/current/subdir45/blk_-3335570178201578138
081110 113904 10341 INFO dfs.DataNode$PacketResponder: PacketResponder 2 for block blk_-6906415379867983977 terminating
081111 043519 19867 INFO dfs.DataNode$PacketResponder: Received block blk_1957279420330852283 of size 67108864 from /10.251.106.37
081111 082517 28 INFO dfs.FSNamesystem: BLOCK* NameSystem.addStoredBlock: blockMap updated: 10.251.107.19:50010 is added to blk_-3324523881223708260 size 67108864
081111 084645 24667 INFO dfs.DataNode$DataXceiver: Receiving block blk_-5706099086617631051 src: /10.251.70.37:50927 dest: /10.251.70.37:50010
081110 103741 19 INFO dfs.FSDataset: Deleting block blk_6797516107785310824 file /mnt/hadoop/dfs/data/current/subdir44/blk_6797516107785310824
081110 123104 11181 INFO dfs.DataNode$PacketResponder: Received block blk_-4245559526892183163 of size 67108864 from /10.251.91.32
081110 113002 10282 INFO dfs.DataNode$PacketResponder: Received block blk_-6516098874639717713 of size 67108864 from /10.251.43.192
081110 113001 10178 INFO dfs.DataNode$DataXceiver: Receiving block blk_2245451453248314606 src: /10.251.106.50:42883 dest: /10.251.106.50:50010
081111 102707 26775 INFO dfs.DataNode$PacketResponder: Received block blk_-7928216701751361445 of size 67108864 from /10.251.38.197
081110 125015 11292 WARN dfs.DataNode$DataXceiver: 10.251.198.196:50010:Got exception while serving blk_5731449462028636651 to /10.251.90.239:
081110 112144 30 INFO dfs.FSNamesystem: BLOCK* NameSystem.addStoredBlock: blockMap updated: 10.251.31.180:50010 is added to blk_-321990481695604179 size 67108864
081111 101240 26066 INFO dfs.DataNode$PacketResponder: PacketResponder 2 for block blk_-6440123982936354242 terminating
081109 210308 31 INFO dfs.FSNamesystem: BLOCK* NameSystem.addStoredBlock: blockMap updated: 10.251.43.192:50010 is added to blk_-5210599225687580181 size 67108864
081110 125751 11522 INFO dfs.DataNode$DataXceiver: 10.251.125.174:50010 Served block blk_601126205018595527 to /10.251.70.211
081110 212506 15078 INFO dfs.DataNode$DataXceiver: Receiving block blk_-4143753139143797074 src: /10.251.110.8:36075 dest: /10.251.110.8:50010
081110 210152 28 INFO dfs.FSNamesystem: BLOCK* NameSystem.delete: blk_2191448174624078206 is added to invalidSet of 10.251.214.67:50010
081111 023015 27 INFO dfs.FSNamesystem: BLOCK* NameSystem.delete: blk_-3855781992179056192 is added to invalidSet of 10.251.67.211:50010
081109 204221 385 INFO dfs.DataNode$PacketResponder: PacketResponder 0 for block blk_6476922859843507688 terminating
081110 234636 17089 WARN dfs.DataNode$DataXceiver: 10.250.10.6:50010:Got exception while serving blk_9192806929900806113 to /10.251.111.130:
081111 034053 18893 INFO dfs.DataNode$PacketResponder: Received block blk_-4880897574135202563 of size 67108864 from /10.251.39.192
081110 224707 16319 INFO dfs.DataNode$DataXceiver: Receiving block blk_-1540395866374936182 src: /10.251.42.9:56985 dest: /10.251.42.9:50010
081111 075859 19 INFO dfs.FSDataset: Deleting block blk_2977886626203560874 file /mnt/hadoop/dfs/data/current/subdir58/blk_2977886626203560874
081110 222052 16118 INFO dfs.DataNode$PacketResponder: PacketResponder 0 for block blk_-143229053898157825 terminating
081111 042417 19576 INFO dfs.DataNode$PacketResponder: Received block blk_-5751236893503639172 of size 67108864 from /10.251.215.70
081109 210441 27 INFO dfs.FSNamesystem: BLOCK* NameSystem.addStoredBlock: blockMap updated: 10.251.30.179:50010 is added to blk_3085350716748401692 size 67108864
081110 103117 30 INFO dfs.FSNamesystem: BLOCK* NameSystem.delete: blk_3801080169419713987 is added to invalidSet of 10.250.6.223:50010
081111 104007 26915 INFO dfs.DataNode$PacketResponder: PacketResponder 1 for block blk_2484637742847124151 terminating
081110 214155 15317 INFO dfs.DataNode$PacketResponder: Received block blk_-9161934858594575497 of size 67108864 from /10.251.26.177
081111 081455 24375 INFO dfs.DataNode$PacketResponder: PacketResponder 0 for block blk_2521551525343052547 terminating
081110 220949 19 INFO dfs.FSDataset: Deleting block blk_7364383205470613804 file /mnt/hadoop/dfs/data/current/subdir18/blk_7364383205470613804
081111 071923 35 INFO dfs.FSNamesystem: BLOCK* NameSystem.allocateBlock: /user/root/rand6/_temporary/_task_200811101024_0013_m_001005_0/part-01005. blk_9002698199210092800
081111 075619 28 INFO dfs.FSNamesystem: BLOCK* NameSystem.delete: blk_-3511863190850082555 is added to invalidSet of 10.251.110.196:50010
081111 030235 26 INFO dfs.FSNamesystem: BLOCK* NameSystem.addStoredBlock: blockMap updated: 10.251.199.245:50010 is added to blk_1243285746731362037 size 67108864
081110 113041 10238 INFO dfs.DataNode$DataXceiver: Receiving block blk_-2381117029278664526 src: /10.251.91.15:42718 dest: /10.251.91.15:50010
081111 081200 23416 INFO dfs.DataNode$PacketResponder: PacketResponder 0 for block blk_-6930714078333995966 terminating
081110 113254 10161 INFO dfs.DataNode$DataXceiver: Receiving block blk_8668777870144774783 src: /10.251.65.237:41181 dest: /10.251.65.237:50010
081111 100959 26319 INFO dfs.DataNode$PacketResponder: Received block blk_-3832232933674917387 of size 67108864 from /10.251.194.129
081110 103148 30 INFO dfs.FSNamesystem: BLOCK* NameSystem.delete: blk_-4620125830727436273 is added to invalidSet of 10.250.13.188:50010
081111 083101 24167 INFO dfs.DataNode$DataXceiver: Receiving block blk_-7421899825311593688 src: /10.251.193.224:46080 dest: /10.251.193.224:50010
081111 101336 26861 INFO dfs.DataNode$DataXceiver: Receiving block blk_9193313058704249650 src: /10.251.91.84:59039 dest: /10.251.91.84:50010
081110 210634 19 INFO dfs.FSDataset: Deleting block blk_8457862256748383007 file /mnt/hadoop/dfs/data/current/subdir13/blk_8457862256748383007
081110 091646 8580 INFO dfs.DataNode$DataXceiver: 10.251.107.196:50010 Served block blk_2561233023805120592 to /10.251.125.237
081111 034440 29 INFO dfs.FSNamesystem: BLOCK* NameSystem.addStoredBlock: blockMap updated: 10.251.74.192:50010 is added to blk_-3413997149200846609 size 67108864
081110 210625 19 INFO dfs.FSDataset: Deleting block blk_8215363527515714974 file /mnt/hadoop/dfs/data/current/subdir8/blk_8215363527515714974
081111 065206 26 INFO dfs.FSNamesystem: BLOCK* NameSystem.delete: blk_-4929305545201435479 is added to invalidSet of 10.251.27.63:50010
081110 014023 35 INFO dfs.FSNamesystem: BLOCK* NameSystem.allocateBlock: /user/root/randtxt/_temporary/_task_200811092030_0003_m_001190_0/part-01190. blk_-3968115117381218760
081110 212151 14698 INFO dfs.DataNode$PacketResponder: Received block blk_-7048445617619051740 of size 67108864 from /10.251.71.16
081110 144655 12694 INFO dfs.DataNode$DataXceiver: Receiving block blk_-133718261021271925 src: /10.251.31.5:48425 dest: /10.251.31.5:50010
081111 110448 26 INFO dfs.FSNamesystem: BLOCK* NameSystem.delete: blk_-4018519499827896254 is added to invalidSet of 10.251.29.239:50010
081111 104614 27302 INFO dfs.DataNode$PacketResponder: PacketResponder 0 for block blk_2907087893328651335 terminating
081111 063610 22174 INFO dfs.DataNode$DataXceiver: Receiving block blk_9099032504256299641 src: /10.250.17.177:52719 dest: /10.250.17.177:50010
081110 230418 16843 INFO dfs.DataNode$DataXceiver: Receiving block blk_-4941048426498724117 src: /10.251.109.236:46813 dest: /10.251.109.236:50010
081110 143059 12162 INFO dfs.DataNode$DataXceiver: Receiving block blk_-8357375130437414906 src: /10.251.122.65:60161 dest: /10.251.122.65:50010
081110 213705 15124 INFO dfs.DataNode$DataXceiver: Receiving block blk_-2524326156324554768 src: /10.250.14.38:58117 dest: /10.250.14.38:50010
081111 084743 24823 INFO dfs.DataNode$PacketResponder: Received block blk_3070330472914994403 of size 67108864 from /10.251.90.134
081111 052620 21159 INFO dfs.DataNode$PacketResponder: PacketResponder 2 for block blk_4473188986923889562 terminating
081109 232923 4071 INFO dfs.DataNode$DataXceiver: Receiving block blk_2758478634183337805 src: /10.251.39.179:59926 dest: /10.251.39.179:50010
081110 112143 10044 INFO dfs.DataNode$DataXceiver: Receiving block blk_-8993433489215621016 src: /10.250.10.176:38137 dest: /10.250.10.176:50010
081111 044308 35 INFO dfs.FSNamesystem: BLOCK* NameSystem.delete: blk_5871816853983843225 is added to invalidSet of 10.251.107.19:50010
081110 230840 16731 INFO dfs.DataNode$PacketResponder: Received block blk_5085108531082158712 of size 67108864 from /10.251.199.225
081110 013803 5848 INFO dfs.DataNode$PacketResponder: Received block blk_6139531808246459039 of size 67108864 from /10.251.43.21
081110 221019 35 INFO dfs.FSNamesystem: BLOCK* NameSystem.addStoredBlock: blockMap updated: 10.251.195.70:50010 is added to blk_2279391775158842572 size 67108864
081109 215755 3070 WARN dfs.DataNode$DataXceiver: 10.251.193.175:50010:Got exception while serving blk_7100674544598282190 to /10.251.42.84:
081109 233720 4050 INFO dfs.DataNode$DataXceiver: Receiving block blk_4158746765555924195 src: /10.251.26.8:52401 dest: /10.251.26.8:50010
081110 081620 8135 INFO dfs.DataNode$DataXceiver: 10.251.122.65:50010 Served block blk_-3455532872828247386 to /10.251.122.65
081110 104158 8998 INFO dfs.DataNode$DataXceiver: Receiving block blk_5928098041163747145 src: /10.250.15.240:49170 dest: /10.250.15.240:50010
081111 075905 19 INFO dfs.FSDataset: Deleting block blk_-327964956422366414 file /mnt/hadoop/dfs/data/current/subdir31/blk_-327964956422366414
081111 081105 23987 INFO dfs.DataNode$PacketResponder: PacketResponder 0 for block blk_-9031918022206789202 terminating
081111 024640 26 INFO dfs.FSNamesystem: BLOCK* NameSystem.allocateBlock: /user/root/rand4/_temporary/_task_200811101024_0009_m_000344_0/part-00344. blk_-5389085792747981147
081110 103554 19 INFO dfs.FSDataset: Deleting block blk_-3993200440798661447 file /mnt/hadoop/dfs/data/current/subdir7/blk_-3993200440798661447
081110 211742 15044 INFO dfs.DataNode$PacketResponder: PacketResponder 2 for block blk_-6119521838329399841 terminating
081111 023216 19 INFO dfs.FSDataset: Deleting block blk_-4802321073953780893 file /mnt/hadoop/dfs/data/current/subdir62/blk_-4802321073953780893
081110 011548 5230 INFO dfs.DataNode$DataXceiver: Receiving block blk_2811266008734514676 src: /10.251.71.68:54964 dest: /10.251.71.68:50010
081111 101439 26434 INFO dfs.DataNode$DataXceiver: Receiving block blk_-1186020396870253730 src: /10.251.42.16:45690 dest: /10.251.42.16:50010
081111 053030 33 INFO dfs.FSNamesystem: BLOCK* NameSystem.addStoredBlock: blockMap updated: 10.251.214.175:50010 is added to blk_1108717219141057764 size 3547896
081111 103350 26760 INFO dfs.DataNode$PacketResponder: Received block blk_-5842921080268458294 of size 67108864 from /10.250.18.114
081109 233633 4068 INFO dfs.DataNode$DataXceiver: Receiving block blk_2274058080577231012 src: /10.251.30.134:42940 dest: /10.251.30.134:50010
081110 105731 9375 INFO dfs.DataNode$PacketResponder: Received block blk_3124279045950736480 of size 67108864 from /10.251.74.192
081111 034856 29 INFO dfs.FSNamesystem: BLOCK* NameSystem.addStoredBlock: blockMap updated: 10.250.10.6:50010 is added to blk_-628554764383952973 size 67108864
081110 151810 13346 INFO dfs.DataNode$PacketResponder: PacketResponder 0 for block blk_-7884918995025298799 terminating
081110 014955 5973 INFO dfs.DataNode$PacketResponder: Received block blk_1867309888950711262 of size 28505363 from /10.250.10.6
081111 075847 24071 INFO dfs.DataNode$PacketResponder: PacketResponder 1 for block blk_704668130446094786 terminating
081110 204715 14548 INFO dfs.DataNode$DataXceiver: Receiving block blk_8998855004361594784 src: /10.251.203.80:59885 dest: /10.251.203.80:50010
081111 094926 26020 INFO dfs.DataNode$PacketResponder: Received block blk_-8024534407258022501 of size 67108864 from /10.251.195.70
081110 204759 14475 INFO dfs.DataNode$PacketResponder: PacketResponder 0 for block blk_153602862428334439 terminating
081109 213119 26 INFO dfs.FSNamesystem: BLOCK* NameSystem.addStoredBlock: blockMap updated: 10.251.27.63:50010 is added to blk_-234399824217110981 size 67108864
081110 210200 28 INFO dfs.FSNamesystem: BLOCK* NameSystem.delete: blk_636512053854736561 is added to invalidSet of 10.251.43.147:50010
081111 095700 30 INFO dfs.FSNamesystem: BLOCK* NameSystem.addStoredBlock: blockMap updated: 10.251.109.209:50010 is added to blk_-6088520440695991140 size 67108864
081110 205017 31 INFO dfs.FSNamesystem: BLOCK* NameSystem.addStoredBlock: blockMap updated: 10.251.71.193:50010 is added to blk_-67656831091055724 size 67108864
081111 053339 32 INFO dfs.FSNamesystem: BLOCK* NameSystem.addStoredBlock: blockMap updated: 10.251.43.147:50010 is added to blk_-511094371301540556 size 67108864
081111 061455 21900 INFO dfs.DataNode$DataXceiver: Receiving block blk_7468054849606038734 src: /10.251.123.132:46940 dest: /10.251.123.132:50010
081111 044343 29 INFO dfs.FSNamesystem: BLOCK* NameSystem.delete: blk_4706141110684152156 is added to invalidSet of 10.250.10.144:50010
081111 103823 26973 INFO dfs.DataNode$PacketResponder: PacketResponder 1 for block blk_2832719347596039791 terminating
081109 203755 243 INFO dfs.DataNode$DataXceiver: Receiving block blk_-1608339630694730738 src: /10.251.123.20:40146 dest: /10.251.123.20:50010
081111 090122 19 INFO dfs.FSDataset: Deleting block blk_-1843822569647716387 file /mnt/hadoop/dfs/data/current/subdir52/blk_-1843822569647716387
081110 092029 8776 INFO dfs.DataNode$DataXceiver: 10.251.127.191:50010 Served block blk_8149177916346458861 to /10.251.127.191
081111 042119 19775 INFO dfs.DataNode$PacketResponder: Received block blk_8770033745106594961 of size 67108864 from /10.250.5.237
081111 070747 31 INFO dfs.FSNamesystem: BLOCK* NameSystem.addStoredBlock: blockMap updated: 10.251.70.37:50010 is added to blk_3017579979986298243 size 67108864
081110 215625 15732 INFO dfs.DataNode$PacketResponder: Received block blk_3142845865736446865 of size 67108864 from /10.251.70.112
081111 041145 19739 INFO dfs.DataNode$PacketResponder: Received block blk_-9188813889138126371 of size 67108864 from /10.251.91.15
081110 210119 28 INFO dfs.FSNamesystem: BLOCK* NameSystem.delete: blk_8606808528825511436 is added to invalidSet of 10.251.75.228:50010
081111 075635 28 INFO dfs.FSNamesystem: BLOCK* NameSystem.delete: blk_-8253577135552325426 is added to invalidSet of 10.251.107.50:50010
081110 112648 10252 INFO dfs.DataNode$DataXceiver: Receiving block blk_-8461662718896755003 src: /10.251.106.10:57129 dest: /10.251.106.10:50010
081111 024903 31 INFO dfs.FSNamesystem: BLOCK* NameSystem.addStoredBlock: blockMap updated: 10.251.194.245:50010 is added to blk_198306521945465409 size 67108864
081110 121946 10851 INFO dfs.DataNode$PacketResponder: PacketResponder 1 for block blk_-7674965831970495498 terminating
081111 073412 26 INFO dfs.FSNamesystem: BLOCK* NameSystem.allocateBlock: /user/root/rand6/_temporary/_task_200811101024_0013_m_001192_0/part-01192. blk_5968168442536072657
081110 222128 16127 INFO dfs.DataNode$DataXceiver: Receiving block blk_7347220719789889531 src: /10.251.202.209:51090 dest: /10.251.202.209:50010
081111 055525 21684 INFO dfs.DataNode$DataXceiver: Receiving block blk_-2090683055696299370 src: /10.251.75.163:47263 dest: /10.251.75.163:50010
081110 212702 34 INFO dfs.FSNamesystem: BLOCK* NameSystem.addStoredBlock: blockMap updated: 10.251.110.68:50010 is added to blk_-3246237483069221526 size 67108864
081111 071353 27 INFO dfs.FSNamesystem: BLOCK* NameSystem.addStoredBlock: blockMap updated: 10.250.11.53:50010 is added to blk_-2463854107348758554 size 67108864
081111 110531 19 INFO dfs.FSDataset: Deleting block blk_-3764093937981688251 file /mnt/hadoop/dfs/data/current/subdir45/blk_-3764093937981688251
081109 234727 4341 INFO dfs.DataNode$DataXceiver: Receiving block blk_-5876044451251118103 src: /10.251.105.189:53935 dest: /10.251.105.189:50010
081110 064205 7320 INFO dfs.DataNode$PacketResponder: Received block blk_-1138721064996782532 of size 67108864 from /10.250.13.240
081111 110429 26 INFO dfs.FSNamesystem: BLOCK* NameSystem.delete: blk_-9209619709543821 is added to invalidSet of 10.251.121.224:50010
081110 112527 9893 INFO dfs.DataNode$DataXceiver: Receiving block blk_5032444568287523301 src: /10.251.38.197:37881 dest: /10.251.38.197:50010
081111 030647 18350 INFO dfs.DataNode$DataXceiver: Receiving block blk_5775461492369389678 src: /10.250.13.240:39458 dest: /10.250.13.240:50010
081109 235843 33 INFO dfs.FSNamesystem: BLOCK* NameSystem.addStoredBlock: blockMap updated: 10.251.111.209:50010 is added to blk_4328725534127514516 size 67108864
081110 153658 13151 INFO dfs.DataNode$DataXceiver: Receiving block blk_-2005228568722532935 src: /10.251.65.203:48317 dest: /10.251.65.203:50010
081111 083252 33 INFO dfs.FSNamesystem: BLOCK* NameSystem.allocateBlock: /user/root/rand7/_temporary/_task_200811101024_0014_m_001133_0/part-01133. blk_-6734443999610463052
081111 085901 32 INFO dfs.FSNamesystem: BLOCK* NameSystem.delete: blk_-1792429829810398082 is added to invalidSet of 10.251.30.134:50010
081110 225333 16531 INFO dfs.DataNode$PacketResponder: Received block blk_-4337662546186184994 of size 67108864 from /10.250.6.214
081111 095321 26043 INFO dfs.DataNode$DataXceiver: Receiving block blk_3270926012324936850 src: /10.250.10.144:57347 dest: /10.250.10.144:50010
081111 103527 27 INFO dfs.FSNamesystem: BLOCK* NameSystem.addStoredBlock: blockMap updated: 10.251.74.134:50010 is added to blk_7279206883530426364 size 67108864
081111 044819 19 INFO dfs.FSDataset: Deleting block blk_7349509565257328710 file /mnt/hadoop/dfs/data/current/subdir54/blk_7349509565257328710
081111 060610 34 INFO dfs.FSNamesystem: BLOCK* NameSystem.allocateBlock: /user/root/randtxt5/_temporary/_task_200811101024_0012_m_000469_0/part-00469. blk_-4072288972665306158
081110 210443 19 INFO dfs.FSDataset: Deleting block blk_-1845408735292606251 file /mnt/hadoop/dfs/data/current/subdir35/blk_-1845408735292606251
081110 210126 28 INFO dfs.FSNamesystem: BLOCK* NameSystem.delete: blk_-8786092233664809327 is added to invalidSet of 10.251.91.32:50010
081111 023026 27 INFO dfs.FSNamesystem: BLOCK* NameSystem.delete: blk_-8672830092156193524 is added to invalidSet of 10.250.17.177:50010
081110 223827 16400 INFO dfs.DataNode$DataXceiver: Receiving block blk_878638760578978267 src: /10.251.195.33:39738 dest: /10.251.195.33:50010
081110 112428 10006 INFO dfs.DataNode$PacketResponder: Received block blk_6549930810289492368 of size 67108864 from /10.251.74.227
081109 233234 29 INFO dfs.FSNamesystem: BLOCK* NameSystem.allocateBlock: /user/root/sortrand/_temporary/_task_200811092030_0002_r_000211_0/part-00211. blk_8322018948430740810
081110 103758 19 INFO dfs.FSDataset: Deleting block blk_9005658454719686177 file /mnt/hadoop/dfs/data/current/subdir46/blk_9005658454719686177
081110 110755 9335 INFO dfs.DataNode$PacketResponder: Received block blk_-3262882025791598747 of size 3547960 from /10.251.27.63
081111 044319 35 INFO dfs.FSNamesystem: BLOCK* NameSystem.delete: blk_-553153001720545340 is added to invalidSet of 10.251.91.15:50010
081111 032029 26 INFO dfs.FSNamesystem: BLOCK* NameSystem.addStoredBlock: blockMap updated: 10.250.19.16:50010 is added to blk_7703983698429306888 size 67108864
081111 102119 26857 INFO dfs.DataNode$PacketResponder: Received block blk_4816817335647845478 of size 3544966 from /10.251.202.181
081110 123506 11312 INFO dfs.DataNode$PacketResponder: Received block blk_-8996403540559477533 of size 67108864 from /10.251.90.64
081111 044442 19 INFO dfs.FSDataset: Deleting block blk_-7880787006123671818 file /mnt/hadoop/dfs/data/current/subdir9/blk_-7880787006123671818
081111 044335 29 INFO dfs.FSNamesystem: BLOCK* NameSystem.delete: blk_-5185346513335210680 is added to invalidSet of 10.251.123.99:50010
081110 225423 32 INFO dfs.FSNamesystem: BLOCK* NameSystem.addStoredBlock: blockMap updated: 10.251.70.211:50010 is added to blk_-1956140031907143783 size 67108864
081109 211313 31 INFO dfs.FSNamesystem: BLOCK* NameSystem.addStoredBlock: blockMap updated: 10.250.14.224:50010 is added to blk_-2855196236044756812 size 67108864
081111 102507 26416 INFO dfs.DataNode$PacketResponder: Received block blk_6647392474037435299 of size 67108864 from /10.251.123.195
081110 220658 32 INFO dfs.FSNamesystem: BLOCK* NameSystem.delete: blk_2783073955330643096 is added to invalidSet of 10.250.15.198:50010
081111 063227 35 INFO dfs.FSNamesystem: BLOCK* NameSystem.addStoredBlock: blockMap updated: 10.251.39.192:50010 is added to blk_-3115238654217962662 size 67108864
081111 102315 26872 INFO dfs.DataNode$DataXceiver: Receiving block blk_-1051142204166285456 src: /10.251.71.193:39209 dest: /10.251.71.193:50010
081111 023248 19 INFO dfs.FSDataset: Deleting block blk_9177623856903143327 file /mnt/hadoop/dfs/data/current/subdir9/blk_9177623856903143327
081109 214009 2543 WARN dfs.DataNode$DataXceiver: 10.251.126.255:50010:Got exception while serving blk_5606768571203795321 to /10.251.203.166:
081111 030726 18292 INFO dfs.DataNode$PacketResponder: PacketResponder 2 for block blk_-1122323571704763912 terminating
081111 054956 21255 INFO dfs.DataNode$PacketResponder: Received block blk_5049886366169201976 of size 67108864 from /10.251.126.255
081111 091945 25398 INFO dfs.DataNode$PacketResponder: Received block blk_-9214475200964211270 of size 67108864 from /10.251.43.210
081110 103627 19 INFO dfs.FSDataset: Deleting block blk_2355680815420047982 file /mnt/hadoop/dfs/data/current/subdir10/blk_2355680815420047982
081111 071041 22395 INFO dfs.DataNode$DataXceiver: Receiving block blk_-1644652253152563641 src: /10.251.202.181:34701 dest: /10.251.202.181:50010
081110 110538 9335 INFO dfs.DataNode$PacketResponder: PacketResponder 0 for block blk_-9053790718613726847 terminating
081110 001016 4754 INFO dfs.DataNode$PacketResponder: PacketResponder 2 for block blk_-2544538338863984171 terminating
081111 110442 26 INFO dfs.FSNamesystem: BLOCK* NameSystem.delete: blk_90176896259185277 is added to invalidSet of 10.251.107.98:50010
081110 210149 28 INFO dfs.FSNamesystem: BLOCK* NameSystem.delete: blk_1509601001572434091 is added to invalidSet of 10.250.6.214:50010
081111 071257 34 INFO dfs.FSNamesystem: BLOCK* NameSystem.addStoredBlock: blockMap updated: 10.250.17.177:50010 is added to blk_6120188370454610826 size 67108864
081109 212933 2217 INFO dfs.DataNode$PacketResponder: PacketResponder 0 for block blk_5497575607315887442 terminating
081111 042817 19537 INFO dfs.DataNode$PacketResponder: PacketResponder 2 for block blk_3613291213639445093 terminating
081110 120052 10855 INFO dfs.DataNode$PacketResponder: PacketResponder 1 for block blk_6213428256630553411 terminating
081111 104418 27095 INFO dfs.DataNode$DataXceiver: Receiving block blk_7445893614283144228 src: /10.251.126.255:52828 dest: /10.251.126.255:50010
081109 211559 1676 INFO dfs.DataNode$DataXceiver: Receiving block blk_8308632045586150396 src: /10.251.110.160:36763 dest: /10.251.110.160:50010
081110 223541 16279 INFO dfs.DataNode$PacketResponder: PacketResponder 1 for block blk_3704650425035912440 terminating
081111 052721 21012 INFO dfs.DataNode$PacketResponder: PacketResponder 1 for block blk_4380791805612922889 terminating
081110 215002 15530 INFO dfs.DataNode$DataXceiver: Receiving block blk_6613446416410688215 src: /10.251.39.144:35874 dest: /10.251.39.144:50010
081111 085910 27 INFO dfs.FSNamesystem: BLOCK* NameSystem.delete: blk_2904822069780698541 is added to invalidSet of 10.251.214.18:50010
081110 013824 5656 INFO dfs.DataNode$DataXceiver: Receiving block blk_3116029193673789138 src: /10.251.122.65:49635 dest: /10.251.122.65:50010
081111 071320 22895 INFO dfs.DataNode$PacketResponder: PacketResponder 1 for block blk_1501646793874763154 terminating
081110 122216 11104 INFO dfs.DataNode$PacketResponder: PacketResponder 0 for block blk_5697875653291506802 terminating
081111 054831 21368 INFO dfs.DataNode$PacketResponder: PacketResponder 1 for block blk_1448418904688051393 terminating
081111 085919 27 INFO dfs.FSNamesystem: BLOCK* NameSystem.delete: blk_-1267690482010738922 is added to invalidSet of 10.251.214.67:50010
081110 210147 28 INFO dfs.FSNamesystem: BLOCK* NameSystem.delete: blk_-101741915335898198 is added to invalidSet of 10.251.39.192:50010
081111 083724 24671 INFO dfs.DataNode$DataXceiver: Receiving block blk_-2846811726085224275 src: /10.251.38.53:56208 dest: /10.251.38.53:50010
081111 081138 30 INFO dfs.FSNamesystem: BLOCK* NameSystem.addStoredBlock: blockMap updated: 10.251.111.80:50010 is added to blk_-3249777307880394812 size 67108864
081111 083915 24505 INFO dfs.DataNode$PacketResponder: PacketResponder 1 for block blk_3774970444299683666 terminating
081110 110130 9270 INFO dfs.DataNode$PacketResponder: Received block blk_5875017373786742954 of size 67108864 from /10.251.75.228
081111 073904 23786 INFO dfs.DataNode$PacketResponder: PacketResponder 2 for block blk_6523624242523564543 terminating
081111 110523 19 INFO dfs.FSDataset: Deleting block blk_-4506706872561533993 file /mnt/hadoop/dfs/data/current/subdir7/blk_-4506706872561533993
081110 071154 7727 WARN dfs.DataNode$DataXceiver: 10.250.10.6:50010:Got exception while serving blk_6588389191466682499 to /10.250.10.6:
081110 110010 9555 INFO dfs.DataNode$PacketResponder: Received block blk_-8227206465743400939 of size 67108864 from /10.251.43.115
081110 000811 4444 INFO dfs.DataNode$DataXceiver: Receiving block blk_-4552865279175747032 src: /10.250.18.114:37861 dest: /10.250.18.114:50010
081111 024538 17903 INFO dfs.DataNode$PacketResponder: PacketResponder 2 for block blk_796444406329606163 terminating
081111 103812 26940 INFO dfs.DataNode$PacketResponder: Received block blk_6412502252034428676 of size 67108864 from /10.251.39.144
081111 053248 21110 INFO dfs.DataNode$PacketResponder: Received block blk_1807567325851756190 of size 67108864 from /10.251.126.5
081110 103148 30 INFO dfs.FSNamesystem: BLOCK* NameSystem.delete: blk_-3041026822367149718 is added to invalidSet of 10.251.90.239:50010
081110 011848 5309 INFO dfs.DataNode$DataXceiver: Receiving block blk_689675800042358676 src: /10.251.67.4:56727 dest: /10.251.67.4:50010
081110 225513 16321 INFO dfs.DataNode$PacketResponder: PacketResponder 1 for block blk_8131084684677656637 terminating
081110 020205 6090 INFO dfs.DataNode$DataXceiver: Receiving block blk_-3013141479701525732 src: /10.251.203.129:56022 dest: /10.251.203.129:50010
081111 094308 34 INFO dfs.FSNamesystem: BLOCK* NameSystem.addStoredBlock: blockMap updated: 10.251.110.196:50010 is added to blk_4867894130013130395 size 67108864
081110 144449 31 INFO dfs.FSNamesystem: BLOCK* NameSystem.allocateBlock: /user/root/sortrand2/_temporary/_task_200811101024_0003_r_000202_0/part-00202. blk_5177186252646323012
081111 082357 33 INFO dfs.FSNamesystem: BLOCK* NameSystem.addStoredBlock: blockMap updated: 10.251.123.1:50010 is added to blk_-3094259184212480768 size 67108864
081111 105253 31 INFO dfs.FSNamesystem: BLOCK* NameSystem.addStoredBlock: blockMap updated: 10.251.198.33:50010 is added to blk_498565934099111783 size 67108864
081110 143900 12372 INFO dfs.DataNode$DataXceiver: Receiving block blk_2429134169111484487 src: /10.251.194.102:34656 dest: /10.251.194.102:50010
081110 151628 13258 INFO dfs.DataNode$PacketResponder: PacketResponder 0 for block blk_904201868391248887 terminating
081110 114641 10393 INFO dfs.DataNode$PacketResponder: Received block blk_5898530156344074417 of size 67108864 from /10.251.75.163
081110 210326 19 INFO dfs.FSDataset: Deleting block blk_-8804687829381590375 file /mnt/hadoop/dfs/data/current/subdir5/blk_-8804687829381590375
081110 225858 28 INFO dfs.FSNamesystem: BLOCK* NameSystem.addStoredBlock: blockMap updated: 10.251.125.193:50010 is added to blk_-9160568746755769907 size 67108864
081111 055808 21526 INFO dfs.DataNode$DataXceiver: Receiving block blk_-2665348749371171504 src: /10.250.15.101:48126 dest: /10.250.15.101:50010
081111 065449 18 INFO dfs.FSDataset: Deleting block blk_4575122124624255140 file /mnt/hadoop/dfs/data/current/subdir62/blk_4575122124624255140
081111 073634 23520 INFO dfs.DataNode$DataXceiver: Receiving block blk_-1429092883227590073 src: /10.251.27.63:34416 dest: /10.251.27.63:50010
081111 041721 19681 INFO dfs.DataNode$DataXceiver: Receiving block blk_-3734738552217795765 src: /10.251.107.196:38095 dest: /10.251.107.196:50010
081111 075851 19 INFO dfs.FSDataset: Deleting block blk_4224731296012181411 file /mnt/hadoop/dfs/data/current/subdir9/blk_4224731296012181411
081111 110533 19 INFO dfs.FSDataset: Deleting block blk_-6026658964346390131 file /mnt/hadoop/dfs/data/current/subdir4/blk_-6026658964346390131
081109 204329 438 INFO dfs.DataNode$PacketResponder: PacketResponder 2 for block blk_-2449203504484604368 terminating
081111 023241 19 INFO dfs.FSDataset: Deleting block blk_2603175845267581076 file /mnt/hadoop/dfs/data/current/subdir15/blk_2603175845267581076
081109 211338 27 INFO dfs.FSNamesystem: BLOCK* NameSystem.allocateBlock: /user/root/rand/_temporary/_task_200811092030_0001_m_001265_0/part-01265. blk_442041799034041513
081111 061454 22120 INFO dfs.DataNode$DataXceiver: Receiving block blk_6761123230935999976 src: /10.251.75.79:43470 dest: /10.251.75.79:50010
081111 085914 27 INFO dfs.FSNamesystem: BLOCK* NameSystem.delete: blk_871969984744733217 is added to invalidSet of 10.251.39.192:50010
081110 184707 14043 INFO dfs.DataNode$DataXceiver: 10.250.17.225:50010 Served block blk_2965787432655126332 to /10.250.17.225
081110 013217 28 INFO dfs.FSNamesystem: BLOCK* NameSystem.addStoredBlock: blockMap updated: 10.250.17.177:50010 is added to blk_-5075391929401395439 size 67108864
081111 105456 29 INFO dfs.FSNamesystem: BLOCK* NameSystem.addStoredBlock: blockMap updated: 10.250.17.225:50010 is added to blk_3468199467679926943 size 67108864
081111 065638 22408 INFO dfs.DataNode$PacketResponder: Received block blk_-1094382276669587483 of size 67108864 from /10.251.90.134
081110 121436 10796 INFO dfs.DataNode$PacketResponder: Received block blk_8852651257088218920 of size 67108864 from /10.251.43.192
081110 220637 32 INFO dfs.FSNamesystem: BLOCK* NameSystem.delete: blk_3491677711706298171 is added to invalidSet of 10.251.203.80:50010
081109 204227 33 INFO dfs.FSNamesystem: BLOCK* NameSystem.allocateBlock: /user/root/rand/_temporary/_task_200811092030_0001_m_000052_0/part-00052. blk_3419473068446392334
081111 084150 24784 INFO dfs.DataNode$PacketResponder: Received block blk_-6557641108926808706 of size 67108864 from /10.251.35.1
081110 210132 28 INFO dfs.FSNamesystem: BLOCK* NameSystem.delete: blk_5047317099809926580 is added to invalidSet of 10.251.31.5:50010
081111 034442 19108 INFO dfs.DataNode$DataXceiver: Receiving block blk_-5232644069506653969 src: /10.251.194.213:44102 dest: /10.251.194.213:50010
081110 230808 17131 INFO dfs.DataNode$PacketResponder: PacketResponder 2 for block blk_4804661582781374464 terminating
081111 083038 24022 INFO dfs.DataNode$PacketResponder: PacketResponder 1 for block blk_8416977277716306543 terminating
081110 040351 13 INFO dfs.DataBlockScanner: Verification succeeded for blk_910543075776205976
081110 103046 34 INFO dfs.FSNamesystem: BLOCK* NameSystem.delete: blk_3968507890855450369 is added to invalidSet of 10.251.26.8:50010
081111 085335 29 INFO dfs.FSNamesystem: BLOCK* NameSystem.addStoredBlock: blockMap updated: 10.251.194.245:50010 is added to blk_-8249641429921116488 size 67108864
081110 220035 35 INFO dfs.FSNamesystem: BLOCK* NameSystem.allocateBlock: /user/root/rand3/_temporary/_task_200811101024_0005_m_001772_0/part-01772. blk_6976126846649845584
081110 104109 9117 INFO dfs.DataNode$PacketResponder: PacketResponder 0 for block blk_2239514552994024860 terminating
081111 084059 19113 INFO dfs.DataNode$PacketResponder: PacketResponder 0 for block blk_283279650477349366 terminating
081110 123217 11558 INFO dfs.DataNode$DataXceiver: Receiving block blk_3585999840768070197 src: /10.251.71.240:57105 dest: /10.251.71.240:50010
081109 212836 28 INFO dfs.FSNamesystem: BLOCK* NameSystem.addStoredBlock: blockMap updated: 10.251.199.86:50010 is added to blk_-569423538580886167 size 67108864
081110 210152 28 INFO dfs.FSNamesystem: BLOCK* NameSystem.delete: blk_7379897349385990085 is added to invalidSet of 10.251.71.68:50010
081111 080953 19 INFO dfs.DataNode: 10.251.127.191:50010 Starting thread to transfer block blk_2698627825659590062 to 10.250.10.100:50010
081111 061846 30 INFO dfs.FSNamesystem: BLOCK* NameSystem.addStoredBlock: blockMap updated: 10.251.214.225:50010 is added to blk_4245630705391255329 size 67108864
081110 113403 10235 INFO dfs.DataNode$PacketResponder: PacketResponder 0 for block blk_7921821634648276153 terminating
081111 094645 25820 INFO dfs.DataNode$PacketResponder: PacketResponder 1 for block blk_732063711672556863 terminating
081111 085916 27 INFO dfs.FSNamesystem: BLOCK* NameSystem.delete: blk_-5072542708306545997 is added to invalidSet of 10.251.42.9:50010
081111 063035 34 INFO dfs.FSNamesystem: BLOCK* NameSystem.allocateBlock: /user/root/randtxt5/_temporary/_task_200811101024_0012_m_001328_0/part-01328. blk_-6999936688501985796
081110 214820 26 INFO dfs.FSNamesystem: BLOCK* NameSystem.addStoredBlock: blockMap updated: 10.250.17.177:50010 is added to blk_2650709797480574869 size 67108864
081111 024723 18205 INFO dfs.DataNode$DataXceiver: Receiving block blk_-9216345047017404629 src: /10.250.10.144:34269 dest: /10.250.10.144:50010
081111 042225 19691 INFO dfs.DataNode$DataXceiver: Receiving block blk_7188354054894287626 src: /10.251.70.5:41372 dest: /10.251.70.5:50010
081110 032218 6624 INFO dfs.DataNode$DataXceiver: 10.251.90.81:50010 Served block blk_517488889241183984 to /10.251.90.81
081111 034851 19197 INFO dfs.DataNode$PacketResponder: Received block blk_-3832730797234248410 of size 67108864 from /10.251.199.19
081111 101354 25946 INFO dfs.DataNode$PacketResponder: PacketResponder 1 for block blk_-4950441821388722168 terminating
081110 012152 35 INFO dfs.FSNamesystem: BLOCK* NameSystem.addStoredBlock: blockMap updated: 10.251.199.245:50010 is added to blk_6120228493097169196 size 67108864
081111 075855 19 INFO dfs.FSDataset: Deleting block blk_-7993971594906788890 file /mnt/hadoop/dfs/data/current/subdir2/blk_-7993971594906788890
081110 122259 11050 INFO dfs.DataNode$PacketResponder: PacketResponder 0 for block blk_-4193977807107789006 terminating
081110 012623 30 INFO dfs.FSNamesystem: BLOCK* NameSystem.allocateBlock: /user/root/randtxt/_temporary/_task_200811092030_0003_m_001039_0/part-01039. blk_-6755076978340681563
081110 003213 3825 INFO dfs.DataNode$PacketResponder: Received block blk_-4092315407188121223 of size 67108864 from /10.251.199.86
081110 120648 10700 INFO dfs.DataNode$PacketResponder: PacketResponder 2 for block blk_1512926362069051428 terminating
081111 065217 26 INFO dfs.FSNamesystem: BLOCK* NameSystem.delete: blk_-2831921041775382808 is added to invalidSet of 10.251.106.10:50010
081111 031227 18258 INFO dfs.DataNode$PacketResponder: Received block blk_-7446253288731505115 of size 67108864 from /10.251.25.237
081109 234159 4178 INFO dfs.DataNode$PacketResponder: Received block blk_8141038011033698825 of size 67108864 from /10.251.26.131
081110 010336 28 INFO dfs.FSNamesystem: BLOCK* NameSystem.addStoredBlock: blockMap updated: 10.251.90.134:50010 is added to blk_-952086859037768016 size 67108864
081110 103754 19 INFO dfs.FSDataset: Deleting block blk_6825366346132053761 file /mnt/hadoop/dfs/data/current/subdir21/blk_6825366346132053761
081109 220740 3303 WARN dfs.DataNode$DataXceiver: 10.251.126.227:50010:Got exception while serving blk_-6532046066529700382 to /10.251.42.84:
081110 224116 33 INFO dfs.FSNamesystem: BLOCK* NameSystem.addStoredBlock: blockMap updated: 10.251.127.191:50010 is added to blk_3959606039560605720 size 28492939
081111 100626 33 INFO dfs.FSNamesystem: BLOCK* NameSystem.addStoredBlock: blockMap updated: 10.251.199.225:50010 is added to blk_-7230057725507664728 size 67108864
081110 220934 15623 INFO dfs.DataNode$PacketResponder: Received block blk_1558873319476558205 of size 67108864 from /10.251.125.193
081110 081918 8185 WARN dfs.DataNode$DataXceiver: 10.251.31.180:50010:Got exception while serving blk_1952140182502454577 to /10.251.31.5:
081110 001355 35 INFO dfs.FSNamesystem: BLOCK* NameSystem.addStoredBlock: blockMap updated: 10.250.10.223:50010 is added to blk_3321434352099694652 size 67108864
081111 024403 17818 INFO dfs.DataNode$PacketResponder: Received block blk_8059556115255020421 of size 67108864 from /10.250.15.240
081110 144431 12482 INFO dfs.DataNode$PacketResponder: PacketResponder 2 for block blk_187786619913210808 terminating
081111 061145 21888 INFO dfs.DataNode$PacketResponder: PacketResponder 0 for block blk_-5596445784785290763 terminating
081111 101417 26189 INFO dfs.DataNode$PacketResponder: PacketResponder 1 for block blk_6294506244820350534 terminating
081111 065915 22794 INFO dfs.DataNode$DataXceiver: Receiving block blk_7561199071172780885 src: /10.251.199.245:44225 dest: /10.251.199.245:50010
081111 063524 22461 INFO dfs.DataNode$PacketResponder: PacketResponder 0 for block blk_-1204511435089008857 terminating
081111 052733 20961 INFO dfs.DataNode$PacketResponder: PacketResponder 2 for block blk_-250361883518042363 terminating
081111 023240 19 INFO dfs.FSDataset: Deleting block blk_896677271084557102 file /mnt/hadoop/dfs/data/current/subdir19/blk_896677271084557102
081111 094512 25914 INFO dfs.DataNode$PacketResponder: Received block blk_-7579236222909415062 of size 3552497 from /10.251.201.204
081110 145656 30 INFO dfs.FSNamesystem: BLOCK* NameSystem.addStoredBlock: blockMap updated: 10.251.66.63:50010 is added to blk_5061635477635224135 size 67108864
081109 234221 13 INFO dfs.DataBlockScanner: Verification succeeded for blk_4698487191493023808
081110 144352 12633 INFO dfs.DataNode$DataXceiver: Receiving block blk_-6732938937808784254 src: /10.251.31.85:52564 dest: /10.251.31.85:50010
081110 210610 19 INFO dfs.FSDataset: Deleting block blk_5814658286437813932 file /mnt/hadoop/dfs/data/current/subdir58/blk_5814658286437813932
081111 043943 20124 INFO dfs.DataNode$PacketResponder: PacketResponder 1 for block blk_-3213847664421894216 terminating
081110 103648 19 INFO dfs.FSDataset: Deleting block blk_6451173612408206113 file /mnt/hadoop/dfs/data/current/subdir12/blk_6451173612408206113
081111 105634 27175 INFO dfs.DataNode$DataXceiver: Receiving block blk_5504974894975074872 src: /10.251.67.4:48097 dest: /10.251.67.4:50010
081111 093157 25584 INFO dfs.DataNode$PacketResponder: Received block blk_416331008424734061 of size 3545896 from /10.251.90.64
081110 115611 32 INFO dfs.FSNamesystem: BLOCK* NameSystem.allocateBlock: /user/root/randtxt2/_temporary/_task_200811101024_0002_m_000631_0/part-00631. blk_8241850904380632396
081111 090124 18 INFO dfs.FSDataset: Deleting block blk_-1300049705426695066 file /mnt/hadoop/dfs/data/current/subdir48/blk_-1300049705426695066
081111 064459 22512 INFO dfs.DataNode$DataXceiver: Receiving block blk_8813365316339205856 src: /10.251.43.210:35090 dest: /10.251.43.210:50010
081110 220903 19 INFO dfs.FSDataset: Deleting block blk_1378583069608500063 file /mnt/hadoop/dfs/data/current/subdir26/blk_1378583069608500063
081110 112616 26 INFO dfs.FSNamesystem: BLOCK* NameSystem.addStoredBlock: blockMap updated: 10.251.75.79:50010 is added to blk_9166770829152765464 size 67108864
081110 220649 32 INFO dfs.FSNamesystem: BLOCK* NameSystem.delete: blk_-5057334867750972063 is added to invalidSet of 10.251.30.179:50010
081110 104144 9077 INFO dfs.DataNode$PacketResponder: PacketResponder 0 for block blk_1922055674910387040 terminating
081110 220640 32 INFO dfs.FSNamesystem: BLOCK* NameSystem.delete: blk_1440043529474091046 is added to invalidSet of 10.250.14.143:50010
081111 072457 23440 INFO dfs.DataNode$PacketResponder: Received block blk_1154149204700365572 of size 67108864 from /10.251.106.50
081111 105635 26965 INFO dfs.DataNode$DataXceiver: Receiving block blk_-7317020498858680852 src: /10.251.107.227:50175 dest: /10.251.107.227:50010
081111 052257 20702 INFO dfs.DataNode$PacketResponder: Received block blk_1729404440281730511 of size 67108864 from /10.251.73.220
081111 044748 19 INFO dfs.FSDataset: Deleting block blk_7548851846729110572 file /mnt/hadoop/dfs/data/current/subdir60/blk_7548851846729110572
081111 075945 19 INFO dfs.FSDataset: Deleting block blk_8767948071599153489 file /mnt/hadoop/dfs/data/current/subdir61/blk_8767948071599153489
081109 213614 2445 INFO dfs.DataNode$PacketResponder: Received block blk_6619069915550599574 of size 67108864 from /10.251.43.192
081111 093223 25409 INFO dfs.DataNode$PacketResponder: Received block blk_-7472874234846818741 of size 67108864 from /10.251.107.242
081110 104158 19 INFO dfs.FSDataset: Deleting block blk_9198425830974078063 file /mnt/hadoop/dfs/data/current/subdir58/blk_9198425830974078063
081110 210153 28 INFO dfs.FSNamesystem: BLOCK* NameSystem.delete: blk_8073796959903296247 is added to invalidSet of 10.251.125.193:50010
081110 112456 9770 INFO dfs.DataNode$DataXceiver: Receiving block blk_-489453505554181546 src: /10.251.71.68:54478 dest: /10.251.71.68:50010
081111 041608 19604 INFO dfs.DataNode$PacketResponder: Received block blk_8643335852145142817 of size 67108864 from /10.251.75.163
081111 075619 28 INFO dfs.FSNamesystem: BLOCK* NameSystem.delete: blk_3062570049041336887 is added to invalidSet of 10.251.214.130:50010
081109 235651 4401 INFO dfs.DataNode$DataXceiver: Receiving block blk_4036516269697566417 src: /10.251.123.1:49973 dest: /10.251.123.1:50010
081110 210144 28 INFO dfs.FSNamesystem: BLOCK* NameSystem.delete: blk_2172365713676746636 is added to invalidSet of 10.251.127.191:50010
081109 210451 29 INFO dfs.FSNamesystem: BLOCK* NameSystem.addStoredBlock: blockMap updated: 10.251.70.211:50010 is added to blk_970851518268682644 size 67108864
081109 205654 924 INFO dfs.DataNode$PacketResponder: Received block blk_2979088635273927531 of size 67108864 from /10.251.107.50
081111 050011 32 INFO dfs.FSNamesystem: BLOCK* NameSystem.addStoredBlock: blockMap updated: 10.251.214.130:50010 is added to blk_5133036095328966174 size 67108864
081110 001057 4663 INFO dfs.DataNode$PacketResponder: Received block blk_5449782796946069089 of size 67108864 from /10.251.215.16
081110 012903 5600 INFO dfs.DataNode$PacketResponder: PacketResponder 1 for block blk_1392915017343960307 terminating
081109 204945 651 INFO dfs.DataNode$PacketResponder: PacketResponder 0 for block blk_-346423316860201310 terminating
081111 075618 28 INFO dfs.FSNamesystem: BLOCK* NameSystem.delete: blk_7699174161203086047 is added to invalidSet of 10.251.90.239:50010
081110 103127 30 INFO dfs.FSNamesystem: BLOCK* NameSystem.delete: blk_-7003764851255174398 is added to invalidSet of 10.250.7.244:50010
081110 103143 30 INFO dfs.FSNamesystem: BLOCK* NameSystem.delete: blk_-8599207311960386248 is added to invalidSet of 10.251.199.245:50010
081110 110937 9606 INFO dfs.DataNode$PacketResponder: Received block blk_5387158181067463934 of size 67108864 from /10.251.203.246
081111 033946 19368 INFO dfs.DataNode$PacketResponder: Received block blk_-1706337201864507885 of size 67108864 from /10.251.122.79
081111 024159 17536 INFO dfs.DataNode$PacketResponder: Received block blk_-6935005966956192407 of size 67108864 from /10.250.14.143
081110 230703 29 INFO dfs.FSNamesystem: BLOCK* NameSystem.addStoredBlock: blockMap updated: 10.251.66.3:50010 is added to blk_-8469256160561304873 size 67108864
081111 101723 26235 INFO dfs.DataNode$PacketResponder: PacketResponder 1 for block blk_-1897819325838421916 terminating
081110 051402 7008 WARN dfs.DataNode$DataXceiver: 10.251.67.4:50010:Got exception while serving blk_-2735478648677837343 to /10.251.75.228:
081111 075124 35 INFO dfs.FSNamesystem: BLOCK* NameSystem.allocateBlock: /user/root/rand6/_temporary/_task_200811101024_0013_m_002002_0/part-02002. blk_4594460144312587671
081111 044312 35 INFO dfs.FSNamesystem: BLOCK* NameSystem.delete: blk_-1852819491866312521 is added to invalidSet of 10.251.111.37:50010
081111 054022 26 INFO dfs.FSNamesystem: BLOCK* NameSystem.addStoredBlock: blockMap updated: 10.251.75.49:50010 is added to blk_4338557755594300892 size 67108864
081110 103733 19 INFO dfs.FSDataset: Deleting block blk_6140099629767589526 file /mnt/hadoop/dfs/data/current/subdir51/blk_6140099629767589526
081111 033826 33 INFO dfs.FSNamesystem: BLOCK* NameSystem.delete: blk_7837992532321663786 is added to invalidSet of 10.251.25.237:50010
081110 103716 19 INFO dfs.FSDataset: Deleting block blk_3957344494666888431 file /mnt/hadoop/dfs/data/current/subdir19/blk_3957344494666888431
081110 144844 12765 INFO dfs.DataNode$DataXceiver: Receiving block blk_4160063964083933948 src: /10.250.6.223:49190 dest: /10.250.6.223:50010
081110 220648 32 INFO dfs.FSNamesystem: BLOCK* NameSystem.delete: blk_8150196913362094384 is added to invalidSet of 10.251.203.129:50010
081111 034352 18918 INFO dfs.DataNode$DataXceiver: Receiving block blk_4433600447565248713 src: /10.251.195.70:60165 dest: /10.251.195.70:50010
081111 101933 26691 INFO dfs.DataNode$PacketResponder: Received block blk_1569200287385110943 of size 67108864 from /10.251.26.177
081110 120815 34 INFO dfs.FSNamesystem: BLOCK* NameSystem.addStoredBlock: blockMap updated: 10.251.75.49:50010 is added to blk_4379524402099374391 size 67108864
081109 234722 28 INFO dfs.FSNamesystem: BLOCK* NameSystem.addStoredBlock: blockMap updated: 10.251.90.81:50010 is added to blk_-9015766871523580385 size 67108864
081110 145423 12867 INFO dfs.DataNode$DataXceiver: Receiving block blk_-4068982093078508807 src: /10.251.29.239:54874 dest: /10.251.29.239:50010
081110 180417 13839 INFO dfs.DataNode$DataXceiver: 10.250.7.244:50010 Served block blk_2594008309982272927 to /10.250.7.244
081111 063952 22651 INFO dfs.DataNode$DataXceiver: Receiving block blk_-4751086317642608943 src: /10.251.67.225:47946 dest: /10.251.67.225:50010
081110 020204 6034 INFO dfs.DataNode$PacketResponder: Received block blk_6359447276202722926 of size 67108864 from /10.251.31.242
081110 110136 9448 INFO dfs.DataNode$DataXceiver: Receiving block blk_7968541938690601019 src: /10.251.74.79:54513 dest: /10.251.74.79:50010
081111 065524 19 INFO dfs.FSDataset: Deleting block blk_5736637884713313664 file /mnt/hadoop/dfs/data/current/subdir31/blk_5736637884713313664
081109 210422 34 INFO dfs.FSNamesystem: BLOCK* NameSystem.addStoredBlock: blockMap updated: 10.251.123.20:50010 is added to blk_-7777328753958322109 size 67108864
081110 220646 32 INFO dfs.FSNamesystem: BLOCK* NameSystem.delete: blk_-160589950739540655 is added to invalidSet of 10.251.202.181:50010
081109 204056 27 INFO dfs.FSNamesystem: BLOCK* NameSystem.addStoredBlock: blockMap updated: 10.250.9.207:50010 is added to blk_4290408627270310959 size 67108864
081111 102721 26955 INFO dfs.DataNode$PacketResponder: PacketResponder 2 for block blk_-4693209251803990577 terminating
081111 044330 29 INFO dfs.FSNamesystem: BLOCK* NameSystem.delete: blk_-1126214954529037155 is added to invalidSet of 10.251.197.161:50010
081110 103803 19 INFO dfs.FSDataset: Deleting block blk_8391830131091330374 file /mnt/hadoop/dfs/data/current/subdir59/blk_8391830131091330374
081110 103128 30 INFO dfs.FSNamesystem: BLOCK* NameSystem.delete: blk_5834074884080388583 is added to invalidSet of 10.251.39.144:50010
081110 083351 8517 INFO dfs.DataNode$DataXceiver: 10.251.121.224:50010 Served block blk_1964750874820371162 to /10.251.121.224
081111 075839 19 INFO dfs.FSDataset: Deleting block blk_665640641836549401 file /mnt/hadoop/dfs/data/current/subdir15/blk_665640641836549401
081111 031340 31 INFO dfs.FSNamesystem: BLOCK* NameSystem.addStoredBlock: blockMap updated: 10.250.7.32:50010 is added to blk_-2022093289945259367 size 67108864
081109 204238 403 INFO dfs.DataNode$PacketResponder: PacketResponder 2 for block blk_-6962417809783610869 terminating
081110 145635 12742 INFO dfs.DataNode$PacketResponder: PacketResponder 0 for block blk_7259958122344941621 terminating
081111 062626 21863 INFO dfs.DataNode$DataXceiver: Receiving block blk_7322826336923314634 src: /10.251.214.32:42060 dest: /10.251.214.32:50010
